ARM GAS  /tmp/ccmSLvIb.s 			page 1


   1              		.cpu cortex-m4
   2              		.eabi_attribute 27, 1
   3              		.eabi_attribute 28, 1
   4              		.eabi_attribute 20, 1
   5              		.eabi_attribute 21, 1
   6              		.eabi_attribute 23, 3
   7              		.eabi_attribute 24, 1
   8              		.eabi_attribute 25, 1
   9              		.eabi_attribute 26, 1
  10              		.eabi_attribute 30, 1
  11              		.eabi_attribute 34, 1
  12              		.eabi_attribute 18, 4
  13              		.file	"bsp_usart.c"
  14              		.text
  15              	.Ltext0:
  16              		.cfi_sections	.debug_frame
  17              		.section	.text.ResetUartrRx,"ax",%progbits
  18              		.align	1
  19              		.global	ResetUartrRx
  20              		.syntax unified
  21              		.thumb
  22              		.thumb_func
  23              		.fpu fpv4-sp-d16
  25              	ResetUartrRx:
  26              	.LFB124:
  27              		.file 1 "Src/bsp_usart.c"
   1:Src/bsp_usart.c **** #include "bsp_usart.h"
   2:Src/bsp_usart.c **** #include "stdarg.h"
   3:Src/bsp_usart.c **** 
   4:Src/bsp_usart.c **** 
   5:Src/bsp_usart.c **** UART_HandleTypeDef uart2_hand_typedef;
   6:Src/bsp_usart.c **** 
   7:Src/bsp_usart.c **** uint8_t aRxbuf[1] = {0};
   8:Src/bsp_usart.c **** 
   9:Src/bsp_usart.c **** 
  10:Src/bsp_usart.c **** TYPEDEF_UART_RX pcUsart2RX = {{0},0,0,0};
  11:Src/bsp_usart.c **** 
  12:Src/bsp_usart.c **** void ResetUartrRx(TYPEDEF_UART_RX *puartrx)
  13:Src/bsp_usart.c **** {
  28              		.loc 1 13 0
  29              		.cfi_startproc
  30              		@ args = 0, pretend = 0, frame = 0
  31              		@ frame_needed = 0, uses_anonymous_args = 0
  32              	.LVL0:
  33 0000 10B5     		push	{r4, lr}
  34              	.LCFI0:
  35              		.cfi_def_cfa_offset 8
  36              		.cfi_offset 4, -8
  37              		.cfi_offset 14, -4
  38 0002 0446     		mov	r4, r0
  14:Src/bsp_usart.c **** 	 memset(puartrx->pcRxbuf,0,200);
  39              		.loc 1 14 0
  40 0004 C822     		movs	r2, #200
  41 0006 0021     		movs	r1, #0
  42 0008 FFF7FEFF 		bl	memset
  43              	.LVL1:
  15:Src/bsp_usart.c **** 	 puartrx->rofset = 0;
ARM GAS  /tmp/ccmSLvIb.s 			page 2


  44              		.loc 1 15 0
  45 000c 0023     		movs	r3, #0
  46 000e 84F8C830 		strb	r3, [r4, #200]
  16:Src/bsp_usart.c **** 	 puartrx->lastTick = 0;
  47              		.loc 1 16 0
  48 0012 C4F8CC30 		str	r3, [r4, #204]
  17:Src/bsp_usart.c **** 	 puartrx->rflag = 0;
  49              		.loc 1 17 0
  50 0016 84F8D030 		strb	r3, [r4, #208]
  51 001a 10BD     		pop	{r4, pc}
  52              		.cfi_endproc
  53              	.LFE124:
  55              		.section	.text.USART2_Init,"ax",%progbits
  56              		.align	1
  57              		.global	USART2_Init
  58              		.syntax unified
  59              		.thumb
  60              		.thumb_func
  61              		.fpu fpv4-sp-d16
  63              	USART2_Init:
  64              	.LFB125:
  18:Src/bsp_usart.c **** }
  19:Src/bsp_usart.c **** 
  20:Src/bsp_usart.c **** 
  21:Src/bsp_usart.c **** void USART2_Init(void)
  22:Src/bsp_usart.c **** {
  65              		.loc 1 22 0
  66              		.cfi_startproc
  67              		@ args = 0, pretend = 0, frame = 0
  68              		@ frame_needed = 0, uses_anonymous_args = 0
  69 0000 10B5     		push	{r4, lr}
  70              	.LCFI1:
  71              		.cfi_def_cfa_offset 8
  72              		.cfi_offset 4, -8
  73              		.cfi_offset 14, -4
  23:Src/bsp_usart.c **** 		uart2_hand_typedef.Instance=USART2;					    //USART2
  74              		.loc 1 23 0
  75 0002 0B4C     		ldr	r4, .L5
  76 0004 0B4B     		ldr	r3, .L5+4
  77 0006 2360     		str	r3, [r4]
  24:Src/bsp_usart.c **** 		uart2_hand_typedef.Init.BaudRate=115200;				    
  78              		.loc 1 24 0
  79 0008 4FF4E133 		mov	r3, #115200
  80 000c 6360     		str	r3, [r4, #4]
  25:Src/bsp_usart.c **** 		uart2_hand_typedef.Init.WordLength=UART_WORDLENGTH_8B;   
  81              		.loc 1 25 0
  82 000e 0023     		movs	r3, #0
  83 0010 A360     		str	r3, [r4, #8]
  26:Src/bsp_usart.c **** 		uart2_hand_typedef.Init.StopBits=UART_STOPBITS_1;	    
  84              		.loc 1 26 0
  85 0012 E360     		str	r3, [r4, #12]
  27:Src/bsp_usart.c **** 		uart2_hand_typedef.Init.Parity=UART_PARITY_NONE;		    
  86              		.loc 1 27 0
  87 0014 2361     		str	r3, [r4, #16]
  28:Src/bsp_usart.c **** 		uart2_hand_typedef.Init.HwFlowCtl=UART_HWCONTROL_NONE;   
  88              		.loc 1 28 0
  89 0016 A361     		str	r3, [r4, #24]
ARM GAS  /tmp/ccmSLvIb.s 			page 3


  29:Src/bsp_usart.c **** 		uart2_hand_typedef.Init.Mode=UART_MODE_TX_RX;		    
  90              		.loc 1 29 0
  91 0018 0C23     		movs	r3, #12
  92 001a 6361     		str	r3, [r4, #20]
  30:Src/bsp_usart.c **** 		HAL_UART_Init(&uart2_hand_typedef);					    
  93              		.loc 1 30 0
  94 001c 2046     		mov	r0, r4
  95 001e FFF7FEFF 		bl	HAL_UART_Init
  96              	.LVL2:
  31:Src/bsp_usart.c **** 
  32:Src/bsp_usart.c **** 		HAL_UART_Receive_IT(&uart2_hand_typedef, (uint8_t *)aRxbuf, 1);
  97              		.loc 1 32 0
  98 0022 0122     		movs	r2, #1
  99 0024 0449     		ldr	r1, .L5+8
 100 0026 2046     		mov	r0, r4
 101 0028 FFF7FEFF 		bl	HAL_UART_Receive_IT
 102              	.LVL3:
 103 002c 10BD     		pop	{r4, pc}
 104              	.L6:
 105 002e 00BF     		.align	2
 106              	.L5:
 107 0030 00000000 		.word	uart2_hand_typedef
 108 0034 00440040 		.word	1073759232
 109 0038 00000000 		.word	.LANCHOR0
 110              		.cfi_endproc
 111              	.LFE125:
 113              		.section	.text.HAL_UART_MspInit,"ax",%progbits
 114              		.align	1
 115              		.global	HAL_UART_MspInit
 116              		.syntax unified
 117              		.thumb
 118              		.thumb_func
 119              		.fpu fpv4-sp-d16
 121              	HAL_UART_MspInit:
 122              	.LFB126:
  33:Src/bsp_usart.c **** }
  34:Src/bsp_usart.c **** 
  35:Src/bsp_usart.c **** void HAL_UART_MspInit(UART_HandleTypeDef *huart)
  36:Src/bsp_usart.c **** {
 123              		.loc 1 36 0
 124              		.cfi_startproc
 125              		@ args = 0, pretend = 0, frame = 32
 126              		@ frame_needed = 0, uses_anonymous_args = 0
 127              	.LVL4:
  37:Src/bsp_usart.c **** 	GPIO_InitTypeDef GPIO_Initure;
  38:Src/bsp_usart.c **** 	
  39:Src/bsp_usart.c **** 	if(huart->Instance==USART2)
 128              		.loc 1 39 0
 129 0000 0268     		ldr	r2, [r0]
 130 0002 1D4B     		ldr	r3, .L14
 131 0004 9A42     		cmp	r2, r3
 132 0006 00D0     		beq	.L13
 133 0008 7047     		bx	lr
 134              	.L13:
  36:Src/bsp_usart.c **** 	GPIO_InitTypeDef GPIO_Initure;
 135              		.loc 1 36 0
 136 000a 10B5     		push	{r4, lr}
ARM GAS  /tmp/ccmSLvIb.s 			page 4


 137              	.LCFI2:
 138              		.cfi_def_cfa_offset 8
 139              		.cfi_offset 4, -8
 140              		.cfi_offset 14, -4
 141 000c 88B0     		sub	sp, sp, #32
 142              	.LCFI3:
 143              		.cfi_def_cfa_offset 40
 144              	.LBB2:
  40:Src/bsp_usart.c **** 	{
  41:Src/bsp_usart.c **** 		__HAL_RCC_GPIOA_CLK_ENABLE();			
 145              		.loc 1 41 0
 146 000e 0021     		movs	r1, #0
 147 0010 0191     		str	r1, [sp, #4]
 148 0012 03F5FA33 		add	r3, r3, #128000
 149 0016 1A6B     		ldr	r2, [r3, #48]
 150 0018 42F00102 		orr	r2, r2, #1
 151 001c 1A63     		str	r2, [r3, #48]
 152 001e 1A6B     		ldr	r2, [r3, #48]
 153 0020 02F00102 		and	r2, r2, #1
 154 0024 0192     		str	r2, [sp, #4]
 155 0026 019A     		ldr	r2, [sp, #4]
 156              	.LBE2:
 157              	.LBB3:
  42:Src/bsp_usart.c **** 		__HAL_RCC_USART2_CLK_ENABLE();			
 158              		.loc 1 42 0
 159 0028 0291     		str	r1, [sp, #8]
 160 002a 1A6C     		ldr	r2, [r3, #64]
 161 002c 42F40032 		orr	r2, r2, #131072
 162 0030 1A64     		str	r2, [r3, #64]
 163 0032 1B6C     		ldr	r3, [r3, #64]
 164 0034 03F40033 		and	r3, r3, #131072
 165 0038 0293     		str	r3, [sp, #8]
 166 003a 029B     		ldr	r3, [sp, #8]
 167              	.LBE3:
  43:Src/bsp_usart.c **** 	
  44:Src/bsp_usart.c **** 		GPIO_Initure.Pin=GPIO_PIN_2;			
 168              		.loc 1 44 0
 169 003c 0423     		movs	r3, #4
 170 003e 0393     		str	r3, [sp, #12]
  45:Src/bsp_usart.c **** 		GPIO_Initure.Mode=GPIO_MODE_AF_PP;		
 171              		.loc 1 45 0
 172 0040 0223     		movs	r3, #2
 173 0042 0493     		str	r3, [sp, #16]
  46:Src/bsp_usart.c **** 		GPIO_Initure.Pull=GPIO_PULLUP;			
 174              		.loc 1 46 0
 175 0044 0122     		movs	r2, #1
 176 0046 0592     		str	r2, [sp, #20]
  47:Src/bsp_usart.c **** 		GPIO_Initure.Speed=GPIO_SPEED_FAST;		
 177              		.loc 1 47 0
 178 0048 0693     		str	r3, [sp, #24]
  48:Src/bsp_usart.c **** 		GPIO_Initure.Alternate=GPIO_AF7_USART2;	
 179              		.loc 1 48 0
 180 004a 0723     		movs	r3, #7
 181 004c 0793     		str	r3, [sp, #28]
  49:Src/bsp_usart.c **** 		HAL_GPIO_Init(GPIOA,&GPIO_Initure);	   	
 182              		.loc 1 49 0
 183 004e 0B4C     		ldr	r4, .L14+4
ARM GAS  /tmp/ccmSLvIb.s 			page 5


 184 0050 03A9     		add	r1, sp, #12
 185 0052 2046     		mov	r0, r4
 186              	.LVL5:
 187 0054 FFF7FEFF 		bl	HAL_GPIO_Init
 188              	.LVL6:
  50:Src/bsp_usart.c **** 
  51:Src/bsp_usart.c **** 		GPIO_Initure.Pin=GPIO_PIN_3;			
 189              		.loc 1 51 0
 190 0058 0823     		movs	r3, #8
 191 005a 0393     		str	r3, [sp, #12]
  52:Src/bsp_usart.c **** 		HAL_GPIO_Init(GPIOA,&GPIO_Initure);	   	
 192              		.loc 1 52 0
 193 005c 03A9     		add	r1, sp, #12
 194 005e 2046     		mov	r0, r4
 195 0060 FFF7FEFF 		bl	HAL_GPIO_Init
 196              	.LVL7:
  53:Src/bsp_usart.c **** 		
  54:Src/bsp_usart.c **** 		HAL_NVIC_EnableIRQ(USART2_IRQn);		
 197              		.loc 1 54 0
 198 0064 2620     		movs	r0, #38
 199 0066 FFF7FEFF 		bl	HAL_NVIC_EnableIRQ
 200              	.LVL8:
  55:Src/bsp_usart.c **** 		HAL_NVIC_SetPriority(USART2_IRQn,3,3);	
 201              		.loc 1 55 0
 202 006a 0322     		movs	r2, #3
 203 006c 1146     		mov	r1, r2
 204 006e 2620     		movs	r0, #38
 205 0070 FFF7FEFF 		bl	HAL_NVIC_SetPriority
 206              	.LVL9:
  56:Src/bsp_usart.c **** 	}
  57:Src/bsp_usart.c **** 
  58:Src/bsp_usart.c **** }
 207              		.loc 1 58 0
 208 0074 08B0     		add	sp, sp, #32
 209              	.LCFI4:
 210              		.cfi_def_cfa_offset 8
 211              		@ sp needed
 212 0076 10BD     		pop	{r4, pc}
 213              	.L15:
 214              		.align	2
 215              	.L14:
 216 0078 00440040 		.word	1073759232
 217 007c 00000240 		.word	1073872896
 218              		.cfi_endproc
 219              	.LFE126:
 221              		.section	.text.HAL_UART_RxCpltCallback,"ax",%progbits
 222              		.align	1
 223              		.global	HAL_UART_RxCpltCallback
 224              		.syntax unified
 225              		.thumb
 226              		.thumb_func
 227              		.fpu fpv4-sp-d16
 229              	HAL_UART_RxCpltCallback:
 230              	.LFB127:
  59:Src/bsp_usart.c **** 
  60:Src/bsp_usart.c **** void HAL_UART_RxCpltCallback(UART_HandleTypeDef *huart)
  61:Src/bsp_usart.c **** {
ARM GAS  /tmp/ccmSLvIb.s 			page 6


 231              		.loc 1 61 0
 232              		.cfi_startproc
 233              		@ args = 0, pretend = 0, frame = 0
 234              		@ frame_needed = 0, uses_anonymous_args = 0
 235              	.LVL10:
  62:Src/bsp_usart.c **** 	if(huart->Instance==USART2)
 236              		.loc 1 62 0
 237 0000 0268     		ldr	r2, [r0]
 238 0002 0C4B     		ldr	r3, .L23
 239 0004 9A42     		cmp	r2, r3
 240 0006 00D0     		beq	.L22
 241              	.L19:
 242 0008 7047     		bx	lr
 243              	.L22:
  63:Src/bsp_usart.c **** 	{
  64:Src/bsp_usart.c **** 		    if(pcUsart2RX.rflag == 0)
 244              		.loc 1 64 0
 245 000a 0B4B     		ldr	r3, .L23+4
 246 000c 93F8D030 		ldrb	r3, [r3, #208]	@ zero_extendqisi2
 247 0010 002B     		cmp	r3, #0
 248 0012 F9D1     		bne	.L19
  61:Src/bsp_usart.c **** 	if(huart->Instance==USART2)
 249              		.loc 1 61 0
 250 0014 10B5     		push	{r4, lr}
 251              	.LCFI5:
 252              		.cfi_def_cfa_offset 8
 253              		.cfi_offset 4, -8
 254              		.cfi_offset 14, -4
  65:Src/bsp_usart.c **** 				{
  66:Src/bsp_usart.c **** 					pcUsart2RX.pcRxbuf[pcUsart2RX.rofset++] = aRxbuf[0];
 255              		.loc 1 66 0
 256 0016 084C     		ldr	r4, .L23+4
 257 0018 94F8C830 		ldrb	r3, [r4, #200]	@ zero_extendqisi2
 258 001c 5A1C     		adds	r2, r3, #1
 259 001e 84F8C820 		strb	r2, [r4, #200]
 260 0022 064A     		ldr	r2, .L23+8
 261 0024 1278     		ldrb	r2, [r2]	@ zero_extendqisi2
 262 0026 E254     		strb	r2, [r4, r3]
  67:Src/bsp_usart.c **** 					pcUsart2RX.lastTick = HAL_GetTick();
 263              		.loc 1 67 0
 264 0028 FFF7FEFF 		bl	HAL_GetTick
 265              	.LVL11:
 266 002c C4F8CC00 		str	r0, [r4, #204]
 267 0030 10BD     		pop	{r4, pc}
 268              	.L24:
 269 0032 00BF     		.align	2
 270              	.L23:
 271 0034 00440040 		.word	1073759232
 272 0038 00000000 		.word	.LANCHOR1
 273 003c 00000000 		.word	.LANCHOR0
 274              		.cfi_endproc
 275              	.LFE127:
 277              		.section	.text.USART2_IRQHandler,"ax",%progbits
 278              		.align	1
 279              		.global	USART2_IRQHandler
 280              		.syntax unified
 281              		.thumb
ARM GAS  /tmp/ccmSLvIb.s 			page 7


 282              		.thumb_func
 283              		.fpu fpv4-sp-d16
 285              	USART2_IRQHandler:
 286              	.LFB128:
  68:Src/bsp_usart.c **** 				}
  69:Src/bsp_usart.c **** 	}
  70:Src/bsp_usart.c **** }
  71:Src/bsp_usart.c ****  
  72:Src/bsp_usart.c **** 
  73:Src/bsp_usart.c **** void USART2_IRQHandler(void)                	
  74:Src/bsp_usart.c **** {
 287              		.loc 1 74 0
 288              		.cfi_startproc
 289              		@ args = 0, pretend = 0, frame = 0
 290              		@ frame_needed = 0, uses_anonymous_args = 0
 291 0000 10B5     		push	{r4, lr}
 292              	.LCFI6:
 293              		.cfi_def_cfa_offset 8
 294              		.cfi_offset 4, -8
 295              		.cfi_offset 14, -4
 296              	.LVL12:
  75:Src/bsp_usart.c **** 		uint32_t timeout=0;
  76:Src/bsp_usart.c **** 		uint32_t maxDelay=0x1FFFF;	
  77:Src/bsp_usart.c **** 	
  78:Src/bsp_usart.c **** 		HAL_UART_IRQHandler(&uart2_hand_typedef);	
 297              		.loc 1 78 0
 298 0002 0E48     		ldr	r0, .L35
 299 0004 FFF7FEFF 		bl	HAL_UART_IRQHandler
 300              	.LVL13:
  79:Src/bsp_usart.c **** 		timeout=0;
 301              		.loc 1 79 0
 302 0008 0024     		movs	r4, #0
 303              	.LVL14:
 304              	.L26:
  80:Src/bsp_usart.c **** 		while (HAL_UART_GetState(&uart2_hand_typedef) != HAL_UART_STATE_READY)
 305              		.loc 1 80 0
 306 000a 0C48     		ldr	r0, .L35
 307 000c FFF7FEFF 		bl	HAL_UART_GetState
 308              	.LVL15:
 309 0010 2028     		cmp	r0, #32
 310 0012 05D0     		beq	.L33
  81:Src/bsp_usart.c **** 		{
  82:Src/bsp_usart.c **** 				timeout++;
 311              		.loc 1 82 0
 312 0014 0134     		adds	r4, r4, #1
 313              	.LVL16:
  83:Src/bsp_usart.c **** 				if(timeout>maxDelay) break;		
 314              		.loc 1 83 0
 315 0016 B4F5003F 		cmp	r4, #131072
 316 001a F6D3     		bcc	.L26
 317 001c 0024     		movs	r4, #0
 318              	.LVL17:
 319 001e 00E0     		b	.L27
 320              	.LVL18:
 321              	.L33:
 322 0020 0024     		movs	r4, #0
 323              	.LVL19:
ARM GAS  /tmp/ccmSLvIb.s 			page 8


 324              	.L27:
  84:Src/bsp_usart.c **** 		}
  85:Src/bsp_usart.c **** 		timeout=0;
  86:Src/bsp_usart.c **** 		while(HAL_UART_Receive_IT(&uart2_hand_typedef, (uint8_t *)aRxbuf, 1) != HAL_OK)
 325              		.loc 1 86 0
 326 0022 0122     		movs	r2, #1
 327 0024 0649     		ldr	r1, .L35+4
 328 0026 0548     		ldr	r0, .L35
 329 0028 FFF7FEFF 		bl	HAL_UART_Receive_IT
 330              	.LVL20:
 331 002c 20B1     		cbz	r0, .L34
  87:Src/bsp_usart.c **** 		{
  88:Src/bsp_usart.c **** 				timeout++; 
 332              		.loc 1 88 0
 333 002e 0134     		adds	r4, r4, #1
 334              	.LVL21:
  89:Src/bsp_usart.c **** 				if(timeout>maxDelay) break;	
 335              		.loc 1 89 0
 336 0030 B4F5003F 		cmp	r4, #131072
 337 0034 F5D3     		bcc	.L27
 338 0036 10BD     		pop	{r4, pc}
 339              	.LVL22:
 340              	.L34:
 341 0038 10BD     		pop	{r4, pc}
 342              	.LVL23:
 343              	.L36:
 344 003a 00BF     		.align	2
 345              	.L35:
 346 003c 00000000 		.word	uart2_hand_typedef
 347 0040 00000000 		.word	.LANCHOR0
 348              		.cfi_endproc
 349              	.LFE128:
 351              		.section	.text.HAL_SYSTICK_Callback,"ax",%progbits
 352              		.align	1
 353              		.global	HAL_SYSTICK_Callback
 354              		.syntax unified
 355              		.thumb
 356              		.thumb_func
 357              		.fpu fpv4-sp-d16
 359              	HAL_SYSTICK_Callback:
 360              	.LFB129:
  90:Src/bsp_usart.c **** 		}
  91:Src/bsp_usart.c **** }
  92:Src/bsp_usart.c **** 
  93:Src/bsp_usart.c **** void HAL_SYSTICK_Callback(void)
  94:Src/bsp_usart.c **** {
 361              		.loc 1 94 0
 362              		.cfi_startproc
 363              		@ args = 0, pretend = 0, frame = 0
 364              		@ frame_needed = 0, uses_anonymous_args = 0
 365 0000 08B5     		push	{r3, lr}
 366              	.LCFI7:
 367              		.cfi_def_cfa_offset 8
 368              		.cfi_offset 3, -8
 369              		.cfi_offset 14, -4
  95:Src/bsp_usart.c **** 		if((HAL_GetTick() - pcUsart2RX.lastTick) > 30  && pcUsart2RX.rflag == 0 && pcUsart2RX.lastTick!=0
 370              		.loc 1 95 0
ARM GAS  /tmp/ccmSLvIb.s 			page 9


 371 0002 FFF7FEFF 		bl	HAL_GetTick
 372              	.LVL24:
 373 0006 084B     		ldr	r3, .L40
 374 0008 D3F8CC30 		ldr	r3, [r3, #204]
 375 000c C01A     		subs	r0, r0, r3
 376 000e 1E28     		cmp	r0, #30
 377 0010 08D9     		bls	.L37
 378              		.loc 1 95 0 is_stmt 0 discriminator 1
 379 0012 054A     		ldr	r2, .L40
 380 0014 92F8D020 		ldrb	r2, [r2, #208]	@ zero_extendqisi2
 381 0018 22B9     		cbnz	r2, .L37
 382              		.loc 1 95 0 discriminator 2
 383 001a 1BB1     		cbz	r3, .L37
  96:Src/bsp_usart.c **** 		{
  97:Src/bsp_usart.c **** 				pcUsart2RX.rflag = 1;
 384              		.loc 1 97 0 is_stmt 1
 385 001c 0122     		movs	r2, #1
 386 001e 024B     		ldr	r3, .L40
 387 0020 83F8D020 		strb	r2, [r3, #208]
 388              	.L37:
 389 0024 08BD     		pop	{r3, pc}
 390              	.L41:
 391 0026 00BF     		.align	2
 392              	.L40:
 393 0028 00000000 		.word	.LANCHOR1
 394              		.cfi_endproc
 395              	.LFE129:
 397              		.section	.text._write,"ax",%progbits
 398              		.align	1
 399              		.global	_write
 400              		.syntax unified
 401              		.thumb
 402              		.thumb_func
 403              		.fpu fpv4-sp-d16
 405              	_write:
 406              	.LFB130:
  98:Src/bsp_usart.c **** 		}
  99:Src/bsp_usart.c **** }
 100:Src/bsp_usart.c **** 
 101:Src/bsp_usart.c **** /*************************************************
 102:Src/bsp_usart.c **** Functions that printf must implement
 103:Src/bsp_usart.c **** arm-none-eabi-gcc    _write
 104:Src/bsp_usart.c **** mdk                  fputc
 105:Src/bsp_usart.c **** **************************************************/
 106:Src/bsp_usart.c **** #define ARM_NONE_EABI
 107:Src/bsp_usart.c **** #ifdef ARM_NONE_EABI
 108:Src/bsp_usart.c **** 	int _write (int fd, char *pBuffer, int size)
 109:Src/bsp_usart.c **** 	{
 407              		.loc 1 109 0
 408              		.cfi_startproc
 409              		@ args = 0, pretend = 0, frame = 0
 410              		@ frame_needed = 0, uses_anonymous_args = 0
 411              		@ link register save eliminated.
 412              	.LVL25:
 413 0000 30B4     		push	{r4, r5}
 414              	.LCFI8:
 415              		.cfi_def_cfa_offset 8
ARM GAS  /tmp/ccmSLvIb.s 			page 10


 416              		.cfi_offset 4, -8
 417              		.cfi_offset 5, -4
 418              	.LVL26:
 419              	.LBB4:
 110:Src/bsp_usart.c **** 		for (int i = 0; i < size; i++)
 420              		.loc 1 110 0
 421 0002 0024     		movs	r4, #0
 422 0004 08E0     		b	.L43
 423              	.LVL27:
 424              	.L44:
 111:Src/bsp_usart.c **** 		{
 112:Src/bsp_usart.c **** 			while((USART2->SR&0X40)==0);   
 425              		.loc 1 112 0 discriminator 1
 426 0006 074B     		ldr	r3, .L46
 427 0008 1B68     		ldr	r3, [r3]
 428 000a 13F0400F 		tst	r3, #64
 429 000e FAD0     		beq	.L44
 113:Src/bsp_usart.c **** 			USART2->DR = pBuffer[i];
 430              		.loc 1 113 0 discriminator 2
 431 0010 0D5D     		ldrb	r5, [r1, r4]	@ zero_extendqisi2
 432 0012 044B     		ldr	r3, .L46
 433 0014 5D60     		str	r5, [r3, #4]
 110:Src/bsp_usart.c **** 		for (int i = 0; i < size; i++)
 434              		.loc 1 110 0 discriminator 2
 435 0016 0134     		adds	r4, r4, #1
 436              	.LVL28:
 437              	.L43:
 110:Src/bsp_usart.c **** 		for (int i = 0; i < size; i++)
 438              		.loc 1 110 0 is_stmt 0 discriminator 1
 439 0018 9442     		cmp	r4, r2
 440 001a F4DB     		blt	.L44
 441              	.LBE4:
 114:Src/bsp_usart.c **** 		}
 115:Src/bsp_usart.c **** 		return size;
 116:Src/bsp_usart.c **** 	}
 442              		.loc 1 116 0 is_stmt 1
 443 001c 1046     		mov	r0, r2
 444              	.LVL29:
 445 001e 30BC     		pop	{r4, r5}
 446              	.LCFI9:
 447              		.cfi_restore 5
 448              		.cfi_restore 4
 449              		.cfi_def_cfa_offset 0
 450              	.LVL30:
 451 0020 7047     		bx	lr
 452              	.L47:
 453 0022 00BF     		.align	2
 454              	.L46:
 455 0024 00440040 		.word	1073759232
 456              		.cfi_endproc
 457              	.LFE130:
 459              		.global	pcUsart2RX
 460              		.global	aRxbuf
 461              		.comm	uart2_hand_typedef,64,4
 462              		.section	.bss.aRxbuf,"aw",%nobits
 463              		.align	2
 464              		.set	.LANCHOR0,. + 0
ARM GAS  /tmp/ccmSLvIb.s 			page 11


 467              	aRxbuf:
 468 0000 00       		.space	1
 469              		.section	.bss.pcUsart2RX,"aw",%nobits
 470              		.align	2
 471              		.set	.LANCHOR1,. + 0
 474              	pcUsart2RX:
 475 0000 00000000 		.space	212
 475      00000000 
 475      00000000 
 475      00000000 
 475      00000000 
 476              		.text
 477              	.Letext0:
 478              		.file 2 "/usr/include/newlib/machine/_default_types.h"
 479              		.file 3 "/usr/include/newlib/sys/_stdint.h"
 480              		.file 4 "Drivers/CMSIS/Include/core_cm4.h"
 481              		.file 5 "Drivers/CMSIS/Device/ST/STM32F4xx/Include/system_stm32f4xx.h"
 482              		.file 6 "Drivers/CMSIS/Device/ST/STM32F4xx/Include/stm32f429xx.h"
 483              		.file 7 "/usr/include/newlib/sys/lock.h"
 484              		.file 8 "/usr/include/newlib/sys/_types.h"
 485              		.file 9 "/usr/lib/gcc/arm-none-eabi/6.3.1/include/stddef.h"
 486              		.file 10 "/usr/include/newlib/sys/reent.h"
 487              		.file 11 "Drivers/STM32F4xx_HAL_Driver/Inc/stm32f4xx_hal_def.h"
 488              		.file 12 "Drivers/STM32F4xx_HAL_Driver/Inc/stm32f4xx_hal_gpio.h"
 489              		.file 13 "Drivers/STM32F4xx_HAL_Driver/Inc/stm32f4xx_hal_dma.h"
 490              		.file 14 "Drivers/STM32F4xx_HAL_Driver/Inc/stm32f4xx_hal_uart.h"
 491              		.file 15 "Inc/bsp_usart.h"
 492              		.file 16 "Drivers/STM32F4xx_HAL_Driver/Inc/stm32f4xx_hal.h"
 493              		.file 17 "Drivers/STM32F4xx_HAL_Driver/Inc/stm32f4xx_hal_cortex.h"
ARM GAS  /tmp/ccmSLvIb.s 			page 12

