ARM GAS  /tmp/cco7znPM.s 			page 1


   1              		.cpu cortex-m4
   2              		.eabi_attribute 27, 1
   3              		.eabi_attribute 28, 1
   4              		.eabi_attribute 20, 1
   5              		.eabi_attribute 21, 1
   6              		.eabi_attribute 23, 3
   7              		.eabi_attribute 24, 1
   8              		.eabi_attribute 25, 1
   9              		.eabi_attribute 26, 1
  10              		.eabi_attribute 30, 1
  11              		.eabi_attribute 34, 1
  12              		.eabi_attribute 18, 4
  13              		.file	"bsp_tftlcd.c"
  14              		.text
  15              	.Ltext0:
  16              		.cfi_sections	.debug_frame
  17              		.section	.text.LCD_WR_REG,"ax",%progbits
  18              		.align	1
  19              		.global	LCD_WR_REG
  20              		.syntax unified
  21              		.thumb
  22              		.thumb_func
  23              		.fpu fpv4-sp-d16
  25              	LCD_WR_REG:
  26              	.LFB124:
  27              		.file 1 "Src/bsp_tftlcd.c"
   1:Src/bsp_tftlcd.c **** #include "bsp_tftlcd.h"
   2:Src/bsp_tftlcd.c **** #include "font.h"
   3:Src/bsp_tftlcd.c **** 
   4:Src/bsp_tftlcd.c **** SRAM_HandleTypeDef SRAM_Handler;    //SRAMÂè•ÊüÑ(Áî®‰∫éÊéßÂà∂LCD)
   5:Src/bsp_tftlcd.c **** //ÁÆ°ÁêÜLCDÈáçË¶ÅÂèÇÊï∞
   6:Src/bsp_tftlcd.c **** //ÈªòËÆ§‰∏∫Á´ñÂ±è
   7:Src/bsp_tftlcd.c **** _lcd_dev lcddev;
   8:Src/bsp_tftlcd.c **** //LCDÁöÑÁîªÁ¨îÈ¢úËâ≤ÂíåËÉåÊôØËâ≤	   
   9:Src/bsp_tftlcd.c **** uint32_t POINT_COLOR=0xFF000000;		//ÁîªÁ¨îÈ¢úËâ≤
  10:Src/bsp_tftlcd.c **** uint32_t BACK_COLOR =0xFFFFFFFF;  	//ËÉåÊôØËâ≤ 
  11:Src/bsp_tftlcd.c **** 
  12:Src/bsp_tftlcd.c **** //ÂÜôÂØÑÂ≠òÂô®ÂáΩÊï∞
  13:Src/bsp_tftlcd.c **** //regval:ÂØÑÂ≠òÂô®ÂÄº
  14:Src/bsp_tftlcd.c **** void LCD_WR_REG(volatile uint16_t regval)
  15:Src/bsp_tftlcd.c **** {   	 
  28              		.loc 1 15 0
  29              		.cfi_startproc
  30              		@ args = 0, pretend = 0, frame = 8
  31              		@ frame_needed = 0, uses_anonymous_args = 0
  32              		@ link register save eliminated.
  33              	.LVL0:
  34 0000 82B0     		sub	sp, sp, #8
  35              	.LCFI0:
  36              		.cfi_def_cfa_offset 8
  37 0002 ADF80600 		strh	r0, [sp, #6]	@ movhi
  16:Src/bsp_tftlcd.c **** 	*(volatile uint16_t*)(0x60000000) =  regval;
  38              		.loc 1 16 0
  39 0006 BDF80630 		ldrh	r3, [sp, #6]
  40 000a 9BB2     		uxth	r3, r3
  41 000c 4FF0C042 		mov	r2, #1610612736
  42 0010 1380     		strh	r3, [r2]	@ movhi
ARM GAS  /tmp/cco7znPM.s 			page 2


  17:Src/bsp_tftlcd.c **** }
  43              		.loc 1 17 0
  44 0012 02B0     		add	sp, sp, #8
  45              	.LCFI1:
  46              		.cfi_def_cfa_offset 0
  47              		@ sp needed
  48 0014 7047     		bx	lr
  49              		.cfi_endproc
  50              	.LFE124:
  52              		.section	.text.LCD_WR_DATA,"ax",%progbits
  53              		.align	1
  54              		.global	LCD_WR_DATA
  55              		.syntax unified
  56              		.thumb
  57              		.thumb_func
  58              		.fpu fpv4-sp-d16
  60              	LCD_WR_DATA:
  61              	.LFB125:
  18:Src/bsp_tftlcd.c **** //ÂÜôLCDÊï∞ÊçÆ
  19:Src/bsp_tftlcd.c **** //data:Ë¶ÅÂÜôÂÖ•ÁöÑÂÄº
  20:Src/bsp_tftlcd.c **** void LCD_WR_DATA(volatile uint16_t data)
  21:Src/bsp_tftlcd.c **** {	  
  62              		.loc 1 21 0
  63              		.cfi_startproc
  64              		@ args = 0, pretend = 0, frame = 8
  65              		@ frame_needed = 0, uses_anonymous_args = 0
  66              		@ link register save eliminated.
  67              	.LVL1:
  68 0000 82B0     		sub	sp, sp, #8
  69              	.LCFI2:
  70              		.cfi_def_cfa_offset 8
  71 0002 ADF80600 		strh	r0, [sp, #6]	@ movhi
  22:Src/bsp_tftlcd.c **** 	*(volatile uint16_t*)(0x60080000) =  data;
  72              		.loc 1 22 0
  73 0006 BDF80630 		ldrh	r3, [sp, #6]
  74 000a 9BB2     		uxth	r3, r3
  75 000c 014A     		ldr	r2, .L5
  76 000e 1380     		strh	r3, [r2]	@ movhi
  23:Src/bsp_tftlcd.c **** }
  77              		.loc 1 23 0
  78 0010 02B0     		add	sp, sp, #8
  79              	.LCFI3:
  80              		.cfi_def_cfa_offset 0
  81              		@ sp needed
  82 0012 7047     		bx	lr
  83              	.L6:
  84              		.align	2
  85              	.L5:
  86 0014 00000860 		.word	1611137024
  87              		.cfi_endproc
  88              	.LFE125:
  90              		.section	.text.LCD_RD_DATA,"ax",%progbits
  91              		.align	1
  92              		.global	LCD_RD_DATA
  93              		.syntax unified
  94              		.thumb
  95              		.thumb_func
ARM GAS  /tmp/cco7znPM.s 			page 3


  96              		.fpu fpv4-sp-d16
  98              	LCD_RD_DATA:
  99              	.LFB126:
  24:Src/bsp_tftlcd.c **** //ËØªLCDÊï∞ÊçÆ
  25:Src/bsp_tftlcd.c **** //ËøîÂõûÂÄº:ËØªÂà∞ÁöÑÂÄº
  26:Src/bsp_tftlcd.c **** uint16_t LCD_RD_DATA(void)
  27:Src/bsp_tftlcd.c **** {
 100              		.loc 1 27 0
 101              		.cfi_startproc
 102              		@ args = 0, pretend = 0, frame = 0
 103              		@ frame_needed = 0, uses_anonymous_args = 0
 104              		@ link register save eliminated.
  28:Src/bsp_tftlcd.c **** 	return *(volatile uint16_t*)(0x60080000);
 105              		.loc 1 28 0
 106 0000 014B     		ldr	r3, .L8
 107 0002 1888     		ldrh	r0, [r3]
  29:Src/bsp_tftlcd.c **** }					   
 108              		.loc 1 29 0
 109 0004 80B2     		uxth	r0, r0
 110 0006 7047     		bx	lr
 111              	.L9:
 112              		.align	2
 113              	.L8:
 114 0008 00000860 		.word	1611137024
 115              		.cfi_endproc
 116              	.LFE126:
 118              		.section	.text.LCD_WriteReg,"ax",%progbits
 119              		.align	1
 120              		.global	LCD_WriteReg
 121              		.syntax unified
 122              		.thumb
 123              		.thumb_func
 124              		.fpu fpv4-sp-d16
 126              	LCD_WriteReg:
 127              	.LFB127:
  30:Src/bsp_tftlcd.c **** //ÂÜôÂØÑÂ≠òÂô®
  31:Src/bsp_tftlcd.c **** //LCD_Reg:ÂØÑÂ≠òÂô®Âú∞ÂùÄ
  32:Src/bsp_tftlcd.c **** //LCD_RegValue:Ë¶ÅÂÜôÂÖ•ÁöÑÊï∞ÊçÆ
  33:Src/bsp_tftlcd.c **** void LCD_WriteReg(uint16_t LCD_Reg,uint16_t LCD_RegValue)
  34:Src/bsp_tftlcd.c **** {	
 128              		.loc 1 34 0
 129              		.cfi_startproc
 130              		@ args = 0, pretend = 0, frame = 0
 131              		@ frame_needed = 0, uses_anonymous_args = 0
 132              		@ link register save eliminated.
 133              	.LVL2:
  35:Src/bsp_tftlcd.c **** 	*(volatile uint16_t*)(0x60000000)  = LCD_Reg;		//ÂÜôÂÖ•Ë¶ÅÂÜôÁöÑÂØÑÂ≠òÂô®Â∫èÂè∑	 
 134              		.loc 1 35 0
 135 0000 4FF0C043 		mov	r3, #1610612736
 136 0004 1880     		strh	r0, [r3]	@ movhi
  36:Src/bsp_tftlcd.c **** 	*(volatile uint16_t*)(0x60080000) = LCD_RegValue;//ÂÜôÂÖ•Êï∞ÊçÆ	    		 
 137              		.loc 1 36 0
 138 0006 03F50023 		add	r3, r3, #524288
 139 000a 1980     		strh	r1, [r3]	@ movhi
 140 000c 7047     		bx	lr
 141              		.cfi_endproc
 142              	.LFE127:
ARM GAS  /tmp/cco7znPM.s 			page 4


 144              		.section	.text.LCD_WriteRAM_Prepare,"ax",%progbits
 145              		.align	1
 146              		.global	LCD_WriteRAM_Prepare
 147              		.syntax unified
 148              		.thumb
 149              		.thumb_func
 150              		.fpu fpv4-sp-d16
 152              	LCD_WriteRAM_Prepare:
 153              	.LFB128:
  37:Src/bsp_tftlcd.c **** }
  38:Src/bsp_tftlcd.c **** //ÂºÄÂßãÂÜôGRAM
  39:Src/bsp_tftlcd.c **** void LCD_WriteRAM_Prepare(void)
  40:Src/bsp_tftlcd.c **** {
 154              		.loc 1 40 0
 155              		.cfi_startproc
 156              		@ args = 0, pretend = 0, frame = 0
 157              		@ frame_needed = 0, uses_anonymous_args = 0
 158              		@ link register save eliminated.
  41:Src/bsp_tftlcd.c ****  	*(volatile uint16_t*)(0x60000000) = lcddev.wramcmd;	  
 159              		.loc 1 41 0
 160 0000 024B     		ldr	r3, .L12
 161 0002 1A89     		ldrh	r2, [r3, #8]
 162 0004 4FF0C043 		mov	r3, #1610612736
 163 0008 1A80     		strh	r2, [r3]	@ movhi
 164 000a 7047     		bx	lr
 165              	.L13:
 166              		.align	2
 167              	.L12:
 168 000c 00000000 		.word	lcddev
 169              		.cfi_endproc
 170              	.LFE128:
 172              		.section	.text.LCD_Scan_Dir,"ax",%progbits
 173              		.align	1
 174              		.global	LCD_Scan_Dir
 175              		.syntax unified
 176              		.thumb
 177              		.thumb_func
 178              		.fpu fpv4-sp-d16
 180              	LCD_Scan_Dir:
 181              	.LFB129:
  42:Src/bsp_tftlcd.c **** }	 
  43:Src/bsp_tftlcd.c **** //ËÆæÁΩÆLCDÁöÑËá™Âä®Êâ´ÊèèÊñπÂêë(ÂØπRGBÂ±èÊó†Êïà)
  44:Src/bsp_tftlcd.c **** //Ê≥®ÊÑè:ÂÖ∂‰ªñÂáΩÊï∞ÂèØËÉΩ‰ºöÂèóÂà∞Ê≠§ÂáΩÊï∞ËÆæÁΩÆÁöÑÂΩ±Âìç(Â∞§ÂÖ∂ÊòØ9341),
  45:Src/bsp_tftlcd.c **** //ÊâÄ‰ª•,‰∏ÄËà¨ËÆæÁΩÆ‰∏∫L2R_U2DÂç≥ÂèØ,Â¶ÇÊûúËÆæÁΩÆ‰∏∫ÂÖ∂‰ªñÊâ´ÊèèÊñπÂºè,ÂèØËÉΩÂØºËá¥ÊòæÁ§∫‰∏çÊ≠£Â∏∏
  46:Src/bsp_tftlcd.c **** //dir:0~7,‰ª£Ë°®8‰∏™ÊñπÂêë(ÂÖ∑‰ΩìÂÆö‰πâËßÅlcd.h)
  47:Src/bsp_tftlcd.c **** //9341/5310/5510/1963Á≠âICÂ∑≤ÁªèÂÆûÈôÖÊµãËØï	   	   
  48:Src/bsp_tftlcd.c **** void LCD_Scan_Dir(uint8_t dir)
  49:Src/bsp_tftlcd.c **** {
 182              		.loc 1 49 0
 183              		.cfi_startproc
 184              		@ args = 0, pretend = 0, frame = 0
 185              		@ frame_needed = 0, uses_anonymous_args = 0
 186              	.LVL3:
  50:Src/bsp_tftlcd.c **** 	uint16_t regval=0;
  51:Src/bsp_tftlcd.c **** 	uint16_t dirreg=0;
  52:Src/bsp_tftlcd.c **** 	uint16_t temp;  
  53:Src/bsp_tftlcd.c **** 	if((lcddev.dir==1&&lcddev.id!=0X1963)||(lcddev.dir==0&&lcddev.id==0X1963))//Ê®™Â±èÊó∂ÔºåÂØπ1963‰∏ç
ARM GAS  /tmp/cco7znPM.s 			page 5


 187              		.loc 1 53 0
 188 0000 7E4B     		ldr	r3, .L52
 189 0002 9B79     		ldrb	r3, [r3, #6]	@ zero_extendqisi2
 190 0004 012B     		cmp	r3, #1
 191 0006 19D0     		beq	.L49
 192              	.L15:
 193              		.loc 1 53 0 is_stmt 0 discriminator 3
 194 0008 2BB9     		cbnz	r3, .L17
 195              		.loc 1 53 0 discriminator 4
 196 000a 7C4B     		ldr	r3, .L52
 197 000c 9A88     		ldrh	r2, [r3, #4]
 198 000e 41F66313 		movw	r3, #6499
 199 0012 9A42     		cmp	r2, r3
 200 0014 18D0     		beq	.L16
 201              	.LVL4:
 202              	.L17:
  54:Src/bsp_tftlcd.c **** 	{			   
  55:Src/bsp_tftlcd.c **** 		switch(dir)//ÊñπÂêëËΩ¨Êç¢
  56:Src/bsp_tftlcd.c **** 		{
  57:Src/bsp_tftlcd.c **** 			case 0:dir=6;break;
  58:Src/bsp_tftlcd.c **** 			case 1:dir=7;break;
  59:Src/bsp_tftlcd.c **** 			case 2:dir=4;break;
  60:Src/bsp_tftlcd.c **** 			case 3:dir=5;break;
  61:Src/bsp_tftlcd.c **** 			case 4:dir=1;break;
  62:Src/bsp_tftlcd.c **** 			case 5:dir=0;break;
  63:Src/bsp_tftlcd.c **** 			case 6:dir=3;break;
  64:Src/bsp_tftlcd.c **** 			case 7:dir=2;break;	     
  65:Src/bsp_tftlcd.c **** 		}
  66:Src/bsp_tftlcd.c **** 	} 
  67:Src/bsp_tftlcd.c **** 	if(lcddev.id==0x9341||lcddev.id==0X5310||lcddev.id==0X5510||lcddev.id==0X1963)//9341/5310/5510/196
 203              		.loc 1 67 0 is_stmt 1
 204 0016 794B     		ldr	r3, .L52
 205 0018 9B88     		ldrh	r3, [r3, #4]
 206 001a 49F24132 		movw	r2, #37697
 207 001e 9342     		cmp	r3, r2
 208 0020 2AD0     		beq	.L27
 209              		.loc 1 67 0 is_stmt 0 discriminator 1
 210 0022 45F21032 		movw	r2, #21264
 211 0026 9342     		cmp	r3, r2
 212 0028 26D0     		beq	.L27
 213              		.loc 1 67 0 discriminator 2
 214 002a 45F21052 		movw	r2, #21776
 215 002e 9342     		cmp	r3, r2
 216 0030 22D0     		beq	.L27
 217              		.loc 1 67 0 discriminator 3
 218 0032 41F66312 		movw	r2, #6499
 219 0036 9342     		cmp	r3, r2
 220 0038 1ED0     		beq	.L27
 221 003a 7047     		bx	lr
 222              	.L49:
  53:Src/bsp_tftlcd.c **** 	{			   
 223              		.loc 1 53 0 is_stmt 1 discriminator 1
 224 003c 6F4A     		ldr	r2, .L52
 225 003e 9188     		ldrh	r1, [r2, #4]
 226 0040 41F66312 		movw	r2, #6499
 227 0044 9142     		cmp	r1, r2
 228 0046 DFD0     		beq	.L15
ARM GAS  /tmp/cco7znPM.s 			page 6


 229              	.L16:
  55:Src/bsp_tftlcd.c **** 		{
 230              		.loc 1 55 0
 231 0048 0728     		cmp	r0, #7
 232 004a E4D8     		bhi	.L17
 233 004c DFE800F0 		tbb	[pc, r0]
 234              	.L19:
 235 0050 12       		.byte	(.L43-.L19)/2
 236 0051 04       		.byte	(.L20-.L19)/2
 237 0052 06       		.byte	(.L21-.L19)/2
 238 0053 08       		.byte	(.L22-.L19)/2
 239 0054 0A       		.byte	(.L23-.L19)/2
 240 0055 0C       		.byte	(.L24-.L19)/2
 241 0056 0E       		.byte	(.L25-.L19)/2
 242 0057 10       		.byte	(.L26-.L19)/2
 243              		.p2align 1
 244              	.L20:
 245              	.LVL5:
  58:Src/bsp_tftlcd.c **** 			case 2:dir=4;break;
 246              		.loc 1 58 0
 247 0058 0720     		movs	r0, #7
 248 005a DCE7     		b	.L17
 249              	.LVL6:
 250              	.L21:
  59:Src/bsp_tftlcd.c **** 			case 3:dir=5;break;
 251              		.loc 1 59 0
 252 005c 0420     		movs	r0, #4
 253 005e DAE7     		b	.L17
 254              	.LVL7:
 255              	.L22:
  60:Src/bsp_tftlcd.c **** 			case 4:dir=1;break;
 256              		.loc 1 60 0
 257 0060 0520     		movs	r0, #5
 258 0062 D8E7     		b	.L17
 259              	.LVL8:
 260              	.L23:
  61:Src/bsp_tftlcd.c **** 			case 5:dir=0;break;
 261              		.loc 1 61 0
 262 0064 0120     		movs	r0, #1
 263 0066 D6E7     		b	.L17
 264              	.LVL9:
 265              	.L24:
  62:Src/bsp_tftlcd.c **** 			case 6:dir=3;break;
 266              		.loc 1 62 0
 267 0068 0020     		movs	r0, #0
 268 006a D4E7     		b	.L17
 269              	.LVL10:
 270              	.L25:
  63:Src/bsp_tftlcd.c **** 			case 7:dir=2;break;	     
 271              		.loc 1 63 0
 272 006c 0320     		movs	r0, #3
 273 006e D2E7     		b	.L17
 274              	.LVL11:
 275              	.L26:
  64:Src/bsp_tftlcd.c **** 		}
 276              		.loc 1 64 0
 277 0070 0220     		movs	r0, #2
ARM GAS  /tmp/cco7znPM.s 			page 7


 278 0072 D0E7     		b	.L17
 279              	.LVL12:
 280              	.L43:
  57:Src/bsp_tftlcd.c **** 			case 1:dir=7;break;
 281              		.loc 1 57 0
 282 0074 0620     		movs	r0, #6
 283              	.LVL13:
 284 0076 CEE7     		b	.L17
 285              	.LVL14:
 286              	.L27:
  49:Src/bsp_tftlcd.c **** 	uint16_t regval=0;
 287              		.loc 1 49 0
 288 0078 10B5     		push	{r4, lr}
 289              	.LCFI4:
 290              		.cfi_def_cfa_offset 8
 291              		.cfi_offset 4, -8
 292              		.cfi_offset 14, -4
  68:Src/bsp_tftlcd.c **** 	{
  69:Src/bsp_tftlcd.c **** 		switch(dir)
 293              		.loc 1 69 0
 294 007a 0138     		subs	r0, r0, #1
 295              	.LVL15:
 296 007c 0628     		cmp	r0, #6
 297 007e 05D8     		bhi	.L29
 298 0080 DFE800F0 		tbb	[pc, r0]
 299              	.L31:
 300 0084 12       		.byte	(.L44-.L31)/2
 301 0085 06       		.byte	(.L32-.L31)/2
 302 0086 08       		.byte	(.L33-.L31)/2
 303 0087 0A       		.byte	(.L34-.L31)/2
 304 0088 0C       		.byte	(.L35-.L31)/2
 305 0089 0E       		.byte	(.L36-.L31)/2
 306 008a 10       		.byte	(.L37-.L31)/2
 307 008b 00       		.p2align 1
 308              	.L29:
  50:Src/bsp_tftlcd.c **** 	uint16_t dirreg=0;
 309              		.loc 1 50 0
 310 008c 0024     		movs	r4, #0
 311 008e 0CE0     		b	.L30
 312              	.L32:
 313              	.LVL16:
  70:Src/bsp_tftlcd.c **** 		{
  71:Src/bsp_tftlcd.c **** 			case L2R_U2D://‰ªéÂ∑¶Âà∞Âè≥,‰ªé‰∏äÂà∞‰∏ã
  72:Src/bsp_tftlcd.c **** 				regval|=(0<<7)|(0<<6)|(0<<5); 
  73:Src/bsp_tftlcd.c **** 				break;
  74:Src/bsp_tftlcd.c **** 			case L2R_D2U://‰ªéÂ∑¶Âà∞Âè≥,‰ªé‰∏ãÂà∞‰∏ä
  75:Src/bsp_tftlcd.c **** 				regval|=(1<<7)|(0<<6)|(0<<5); 
  76:Src/bsp_tftlcd.c **** 				break;
  77:Src/bsp_tftlcd.c **** 			case R2L_U2D://‰ªéÂè≥Âà∞Â∑¶,‰ªé‰∏äÂà∞‰∏ã
  78:Src/bsp_tftlcd.c **** 				regval|=(0<<7)|(1<<6)|(0<<5); 
 314              		.loc 1 78 0
 315 0090 4024     		movs	r4, #64
  79:Src/bsp_tftlcd.c **** 				break;
 316              		.loc 1 79 0
 317 0092 0AE0     		b	.L30
 318              	.LVL17:
 319              	.L33:
ARM GAS  /tmp/cco7znPM.s 			page 8


  80:Src/bsp_tftlcd.c **** 			case R2L_D2U://‰ªéÂè≥Âà∞Â∑¶,‰ªé‰∏ãÂà∞‰∏ä
  81:Src/bsp_tftlcd.c **** 				regval|=(1<<7)|(1<<6)|(0<<5); 
 320              		.loc 1 81 0
 321 0094 C024     		movs	r4, #192
  82:Src/bsp_tftlcd.c **** 				break;	 
 322              		.loc 1 82 0
 323 0096 08E0     		b	.L30
 324              	.LVL18:
 325              	.L34:
  83:Src/bsp_tftlcd.c **** 			case U2D_L2R://‰ªé‰∏äÂà∞‰∏ã,‰ªéÂ∑¶Âà∞Âè≥
  84:Src/bsp_tftlcd.c **** 				regval|=(0<<7)|(0<<6)|(1<<5); 
 326              		.loc 1 84 0
 327 0098 2024     		movs	r4, #32
  85:Src/bsp_tftlcd.c **** 				break;
 328              		.loc 1 85 0
 329 009a 06E0     		b	.L30
 330              	.LVL19:
 331              	.L35:
  86:Src/bsp_tftlcd.c **** 			case U2D_R2L://‰ªé‰∏äÂà∞‰∏ã,‰ªéÂè≥Âà∞Â∑¶
  87:Src/bsp_tftlcd.c **** 				regval|=(0<<7)|(1<<6)|(1<<5); 
 332              		.loc 1 87 0
 333 009c 6024     		movs	r4, #96
  88:Src/bsp_tftlcd.c **** 				break;
 334              		.loc 1 88 0
 335 009e 04E0     		b	.L30
 336              	.LVL20:
 337              	.L36:
  89:Src/bsp_tftlcd.c **** 			case D2U_L2R://‰ªé‰∏ãÂà∞‰∏ä,‰ªéÂ∑¶Âà∞Âè≥
  90:Src/bsp_tftlcd.c **** 				regval|=(1<<7)|(0<<6)|(1<<5); 
 338              		.loc 1 90 0
 339 00a0 A024     		movs	r4, #160
  91:Src/bsp_tftlcd.c **** 				break;
 340              		.loc 1 91 0
 341 00a2 02E0     		b	.L30
 342              	.LVL21:
 343              	.L37:
  92:Src/bsp_tftlcd.c **** 			case D2U_R2L://‰ªé‰∏ãÂà∞‰∏ä,‰ªéÂè≥Âà∞Â∑¶
  93:Src/bsp_tftlcd.c **** 				regval|=(1<<7)|(1<<6)|(1<<5); 
 344              		.loc 1 93 0
 345 00a4 E024     		movs	r4, #224
  94:Src/bsp_tftlcd.c **** 				break;	 
 346              		.loc 1 94 0
 347 00a6 00E0     		b	.L30
 348              	.LVL22:
 349              	.L44:
  75:Src/bsp_tftlcd.c **** 				break;
 350              		.loc 1 75 0
 351 00a8 8024     		movs	r4, #128
 352              	.LVL23:
 353              	.L30:
  95:Src/bsp_tftlcd.c **** 		}
  96:Src/bsp_tftlcd.c **** 		if(lcddev.id==0X5510)dirreg=0X3600;
 354              		.loc 1 96 0
 355 00aa 45F21052 		movw	r2, #21776
 356 00ae 9342     		cmp	r3, r2
 357 00b0 50D0     		beq	.L50
  97:Src/bsp_tftlcd.c **** 		else dirreg=0X36;
ARM GAS  /tmp/cco7znPM.s 			page 9


 358              		.loc 1 97 0
 359 00b2 3620     		movs	r0, #54
 360              	.L38:
 361              	.LVL24:
  98:Src/bsp_tftlcd.c ****  		if((lcddev.id!=0X5310)&&(lcddev.id!=0X5510)&&(lcddev.id!=0X1963))regval|=0X08;//5310/5510/1963‰∏
 362              		.loc 1 98 0
 363 00b4 45F21032 		movw	r2, #21264
 364 00b8 9342     		cmp	r3, r2
 365 00ba 09D0     		beq	.L39
 366              		.loc 1 98 0 is_stmt 0 discriminator 1
 367 00bc 45F21052 		movw	r2, #21776
 368 00c0 9342     		cmp	r3, r2
 369 00c2 05D0     		beq	.L39
 370              		.loc 1 98 0 discriminator 2
 371 00c4 41F66312 		movw	r2, #6499
 372 00c8 9342     		cmp	r3, r2
 373 00ca 01D0     		beq	.L39
 374              		.loc 1 98 0 discriminator 3
 375 00cc 44F00804 		orr	r4, r4, #8
 376              	.LVL25:
 377              	.L39:
  99:Src/bsp_tftlcd.c ****  		LCD_WriteReg(dirreg,regval);
 378              		.loc 1 99 0 is_stmt 1
 379 00d0 2146     		mov	r1, r4
 380 00d2 FFF7FEFF 		bl	LCD_WriteReg
 381              	.LVL26:
 100:Src/bsp_tftlcd.c **** 		if(lcddev.id!=0X1963)//1963‰∏çÂÅöÂùêÊ†áÂ§ÑÁêÜ
 382              		.loc 1 100 0
 383 00d6 494B     		ldr	r3, .L52
 384 00d8 9B88     		ldrh	r3, [r3, #4]
 385 00da 41F66312 		movw	r2, #6499
 386 00de 9342     		cmp	r3, r2
 387 00e0 0AD0     		beq	.L40
 101:Src/bsp_tftlcd.c **** 		{
 102:Src/bsp_tftlcd.c **** 			if(regval&0X20)
 388              		.loc 1 102 0
 389 00e2 14F0200F 		tst	r4, #32
 390 00e6 38D0     		beq	.L41
 103:Src/bsp_tftlcd.c **** 			{
 104:Src/bsp_tftlcd.c **** 				if(lcddev.width<lcddev.height)//‰∫§Êç¢X,Y
 391              		.loc 1 104 0
 392 00e8 444A     		ldr	r2, .L52
 393 00ea 1188     		ldrh	r1, [r2]
 394 00ec 5288     		ldrh	r2, [r2, #2]
 395 00ee 9142     		cmp	r1, r2
 396 00f0 02D2     		bcs	.L40
 397              	.LVL27:
 105:Src/bsp_tftlcd.c **** 				{
 106:Src/bsp_tftlcd.c **** 					temp=lcddev.width;
 107:Src/bsp_tftlcd.c **** 					lcddev.width=lcddev.height;
 398              		.loc 1 107 0
 399 00f2 4248     		ldr	r0, .L52
 400 00f4 0280     		strh	r2, [r0]	@ movhi
 108:Src/bsp_tftlcd.c **** 					lcddev.height=temp;
 401              		.loc 1 108 0
 402 00f6 4180     		strh	r1, [r0, #2]	@ movhi
 403              	.LVL28:
ARM GAS  /tmp/cco7znPM.s 			page 10


 404              	.L40:
 109:Src/bsp_tftlcd.c **** 				}
 110:Src/bsp_tftlcd.c **** 			}else  
 111:Src/bsp_tftlcd.c **** 			{
 112:Src/bsp_tftlcd.c **** 				if(lcddev.width>lcddev.height)//‰∫§Êç¢X,Y
 113:Src/bsp_tftlcd.c **** 				{
 114:Src/bsp_tftlcd.c **** 					temp=lcddev.width;
 115:Src/bsp_tftlcd.c **** 					lcddev.width=lcddev.height;
 116:Src/bsp_tftlcd.c **** 					lcddev.height=temp;
 117:Src/bsp_tftlcd.c **** 				}
 118:Src/bsp_tftlcd.c **** 			}  
 119:Src/bsp_tftlcd.c **** 		}
 120:Src/bsp_tftlcd.c **** 		if(lcddev.id==0X5510)
 405              		.loc 1 120 0
 406 00f8 45F21052 		movw	r2, #21776
 407 00fc 9342     		cmp	r3, r2
 408 00fe 35D0     		beq	.L51
 121:Src/bsp_tftlcd.c **** 		{
 122:Src/bsp_tftlcd.c **** 			LCD_WR_REG(lcddev.setxcmd);LCD_WR_DATA(0); 
 123:Src/bsp_tftlcd.c **** 			LCD_WR_REG(lcddev.setxcmd+1);LCD_WR_DATA(0); 
 124:Src/bsp_tftlcd.c **** 			LCD_WR_REG(lcddev.setxcmd+2);LCD_WR_DATA((lcddev.width-1)>>8); 
 125:Src/bsp_tftlcd.c **** 			LCD_WR_REG(lcddev.setxcmd+3);LCD_WR_DATA((lcddev.width-1)&0XFF); 
 126:Src/bsp_tftlcd.c **** 			LCD_WR_REG(lcddev.setycmd);LCD_WR_DATA(0); 
 127:Src/bsp_tftlcd.c **** 			LCD_WR_REG(lcddev.setycmd+1);LCD_WR_DATA(0); 
 128:Src/bsp_tftlcd.c **** 			LCD_WR_REG(lcddev.setycmd+2);LCD_WR_DATA((lcddev.height-1)>>8); 
 129:Src/bsp_tftlcd.c **** 			LCD_WR_REG(lcddev.setycmd+3);LCD_WR_DATA((lcddev.height-1)&0XFF);
 130:Src/bsp_tftlcd.c **** 		}else
 131:Src/bsp_tftlcd.c **** 		{
 132:Src/bsp_tftlcd.c **** 			LCD_WR_REG(lcddev.setxcmd); 
 409              		.loc 1 132 0
 410 0100 3E4C     		ldr	r4, .L52
 411              	.LVL29:
 412 0102 6089     		ldrh	r0, [r4, #10]
 413 0104 FFF7FEFF 		bl	LCD_WR_REG
 414              	.LVL30:
 133:Src/bsp_tftlcd.c **** 			LCD_WR_DATA(0);LCD_WR_DATA(0);
 415              		.loc 1 133 0
 416 0108 0020     		movs	r0, #0
 417 010a FFF7FEFF 		bl	LCD_WR_DATA
 418              	.LVL31:
 419 010e 0020     		movs	r0, #0
 420 0110 FFF7FEFF 		bl	LCD_WR_DATA
 421              	.LVL32:
 134:Src/bsp_tftlcd.c **** 			LCD_WR_DATA((lcddev.width-1)>>8);LCD_WR_DATA((lcddev.width-1)&0XFF);
 422              		.loc 1 134 0
 423 0114 2088     		ldrh	r0, [r4]
 424 0116 0138     		subs	r0, r0, #1
 425 0118 C0F30F20 		ubfx	r0, r0, #8, #16
 426 011c FFF7FEFF 		bl	LCD_WR_DATA
 427              	.LVL33:
 428 0120 2088     		ldrh	r0, [r4]
 429 0122 0138     		subs	r0, r0, #1
 430 0124 C0B2     		uxtb	r0, r0
 431 0126 FFF7FEFF 		bl	LCD_WR_DATA
 432              	.LVL34:
 135:Src/bsp_tftlcd.c **** 			LCD_WR_REG(lcddev.setycmd); 
 433              		.loc 1 135 0
ARM GAS  /tmp/cco7znPM.s 			page 11


 434 012a A089     		ldrh	r0, [r4, #12]
 435 012c FFF7FEFF 		bl	LCD_WR_REG
 436              	.LVL35:
 136:Src/bsp_tftlcd.c **** 			LCD_WR_DATA(0);LCD_WR_DATA(0);
 437              		.loc 1 136 0
 438 0130 0020     		movs	r0, #0
 439 0132 FFF7FEFF 		bl	LCD_WR_DATA
 440              	.LVL36:
 441 0136 0020     		movs	r0, #0
 442 0138 FFF7FEFF 		bl	LCD_WR_DATA
 443              	.LVL37:
 137:Src/bsp_tftlcd.c **** 			LCD_WR_DATA((lcddev.height-1)>>8);LCD_WR_DATA((lcddev.height-1)&0XFF);  
 444              		.loc 1 137 0
 445 013c 6088     		ldrh	r0, [r4, #2]
 446 013e 0138     		subs	r0, r0, #1
 447 0140 C0F30F20 		ubfx	r0, r0, #8, #16
 448 0144 FFF7FEFF 		bl	LCD_WR_DATA
 449              	.LVL38:
 450 0148 6088     		ldrh	r0, [r4, #2]
 451 014a 0138     		subs	r0, r0, #1
 452 014c C0B2     		uxtb	r0, r0
 453 014e FFF7FEFF 		bl	LCD_WR_DATA
 454              	.LVL39:
 455 0152 10BD     		pop	{r4, pc}
 456              	.LVL40:
 457              	.L50:
  96:Src/bsp_tftlcd.c **** 		else dirreg=0X36;
 458              		.loc 1 96 0
 459 0154 4FF45850 		mov	r0, #13824
 460 0158 ACE7     		b	.L38
 461              	.LVL41:
 462              	.L41:
 112:Src/bsp_tftlcd.c **** 				{
 463              		.loc 1 112 0
 464 015a 284A     		ldr	r2, .L52
 465 015c 1188     		ldrh	r1, [r2]
 466 015e 5288     		ldrh	r2, [r2, #2]
 467 0160 9142     		cmp	r1, r2
 468 0162 C9D9     		bls	.L40
 469              	.LVL42:
 115:Src/bsp_tftlcd.c **** 					lcddev.height=temp;
 470              		.loc 1 115 0
 471 0164 2548     		ldr	r0, .L52
 472 0166 0280     		strh	r2, [r0]	@ movhi
 116:Src/bsp_tftlcd.c **** 				}
 473              		.loc 1 116 0
 474 0168 4180     		strh	r1, [r0, #2]	@ movhi
 475 016a C5E7     		b	.L40
 476              	.LVL43:
 477              	.L51:
 122:Src/bsp_tftlcd.c **** 			LCD_WR_REG(lcddev.setxcmd+1);LCD_WR_DATA(0); 
 478              		.loc 1 122 0
 479 016c 234C     		ldr	r4, .L52
 480              	.LVL44:
 481 016e 6089     		ldrh	r0, [r4, #10]
 482 0170 FFF7FEFF 		bl	LCD_WR_REG
 483              	.LVL45:
ARM GAS  /tmp/cco7znPM.s 			page 12


 484 0174 0020     		movs	r0, #0
 485 0176 FFF7FEFF 		bl	LCD_WR_DATA
 486              	.LVL46:
 123:Src/bsp_tftlcd.c **** 			LCD_WR_REG(lcddev.setxcmd+2);LCD_WR_DATA((lcddev.width-1)>>8); 
 487              		.loc 1 123 0
 488 017a 6089     		ldrh	r0, [r4, #10]
 489 017c 0130     		adds	r0, r0, #1
 490 017e 80B2     		uxth	r0, r0
 491 0180 FFF7FEFF 		bl	LCD_WR_REG
 492              	.LVL47:
 493 0184 0020     		movs	r0, #0
 494 0186 FFF7FEFF 		bl	LCD_WR_DATA
 495              	.LVL48:
 124:Src/bsp_tftlcd.c **** 			LCD_WR_REG(lcddev.setxcmd+3);LCD_WR_DATA((lcddev.width-1)&0XFF); 
 496              		.loc 1 124 0
 497 018a 6089     		ldrh	r0, [r4, #10]
 498 018c 0230     		adds	r0, r0, #2
 499 018e 80B2     		uxth	r0, r0
 500 0190 FFF7FEFF 		bl	LCD_WR_REG
 501              	.LVL49:
 502 0194 2088     		ldrh	r0, [r4]
 503 0196 0138     		subs	r0, r0, #1
 504 0198 C0F30F20 		ubfx	r0, r0, #8, #16
 505 019c FFF7FEFF 		bl	LCD_WR_DATA
 506              	.LVL50:
 125:Src/bsp_tftlcd.c **** 			LCD_WR_REG(lcddev.setycmd);LCD_WR_DATA(0); 
 507              		.loc 1 125 0
 508 01a0 6089     		ldrh	r0, [r4, #10]
 509 01a2 0330     		adds	r0, r0, #3
 510 01a4 80B2     		uxth	r0, r0
 511 01a6 FFF7FEFF 		bl	LCD_WR_REG
 512              	.LVL51:
 513 01aa 2088     		ldrh	r0, [r4]
 514 01ac 0138     		subs	r0, r0, #1
 515 01ae C0B2     		uxtb	r0, r0
 516 01b0 FFF7FEFF 		bl	LCD_WR_DATA
 517              	.LVL52:
 126:Src/bsp_tftlcd.c **** 			LCD_WR_REG(lcddev.setycmd+1);LCD_WR_DATA(0); 
 518              		.loc 1 126 0
 519 01b4 A089     		ldrh	r0, [r4, #12]
 520 01b6 FFF7FEFF 		bl	LCD_WR_REG
 521              	.LVL53:
 522 01ba 0020     		movs	r0, #0
 523 01bc FFF7FEFF 		bl	LCD_WR_DATA
 524              	.LVL54:
 127:Src/bsp_tftlcd.c **** 			LCD_WR_REG(lcddev.setycmd+2);LCD_WR_DATA((lcddev.height-1)>>8); 
 525              		.loc 1 127 0
 526 01c0 A089     		ldrh	r0, [r4, #12]
 527 01c2 0130     		adds	r0, r0, #1
 528 01c4 80B2     		uxth	r0, r0
 529 01c6 FFF7FEFF 		bl	LCD_WR_REG
 530              	.LVL55:
 531 01ca 0020     		movs	r0, #0
 532 01cc FFF7FEFF 		bl	LCD_WR_DATA
 533              	.LVL56:
 128:Src/bsp_tftlcd.c **** 			LCD_WR_REG(lcddev.setycmd+3);LCD_WR_DATA((lcddev.height-1)&0XFF);
 534              		.loc 1 128 0
ARM GAS  /tmp/cco7znPM.s 			page 13


 535 01d0 A089     		ldrh	r0, [r4, #12]
 536 01d2 0230     		adds	r0, r0, #2
 537 01d4 80B2     		uxth	r0, r0
 538 01d6 FFF7FEFF 		bl	LCD_WR_REG
 539              	.LVL57:
 540 01da 6088     		ldrh	r0, [r4, #2]
 541 01dc 0138     		subs	r0, r0, #1
 542 01de C0F30F20 		ubfx	r0, r0, #8, #16
 543 01e2 FFF7FEFF 		bl	LCD_WR_DATA
 544              	.LVL58:
 129:Src/bsp_tftlcd.c **** 		}else
 545              		.loc 1 129 0
 546 01e6 A089     		ldrh	r0, [r4, #12]
 547 01e8 0330     		adds	r0, r0, #3
 548 01ea 80B2     		uxth	r0, r0
 549 01ec FFF7FEFF 		bl	LCD_WR_REG
 550              	.LVL59:
 551 01f0 6088     		ldrh	r0, [r4, #2]
 552 01f2 0138     		subs	r0, r0, #1
 553 01f4 C0B2     		uxtb	r0, r0
 554 01f6 FFF7FEFF 		bl	LCD_WR_DATA
 555              	.LVL60:
 556 01fa 10BD     		pop	{r4, pc}
 557              	.L53:
 558              		.align	2
 559              	.L52:
 560 01fc 00000000 		.word	lcddev
 561              		.cfi_endproc
 562              	.LFE129:
 564              		.section	.text.LCD_Display_Dir,"ax",%progbits
 565              		.align	1
 566              		.global	LCD_Display_Dir
 567              		.syntax unified
 568              		.thumb
 569              		.thumb_func
 570              		.fpu fpv4-sp-d16
 572              	LCD_Display_Dir:
 573              	.LFB130:
 138:Src/bsp_tftlcd.c **** 		}
 139:Src/bsp_tftlcd.c ****   	} 
 140:Src/bsp_tftlcd.c **** }   
 141:Src/bsp_tftlcd.c **** 
 142:Src/bsp_tftlcd.c **** //ËÆæÁΩÆLCDÊòæÁ§∫ÊñπÂêë
 143:Src/bsp_tftlcd.c **** //dir:0,Á´ñÂ±èÔºõ1,Ê®™Â±è
 144:Src/bsp_tftlcd.c **** void LCD_Display_Dir(uint8_t dir)
 145:Src/bsp_tftlcd.c **** {
 574              		.loc 1 145 0
 575              		.cfi_startproc
 576              		@ args = 0, pretend = 0, frame = 0
 577              		@ frame_needed = 0, uses_anonymous_args = 0
 578              	.LVL61:
 579 0000 08B5     		push	{r3, lr}
 580              	.LCFI5:
 581              		.cfi_def_cfa_offset 8
 582              		.cfi_offset 3, -8
 583              		.cfi_offset 14, -4
 146:Src/bsp_tftlcd.c **** 	lcddev.dir=dir;		//Á´ñÂ±è/Ê®™Â±è 
ARM GAS  /tmp/cco7znPM.s 			page 14


 584              		.loc 1 146 0
 585 0002 4C4B     		ldr	r3, .L68
 586 0004 9871     		strb	r0, [r3, #6]
 147:Src/bsp_tftlcd.c **** 	if(dir==0)			//Á´ñÂ±è
 587              		.loc 1 147 0
 588 0006 0028     		cmp	r0, #0
 589 0008 47D1     		bne	.L55
 148:Src/bsp_tftlcd.c **** 	{
 149:Src/bsp_tftlcd.c **** 		lcddev.width=240;
 590              		.loc 1 149 0
 591 000a F022     		movs	r2, #240
 592 000c 1A80     		strh	r2, [r3]	@ movhi
 150:Src/bsp_tftlcd.c **** 		lcddev.height=320;
 593              		.loc 1 150 0
 594 000e 4FF4A072 		mov	r2, #320
 595 0012 5A80     		strh	r2, [r3, #2]	@ movhi
 151:Src/bsp_tftlcd.c **** 		if(lcddev.id==0X9341||lcddev.id==0X5310)
 596              		.loc 1 151 0
 597 0014 9B88     		ldrh	r3, [r3, #4]
 598 0016 49F24132 		movw	r2, #37697
 599 001a 9342     		cmp	r3, r2
 600 001c 19D0     		beq	.L56
 601              		.loc 1 151 0 is_stmt 0 discriminator 1
 602 001e 45F21032 		movw	r2, #21264
 603 0022 9342     		cmp	r3, r2
 604 0024 15D0     		beq	.L56
 152:Src/bsp_tftlcd.c **** 		{
 153:Src/bsp_tftlcd.c **** 			lcddev.wramcmd=0X2C;
 154:Src/bsp_tftlcd.c **** 	 		lcddev.setxcmd=0X2A;
 155:Src/bsp_tftlcd.c **** 			lcddev.setycmd=0X2B;  	 
 156:Src/bsp_tftlcd.c **** 			if(lcddev.id==0X5310)
 157:Src/bsp_tftlcd.c **** 			{
 158:Src/bsp_tftlcd.c **** 				lcddev.width=320;
 159:Src/bsp_tftlcd.c **** 				lcddev.height=480;
 160:Src/bsp_tftlcd.c **** 			}
 161:Src/bsp_tftlcd.c **** 		}else if(lcddev.id==0x5510)
 605              		.loc 1 161 0 is_stmt 1
 606 0026 45F21052 		movw	r2, #21776
 607 002a 9342     		cmp	r3, r2
 608 002c 24D0     		beq	.L65
 162:Src/bsp_tftlcd.c **** 		{
 163:Src/bsp_tftlcd.c **** 			lcddev.wramcmd=0X2C00;
 164:Src/bsp_tftlcd.c **** 	 		lcddev.setxcmd=0X2A00;
 165:Src/bsp_tftlcd.c **** 			lcddev.setycmd=0X2B00; 
 166:Src/bsp_tftlcd.c **** 			lcddev.width=480;
 167:Src/bsp_tftlcd.c **** 			lcddev.height=800;
 168:Src/bsp_tftlcd.c **** 		}else if(lcddev.id==0X1963)
 609              		.loc 1 168 0
 610 002e 41F66312 		movw	r2, #6499
 611 0032 9342     		cmp	r3, r2
 612 0034 61D1     		bne	.L58
 169:Src/bsp_tftlcd.c **** 		{
 170:Src/bsp_tftlcd.c **** 			lcddev.wramcmd=0X2C;	//ËÆæÁΩÆÂÜôÂÖ•GRAMÁöÑÊåá‰ª§ 
 613              		.loc 1 170 0
 614 0036 3F4B     		ldr	r3, .L68
 615 0038 2C22     		movs	r2, #44
 616 003a 1A81     		strh	r2, [r3, #8]	@ movhi
ARM GAS  /tmp/cco7znPM.s 			page 15


 171:Src/bsp_tftlcd.c **** 			lcddev.setxcmd=0X2B;	//ËÆæÁΩÆÂÜôXÂùêÊ†áÊåá‰ª§
 617              		.loc 1 171 0
 618 003c 2B22     		movs	r2, #43
 619 003e 5A81     		strh	r2, [r3, #10]	@ movhi
 172:Src/bsp_tftlcd.c **** 			lcddev.setycmd=0X2A;	//ËÆæÁΩÆÂÜôYÂùêÊ†áÊåá‰ª§
 620              		.loc 1 172 0
 621 0040 2A22     		movs	r2, #42
 622 0042 9A81     		strh	r2, [r3, #12]	@ movhi
 173:Src/bsp_tftlcd.c **** 			lcddev.width=480;		//ËÆæÁΩÆÂÆΩÂ∫¶480
 623              		.loc 1 173 0
 624 0044 4FF4F072 		mov	r2, #480
 625 0048 1A80     		strh	r2, [r3]	@ movhi
 174:Src/bsp_tftlcd.c **** 			lcddev.height=800;		//ËÆæÁΩÆÈ´òÂ∫¶800  
 626              		.loc 1 174 0
 627 004a 4FF44872 		mov	r2, #800
 628 004e 5A80     		strh	r2, [r3, #2]	@ movhi
 629 0050 53E0     		b	.L58
 630              	.L56:
 153:Src/bsp_tftlcd.c **** 	 		lcddev.setxcmd=0X2A;
 631              		.loc 1 153 0
 632 0052 384A     		ldr	r2, .L68
 633 0054 2C21     		movs	r1, #44
 634 0056 1181     		strh	r1, [r2, #8]	@ movhi
 154:Src/bsp_tftlcd.c **** 			lcddev.setycmd=0X2B;  	 
 635              		.loc 1 154 0
 636 0058 2A21     		movs	r1, #42
 637 005a 5181     		strh	r1, [r2, #10]	@ movhi
 155:Src/bsp_tftlcd.c **** 			if(lcddev.id==0X5310)
 638              		.loc 1 155 0
 639 005c 2B21     		movs	r1, #43
 640 005e 9181     		strh	r1, [r2, #12]	@ movhi
 156:Src/bsp_tftlcd.c **** 			{
 641              		.loc 1 156 0
 642 0060 45F21032 		movw	r2, #21264
 643 0064 9342     		cmp	r3, r2
 644 0066 48D1     		bne	.L58
 158:Src/bsp_tftlcd.c **** 				lcddev.height=480;
 645              		.loc 1 158 0
 646 0068 324B     		ldr	r3, .L68
 647 006a 4FF4A072 		mov	r2, #320
 648 006e 1A80     		strh	r2, [r3]	@ movhi
 159:Src/bsp_tftlcd.c **** 			}
 649              		.loc 1 159 0
 650 0070 4FF4F072 		mov	r2, #480
 651 0074 5A80     		strh	r2, [r3, #2]	@ movhi
 652 0076 40E0     		b	.L58
 653              	.L65:
 163:Src/bsp_tftlcd.c **** 	 		lcddev.setxcmd=0X2A00;
 654              		.loc 1 163 0
 655 0078 2E4B     		ldr	r3, .L68
 656 007a 4FF43052 		mov	r2, #11264
 657 007e 1A81     		strh	r2, [r3, #8]	@ movhi
 164:Src/bsp_tftlcd.c **** 			lcddev.setycmd=0X2B00; 
 658              		.loc 1 164 0
 659 0080 4FF42852 		mov	r2, #10752
 660 0084 5A81     		strh	r2, [r3, #10]	@ movhi
 165:Src/bsp_tftlcd.c **** 			lcddev.width=480;
ARM GAS  /tmp/cco7znPM.s 			page 16


 661              		.loc 1 165 0
 662 0086 4FF42C52 		mov	r2, #11008
 663 008a 9A81     		strh	r2, [r3, #12]	@ movhi
 166:Src/bsp_tftlcd.c **** 			lcddev.height=800;
 664              		.loc 1 166 0
 665 008c 4FF4F072 		mov	r2, #480
 666 0090 1A80     		strh	r2, [r3]	@ movhi
 167:Src/bsp_tftlcd.c **** 		}else if(lcddev.id==0X1963)
 667              		.loc 1 167 0
 668 0092 4FF44872 		mov	r2, #800
 669 0096 5A80     		strh	r2, [r3, #2]	@ movhi
 670 0098 2FE0     		b	.L58
 671              	.L55:
 175:Src/bsp_tftlcd.c **** 		}
 176:Src/bsp_tftlcd.c **** 	}else 				//Ê®™Â±è
 177:Src/bsp_tftlcd.c **** 	{	  				 
 178:Src/bsp_tftlcd.c **** 		lcddev.width=320;
 672              		.loc 1 178 0
 673 009a 264B     		ldr	r3, .L68
 674 009c 4FF4A072 		mov	r2, #320
 675 00a0 1A80     		strh	r2, [r3]	@ movhi
 179:Src/bsp_tftlcd.c **** 		lcddev.height=240;
 676              		.loc 1 179 0
 677 00a2 F022     		movs	r2, #240
 678 00a4 5A80     		strh	r2, [r3, #2]	@ movhi
 180:Src/bsp_tftlcd.c **** 		if(lcddev.id==0X9341||lcddev.id==0X5310)
 679              		.loc 1 180 0
 680 00a6 9B88     		ldrh	r3, [r3, #4]
 681 00a8 49F24132 		movw	r2, #37697
 682 00ac 9342     		cmp	r3, r2
 683 00ae 19D0     		beq	.L60
 684              		.loc 1 180 0 is_stmt 0 discriminator 1
 685 00b0 45F21032 		movw	r2, #21264
 686 00b4 9342     		cmp	r3, r2
 687 00b6 15D0     		beq	.L60
 181:Src/bsp_tftlcd.c **** 		{
 182:Src/bsp_tftlcd.c **** 			lcddev.wramcmd=0X2C;
 183:Src/bsp_tftlcd.c **** 	 		lcddev.setxcmd=0X2A;
 184:Src/bsp_tftlcd.c **** 			lcddev.setycmd=0X2B;  	 
 185:Src/bsp_tftlcd.c **** 		}else if(lcddev.id==0x5510)
 688              		.loc 1 185 0 is_stmt 1
 689 00b8 45F21052 		movw	r2, #21776
 690 00bc 9342     		cmp	r3, r2
 691 00be 20D0     		beq	.L66
 186:Src/bsp_tftlcd.c **** 		{
 187:Src/bsp_tftlcd.c **** 			lcddev.wramcmd=0X2C00;
 188:Src/bsp_tftlcd.c **** 	 		lcddev.setxcmd=0X2A00;
 189:Src/bsp_tftlcd.c **** 			lcddev.setycmd=0X2B00; 
 190:Src/bsp_tftlcd.c **** 			lcddev.width=800;
 191:Src/bsp_tftlcd.c **** 			lcddev.height=480;
 192:Src/bsp_tftlcd.c **** 		}else if(lcddev.id==0X1963)
 692              		.loc 1 192 0
 693 00c0 41F66312 		movw	r2, #6499
 694 00c4 9342     		cmp	r3, r2
 695 00c6 14D1     		bne	.L62
 193:Src/bsp_tftlcd.c **** 		{
 194:Src/bsp_tftlcd.c **** 			lcddev.wramcmd=0X2C;	//ËÆæÁΩÆÂÜôÂÖ•GRAMÁöÑÊåá‰ª§ 
ARM GAS  /tmp/cco7znPM.s 			page 17


 696              		.loc 1 194 0
 697 00c8 1A4A     		ldr	r2, .L68
 698 00ca 2C21     		movs	r1, #44
 699 00cc 1181     		strh	r1, [r2, #8]	@ movhi
 195:Src/bsp_tftlcd.c **** 			lcddev.setxcmd=0X2A;	//ËÆæÁΩÆÂÜôXÂùêÊ†áÊåá‰ª§
 700              		.loc 1 195 0
 701 00ce 2A21     		movs	r1, #42
 702 00d0 5181     		strh	r1, [r2, #10]	@ movhi
 196:Src/bsp_tftlcd.c **** 			lcddev.setycmd=0X2B;	//ËÆæÁΩÆÂÜôYÂùêÊ†áÊåá‰ª§
 703              		.loc 1 196 0
 704 00d2 2B21     		movs	r1, #43
 705 00d4 9181     		strh	r1, [r2, #12]	@ movhi
 197:Src/bsp_tftlcd.c **** 			lcddev.width=800;		//ËÆæÁΩÆÂÆΩÂ∫¶800
 706              		.loc 1 197 0
 707 00d6 4FF44871 		mov	r1, #800
 708 00da 1180     		strh	r1, [r2]	@ movhi
 198:Src/bsp_tftlcd.c **** 			lcddev.height=480;		//ËÆæÁΩÆÈ´òÂ∫¶480  
 709              		.loc 1 198 0
 710 00dc 4FF4F071 		mov	r1, #480
 711 00e0 5180     		strh	r1, [r2, #2]	@ movhi
 712 00e2 06E0     		b	.L62
 713              	.L60:
 182:Src/bsp_tftlcd.c **** 	 		lcddev.setxcmd=0X2A;
 714              		.loc 1 182 0
 715 00e4 134A     		ldr	r2, .L68
 716 00e6 2C21     		movs	r1, #44
 717 00e8 1181     		strh	r1, [r2, #8]	@ movhi
 183:Src/bsp_tftlcd.c **** 			lcddev.setycmd=0X2B;  	 
 718              		.loc 1 183 0
 719 00ea 2A21     		movs	r1, #42
 720 00ec 5181     		strh	r1, [r2, #10]	@ movhi
 184:Src/bsp_tftlcd.c **** 		}else if(lcddev.id==0x5510)
 721              		.loc 1 184 0
 722 00ee 2B21     		movs	r1, #43
 723 00f0 9181     		strh	r1, [r2, #12]	@ movhi
 724              	.L62:
 199:Src/bsp_tftlcd.c **** 		}
 200:Src/bsp_tftlcd.c **** 		if(lcddev.id==0X5310)
 725              		.loc 1 200 0
 726 00f2 45F21032 		movw	r2, #21264
 727 00f6 9342     		cmp	r3, r2
 728 00f8 14D0     		beq	.L67
 729              	.L58:
 201:Src/bsp_tftlcd.c **** 		{ 	 
 202:Src/bsp_tftlcd.c **** 			lcddev.width=480;
 203:Src/bsp_tftlcd.c **** 			lcddev.height=320; 			
 204:Src/bsp_tftlcd.c **** 		}
 205:Src/bsp_tftlcd.c **** 	} 
 206:Src/bsp_tftlcd.c **** 	LCD_Scan_Dir(DFT_SCAN_DIR);	//ÈªòËÆ§Êâ´ÊèèÊñπÂêë
 730              		.loc 1 206 0
 731 00fa 0020     		movs	r0, #0
 732              	.LVL62:
 733 00fc FFF7FEFF 		bl	LCD_Scan_Dir
 734              	.LVL63:
 735 0100 08BD     		pop	{r3, pc}
 736              	.LVL64:
 737              	.L66:
ARM GAS  /tmp/cco7znPM.s 			page 18


 187:Src/bsp_tftlcd.c **** 	 		lcddev.setxcmd=0X2A00;
 738              		.loc 1 187 0
 739 0102 0C4A     		ldr	r2, .L68
 740 0104 4FF43051 		mov	r1, #11264
 741 0108 1181     		strh	r1, [r2, #8]	@ movhi
 188:Src/bsp_tftlcd.c **** 			lcddev.setycmd=0X2B00; 
 742              		.loc 1 188 0
 743 010a 4FF42851 		mov	r1, #10752
 744 010e 5181     		strh	r1, [r2, #10]	@ movhi
 189:Src/bsp_tftlcd.c **** 			lcddev.width=800;
 745              		.loc 1 189 0
 746 0110 4FF42C51 		mov	r1, #11008
 747 0114 9181     		strh	r1, [r2, #12]	@ movhi
 190:Src/bsp_tftlcd.c **** 			lcddev.height=480;
 748              		.loc 1 190 0
 749 0116 4FF44871 		mov	r1, #800
 750 011a 1180     		strh	r1, [r2]	@ movhi
 191:Src/bsp_tftlcd.c **** 		}else if(lcddev.id==0X1963)
 751              		.loc 1 191 0
 752 011c 4FF4F071 		mov	r1, #480
 753 0120 5180     		strh	r1, [r2, #2]	@ movhi
 754 0122 E6E7     		b	.L62
 755              	.L67:
 202:Src/bsp_tftlcd.c **** 			lcddev.height=320; 			
 756              		.loc 1 202 0
 757 0124 034B     		ldr	r3, .L68
 758 0126 4FF4F072 		mov	r2, #480
 759 012a 1A80     		strh	r2, [r3]	@ movhi
 203:Src/bsp_tftlcd.c **** 		}
 760              		.loc 1 203 0
 761 012c 4FF4A072 		mov	r2, #320
 762 0130 5A80     		strh	r2, [r3, #2]	@ movhi
 763 0132 E2E7     		b	.L58
 764              	.L69:
 765              		.align	2
 766              	.L68:
 767 0134 00000000 		.word	lcddev
 768              		.cfi_endproc
 769              	.LFE130:
 771              		.section	.text.LCD_SetCursor,"ax",%progbits
 772              		.align	1
 773              		.global	LCD_SetCursor
 774              		.syntax unified
 775              		.thumb
 776              		.thumb_func
 777              		.fpu fpv4-sp-d16
 779              	LCD_SetCursor:
 780              	.LFB131:
 207:Src/bsp_tftlcd.c **** }	
 208:Src/bsp_tftlcd.c **** //ËÆæÁΩÆÂÖâÊ†á‰ΩçÁΩÆ(ÂØπRGBÂ±èÊó†Êïà)
 209:Src/bsp_tftlcd.c **** //Xpos:Ê®™ÂùêÊ†á
 210:Src/bsp_tftlcd.c **** //Ypos:Á∫µÂùêÊ†á
 211:Src/bsp_tftlcd.c **** void LCD_SetCursor(uint16_t Xpos, uint16_t Ypos)
 212:Src/bsp_tftlcd.c **** {	 
 781              		.loc 1 212 0
 782              		.cfi_startproc
 783              		@ args = 0, pretend = 0, frame = 0
ARM GAS  /tmp/cco7znPM.s 			page 19


 784              		@ frame_needed = 0, uses_anonymous_args = 0
 785              	.LVL65:
 786 0000 70B5     		push	{r4, r5, r6, lr}
 787              	.LCFI6:
 788              		.cfi_def_cfa_offset 16
 789              		.cfi_offset 4, -16
 790              		.cfi_offset 5, -12
 791              		.cfi_offset 6, -8
 792              		.cfi_offset 14, -4
 793 0002 0546     		mov	r5, r0
 794 0004 0C46     		mov	r4, r1
 213:Src/bsp_tftlcd.c ****  	if(lcddev.id==0X9341||lcddev.id==0X5310)
 795              		.loc 1 213 0
 796 0006 444B     		ldr	r3, .L80
 797 0008 9B88     		ldrh	r3, [r3, #4]
 798 000a 49F24132 		movw	r2, #37697
 799 000e 9342     		cmp	r3, r2
 800 0010 0CD0     		beq	.L71
 801              		.loc 1 213 0 is_stmt 0 discriminator 1
 802 0012 45F21032 		movw	r2, #21264
 803 0016 9342     		cmp	r3, r2
 804 0018 08D0     		beq	.L71
 214:Src/bsp_tftlcd.c **** 	{		    
 215:Src/bsp_tftlcd.c **** 		LCD_WR_REG(lcddev.setxcmd); 
 216:Src/bsp_tftlcd.c **** 		LCD_WR_DATA(Xpos>>8);LCD_WR_DATA(Xpos&0XFF); 			 
 217:Src/bsp_tftlcd.c **** 		LCD_WR_REG(lcddev.setycmd); 
 218:Src/bsp_tftlcd.c **** 		LCD_WR_DATA(Ypos>>8);LCD_WR_DATA(Ypos&0XFF); 		
 219:Src/bsp_tftlcd.c **** 	}else if(lcddev.id==0X1963)
 805              		.loc 1 219 0 is_stmt 1
 806 001a 41F66312 		movw	r2, #6499
 807 001e 9342     		cmp	r3, r2
 808 0020 18D0     		beq	.L78
 220:Src/bsp_tftlcd.c **** 	{  			 		
 221:Src/bsp_tftlcd.c **** 		if(lcddev.dir==0)//xÂùêÊ†áÈúÄË¶ÅÂèòÊç¢
 222:Src/bsp_tftlcd.c **** 		{
 223:Src/bsp_tftlcd.c **** 			Xpos=lcddev.width-1-Xpos;
 224:Src/bsp_tftlcd.c **** 			LCD_WR_REG(lcddev.setxcmd); 
 225:Src/bsp_tftlcd.c **** 			LCD_WR_DATA(0);LCD_WR_DATA(0); 		
 226:Src/bsp_tftlcd.c **** 			LCD_WR_DATA(Xpos>>8);LCD_WR_DATA(Xpos&0XFF);		 	 
 227:Src/bsp_tftlcd.c **** 		}else
 228:Src/bsp_tftlcd.c **** 		{
 229:Src/bsp_tftlcd.c **** 			LCD_WR_REG(lcddev.setxcmd); 
 230:Src/bsp_tftlcd.c **** 			LCD_WR_DATA(Xpos>>8);LCD_WR_DATA(Xpos&0XFF); 		
 231:Src/bsp_tftlcd.c **** 			LCD_WR_DATA((lcddev.width-1)>>8);LCD_WR_DATA((lcddev.width-1)&0XFF);		 	 			
 232:Src/bsp_tftlcd.c **** 		}	
 233:Src/bsp_tftlcd.c **** 		LCD_WR_REG(lcddev.setycmd); 
 234:Src/bsp_tftlcd.c **** 		LCD_WR_DATA(Ypos>>8);LCD_WR_DATA(Ypos&0XFF); 		
 235:Src/bsp_tftlcd.c **** 		LCD_WR_DATA((lcddev.height-1)>>8);LCD_WR_DATA((lcddev.height-1)&0XFF); 			 		
 236:Src/bsp_tftlcd.c **** 		
 237:Src/bsp_tftlcd.c **** 	}else if(lcddev.id==0X5510)
 809              		.loc 1 237 0
 810 0022 45F21052 		movw	r2, #21776
 811 0026 9342     		cmp	r3, r2
 812 0028 58D0     		beq	.L79
 813              	.LVL66:
 814              	.L70:
 815 002a 70BD     		pop	{r4, r5, r6, pc}
ARM GAS  /tmp/cco7znPM.s 			page 20


 816              	.LVL67:
 817              	.L71:
 215:Src/bsp_tftlcd.c **** 		LCD_WR_DATA(Xpos>>8);LCD_WR_DATA(Xpos&0XFF); 			 
 818              		.loc 1 215 0
 819 002c 3A4E     		ldr	r6, .L80
 820 002e 7089     		ldrh	r0, [r6, #10]
 821              	.LVL68:
 822 0030 FFF7FEFF 		bl	LCD_WR_REG
 823              	.LVL69:
 216:Src/bsp_tftlcd.c **** 		LCD_WR_REG(lcddev.setycmd); 
 824              		.loc 1 216 0
 825 0034 280A     		lsrs	r0, r5, #8
 826 0036 FFF7FEFF 		bl	LCD_WR_DATA
 827              	.LVL70:
 828 003a E8B2     		uxtb	r0, r5
 829 003c FFF7FEFF 		bl	LCD_WR_DATA
 830              	.LVL71:
 217:Src/bsp_tftlcd.c **** 		LCD_WR_DATA(Ypos>>8);LCD_WR_DATA(Ypos&0XFF); 		
 831              		.loc 1 217 0
 832 0040 B089     		ldrh	r0, [r6, #12]
 833 0042 FFF7FEFF 		bl	LCD_WR_REG
 834              	.LVL72:
 218:Src/bsp_tftlcd.c **** 	}else if(lcddev.id==0X1963)
 835              		.loc 1 218 0
 836 0046 200A     		lsrs	r0, r4, #8
 837 0048 FFF7FEFF 		bl	LCD_WR_DATA
 838              	.LVL73:
 839 004c E0B2     		uxtb	r0, r4
 840 004e FFF7FEFF 		bl	LCD_WR_DATA
 841              	.LVL74:
 842 0052 70BD     		pop	{r4, r5, r6, pc}
 843              	.LVL75:
 844              	.L78:
 221:Src/bsp_tftlcd.c **** 		{
 845              		.loc 1 221 0
 846 0054 304B     		ldr	r3, .L80
 847 0056 9B79     		ldrb	r3, [r3, #6]	@ zero_extendqisi2
 848 0058 53BB     		cbnz	r3, .L75
 223:Src/bsp_tftlcd.c **** 			LCD_WR_REG(lcddev.setxcmd); 
 849              		.loc 1 223 0
 850 005a 2F4A     		ldr	r2, .L80
 851 005c 1388     		ldrh	r3, [r2]
 852 005e 1D1A     		subs	r5, r3, r0
 853 0060 ADB2     		uxth	r5, r5
 854 0062 013D     		subs	r5, r5, #1
 855 0064 ADB2     		uxth	r5, r5
 856              	.LVL76:
 224:Src/bsp_tftlcd.c **** 			LCD_WR_DATA(0);LCD_WR_DATA(0); 		
 857              		.loc 1 224 0
 858 0066 5089     		ldrh	r0, [r2, #10]
 859 0068 FFF7FEFF 		bl	LCD_WR_REG
 860              	.LVL77:
 225:Src/bsp_tftlcd.c **** 			LCD_WR_DATA(Xpos>>8);LCD_WR_DATA(Xpos&0XFF);		 	 
 861              		.loc 1 225 0
 862 006c 0020     		movs	r0, #0
 863 006e FFF7FEFF 		bl	LCD_WR_DATA
 864              	.LVL78:
ARM GAS  /tmp/cco7znPM.s 			page 21


 865 0072 0020     		movs	r0, #0
 866 0074 FFF7FEFF 		bl	LCD_WR_DATA
 867              	.LVL79:
 226:Src/bsp_tftlcd.c **** 		}else
 868              		.loc 1 226 0
 869 0078 280A     		lsrs	r0, r5, #8
 870 007a FFF7FEFF 		bl	LCD_WR_DATA
 871              	.LVL80:
 872 007e E8B2     		uxtb	r0, r5
 873 0080 FFF7FEFF 		bl	LCD_WR_DATA
 874              	.LVL81:
 875              	.L76:
 233:Src/bsp_tftlcd.c **** 		LCD_WR_DATA(Ypos>>8);LCD_WR_DATA(Ypos&0XFF); 		
 876              		.loc 1 233 0
 877 0084 244D     		ldr	r5, .L80
 878 0086 A889     		ldrh	r0, [r5, #12]
 879 0088 FFF7FEFF 		bl	LCD_WR_REG
 880              	.LVL82:
 234:Src/bsp_tftlcd.c **** 		LCD_WR_DATA((lcddev.height-1)>>8);LCD_WR_DATA((lcddev.height-1)&0XFF); 			 		
 881              		.loc 1 234 0
 882 008c 200A     		lsrs	r0, r4, #8
 883 008e FFF7FEFF 		bl	LCD_WR_DATA
 884              	.LVL83:
 885 0092 E0B2     		uxtb	r0, r4
 886 0094 FFF7FEFF 		bl	LCD_WR_DATA
 887              	.LVL84:
 235:Src/bsp_tftlcd.c **** 		
 888              		.loc 1 235 0
 889 0098 6888     		ldrh	r0, [r5, #2]
 890 009a 0138     		subs	r0, r0, #1
 891 009c C0F30F20 		ubfx	r0, r0, #8, #16
 892 00a0 FFF7FEFF 		bl	LCD_WR_DATA
 893              	.LVL85:
 894 00a4 6888     		ldrh	r0, [r5, #2]
 895 00a6 0138     		subs	r0, r0, #1
 896 00a8 C0B2     		uxtb	r0, r0
 897 00aa FFF7FEFF 		bl	LCD_WR_DATA
 898              	.LVL86:
 899 00ae 70BD     		pop	{r4, r5, r6, pc}
 900              	.LVL87:
 901              	.L75:
 229:Src/bsp_tftlcd.c **** 			LCD_WR_DATA(Xpos>>8);LCD_WR_DATA(Xpos&0XFF); 		
 902              		.loc 1 229 0
 903 00b0 194E     		ldr	r6, .L80
 904 00b2 7089     		ldrh	r0, [r6, #10]
 905              	.LVL88:
 906 00b4 FFF7FEFF 		bl	LCD_WR_REG
 907              	.LVL89:
 230:Src/bsp_tftlcd.c **** 			LCD_WR_DATA((lcddev.width-1)>>8);LCD_WR_DATA((lcddev.width-1)&0XFF);		 	 			
 908              		.loc 1 230 0
 909 00b8 280A     		lsrs	r0, r5, #8
 910 00ba FFF7FEFF 		bl	LCD_WR_DATA
 911              	.LVL90:
 912 00be E8B2     		uxtb	r0, r5
 913 00c0 FFF7FEFF 		bl	LCD_WR_DATA
 914              	.LVL91:
 231:Src/bsp_tftlcd.c **** 		}	
ARM GAS  /tmp/cco7znPM.s 			page 22


 915              		.loc 1 231 0
 916 00c4 3088     		ldrh	r0, [r6]
 917 00c6 0138     		subs	r0, r0, #1
 918 00c8 C0F30F20 		ubfx	r0, r0, #8, #16
 919 00cc FFF7FEFF 		bl	LCD_WR_DATA
 920              	.LVL92:
 921 00d0 3088     		ldrh	r0, [r6]
 922 00d2 0138     		subs	r0, r0, #1
 923 00d4 C0B2     		uxtb	r0, r0
 924 00d6 FFF7FEFF 		bl	LCD_WR_DATA
 925              	.LVL93:
 926 00da D3E7     		b	.L76
 927              	.LVL94:
 928              	.L79:
 238:Src/bsp_tftlcd.c **** 	{
 239:Src/bsp_tftlcd.c **** 		LCD_WR_REG(lcddev.setxcmd);LCD_WR_DATA(Xpos>>8); 		
 929              		.loc 1 239 0
 930 00dc 0E4E     		ldr	r6, .L80
 931 00de 7089     		ldrh	r0, [r6, #10]
 932              	.LVL95:
 933 00e0 FFF7FEFF 		bl	LCD_WR_REG
 934              	.LVL96:
 935 00e4 280A     		lsrs	r0, r5, #8
 936 00e6 FFF7FEFF 		bl	LCD_WR_DATA
 937              	.LVL97:
 240:Src/bsp_tftlcd.c **** 		LCD_WR_REG(lcddev.setxcmd+1);LCD_WR_DATA(Xpos&0XFF);			 
 938              		.loc 1 240 0
 939 00ea 7089     		ldrh	r0, [r6, #10]
 940 00ec 0130     		adds	r0, r0, #1
 941 00ee 80B2     		uxth	r0, r0
 942 00f0 FFF7FEFF 		bl	LCD_WR_REG
 943              	.LVL98:
 944 00f4 E8B2     		uxtb	r0, r5
 945 00f6 FFF7FEFF 		bl	LCD_WR_DATA
 946              	.LVL99:
 241:Src/bsp_tftlcd.c **** 		LCD_WR_REG(lcddev.setycmd);LCD_WR_DATA(Ypos>>8);  		
 947              		.loc 1 241 0
 948 00fa B089     		ldrh	r0, [r6, #12]
 949 00fc FFF7FEFF 		bl	LCD_WR_REG
 950              	.LVL100:
 951 0100 200A     		lsrs	r0, r4, #8
 952 0102 FFF7FEFF 		bl	LCD_WR_DATA
 953              	.LVL101:
 242:Src/bsp_tftlcd.c **** 		LCD_WR_REG(lcddev.setycmd+1);LCD_WR_DATA(Ypos&0XFF);			
 954              		.loc 1 242 0
 955 0106 B089     		ldrh	r0, [r6, #12]
 956 0108 0130     		adds	r0, r0, #1
 957 010a 80B2     		uxth	r0, r0
 958 010c FFF7FEFF 		bl	LCD_WR_REG
 959              	.LVL102:
 960 0110 E0B2     		uxtb	r0, r4
 961 0112 FFF7FEFF 		bl	LCD_WR_DATA
 962              	.LVL103:
 243:Src/bsp_tftlcd.c **** 	} 
 244:Src/bsp_tftlcd.c **** } 		 
 963              		.loc 1 244 0
 964 0116 88E7     		b	.L70
ARM GAS  /tmp/cco7znPM.s 			page 23


 965              	.L81:
 966              		.align	2
 967              	.L80:
 968 0118 00000000 		.word	lcddev
 969              		.cfi_endproc
 970              	.LFE131:
 972              		.section	.text.LCD_DrawPoint,"ax",%progbits
 973              		.align	1
 974              		.global	LCD_DrawPoint
 975              		.syntax unified
 976              		.thumb
 977              		.thumb_func
 978              		.fpu fpv4-sp-d16
 980              	LCD_DrawPoint:
 981              	.LFB132:
 245:Src/bsp_tftlcd.c **** //ÁîªÁÇπ
 246:Src/bsp_tftlcd.c **** //x,y:ÂùêÊ†á
 247:Src/bsp_tftlcd.c **** //POINT_COLOR:Ê≠§ÁÇπÁöÑÈ¢úËâ≤
 248:Src/bsp_tftlcd.c **** void LCD_DrawPoint(uint16_t x,uint16_t y)
 249:Src/bsp_tftlcd.c **** { 
 982              		.loc 1 249 0
 983              		.cfi_startproc
 984              		@ args = 0, pretend = 0, frame = 0
 985              		@ frame_needed = 0, uses_anonymous_args = 0
 986              	.LVL104:
 987 0000 08B5     		push	{r3, lr}
 988              	.LCFI7:
 989              		.cfi_def_cfa_offset 8
 990              		.cfi_offset 3, -8
 991              		.cfi_offset 14, -4
 250:Src/bsp_tftlcd.c **** 	LCD_SetCursor(x,y);		//ËÆæÁΩÆÂÖâÊ†á‰ΩçÁΩÆ 
 992              		.loc 1 250 0
 993 0002 FFF7FEFF 		bl	LCD_SetCursor
 994              	.LVL105:
 251:Src/bsp_tftlcd.c **** 	LCD_WriteRAM_Prepare();	//ÂºÄÂßãÂÜôÂÖ•GRAM
 995              		.loc 1 251 0
 996 0006 FFF7FEFF 		bl	LCD_WriteRAM_Prepare
 997              	.LVL106:
 252:Src/bsp_tftlcd.c **** 	LCD_WR_DATA(POINT_COLOR);
 998              		.loc 1 252 0
 999 000a 024B     		ldr	r3, .L84
 1000 000c 1888     		ldrh	r0, [r3]
 1001 000e FFF7FEFF 		bl	LCD_WR_DATA
 1002              	.LVL107:
 1003 0012 08BD     		pop	{r3, pc}
 1004              	.L85:
 1005              		.align	2
 1006              	.L84:
 1007 0014 00000000 		.word	.LANCHOR0
 1008              		.cfi_endproc
 1009              	.LFE132:
 1011              		.section	.text.LCD_Fast_DrawPoint,"ax",%progbits
 1012              		.align	1
 1013              		.global	LCD_Fast_DrawPoint
 1014              		.syntax unified
 1015              		.thumb
 1016              		.thumb_func
ARM GAS  /tmp/cco7znPM.s 			page 24


 1017              		.fpu fpv4-sp-d16
 1019              	LCD_Fast_DrawPoint:
 1020              	.LFB133:
 253:Src/bsp_tftlcd.c **** 	//LCD->LCD_RAM=POINT_COLOR;  
 254:Src/bsp_tftlcd.c **** }
 255:Src/bsp_tftlcd.c **** //Âø´ÈÄüÁîªÁÇπ
 256:Src/bsp_tftlcd.c **** //x,y:ÂùêÊ†á
 257:Src/bsp_tftlcd.c **** //color:È¢úËâ≤
 258:Src/bsp_tftlcd.c **** void LCD_Fast_DrawPoint(uint16_t x,uint16_t y,uint32_t color)
 259:Src/bsp_tftlcd.c **** {	   
 1021              		.loc 1 259 0
 1022              		.cfi_startproc
 1023              		@ args = 0, pretend = 0, frame = 0
 1024              		@ frame_needed = 0, uses_anonymous_args = 0
 1025              	.LVL108:
 1026 0000 2DE9F041 		push	{r4, r5, r6, r7, r8, lr}
 1027              	.LCFI8:
 1028              		.cfi_def_cfa_offset 24
 1029              		.cfi_offset 4, -24
 1030              		.cfi_offset 5, -20
 1031              		.cfi_offset 6, -16
 1032              		.cfi_offset 7, -12
 1033              		.cfi_offset 8, -8
 1034              		.cfi_offset 14, -4
 1035 0004 0446     		mov	r4, r0
 1036 0006 0D46     		mov	r5, r1
 1037 0008 1646     		mov	r6, r2
 260:Src/bsp_tftlcd.c **** 	if(lcddev.id==0X9341||lcddev.id==0X5310)
 1038              		.loc 1 260 0
 1039 000a 3D4B     		ldr	r3, .L95
 1040 000c 9B88     		ldrh	r3, [r3, #4]
 1041 000e 49F24132 		movw	r2, #37697
 1042              	.LVL109:
 1043 0012 9342     		cmp	r3, r2
 1044 0014 14D0     		beq	.L87
 1045              		.loc 1 260 0 is_stmt 0 discriminator 1
 1046 0016 45F21032 		movw	r2, #21264
 1047 001a 9342     		cmp	r3, r2
 1048 001c 10D0     		beq	.L87
 261:Src/bsp_tftlcd.c **** 	{
 262:Src/bsp_tftlcd.c **** 		LCD_WR_REG(lcddev.setxcmd); 
 263:Src/bsp_tftlcd.c **** 		LCD_WR_DATA(x>>8);LCD_WR_DATA(x&0XFF);  			 
 264:Src/bsp_tftlcd.c **** 		LCD_WR_REG(lcddev.setycmd); 
 265:Src/bsp_tftlcd.c **** 		LCD_WR_DATA(y>>8);LCD_WR_DATA(y&0XFF); 		 	 
 266:Src/bsp_tftlcd.c **** 	}else if(lcddev.id==0X5510)
 1049              		.loc 1 266 0 is_stmt 1
 1050 001e 45F21052 		movw	r2, #21776
 1051 0022 9342     		cmp	r3, r2
 1052 0024 20D0     		beq	.L93
 267:Src/bsp_tftlcd.c **** 	{
 268:Src/bsp_tftlcd.c **** 		LCD_WR_REG(lcddev.setxcmd);LCD_WR_DATA(x>>8);  
 269:Src/bsp_tftlcd.c **** 		LCD_WR_REG(lcddev.setxcmd+1);LCD_WR_DATA(x&0XFF);	  
 270:Src/bsp_tftlcd.c **** 		LCD_WR_REG(lcddev.setycmd);LCD_WR_DATA(y>>8);  
 271:Src/bsp_tftlcd.c **** 		LCD_WR_REG(lcddev.setycmd+1);LCD_WR_DATA(y&0XFF); 
 272:Src/bsp_tftlcd.c **** 	}else if(lcddev.id==0X1963)
 1053              		.loc 1 272 0
 1054 0026 41F66312 		movw	r2, #6499
ARM GAS  /tmp/cco7znPM.s 			page 25


 1055 002a 9342     		cmp	r3, r2
 1056 002c 3AD0     		beq	.L94
 1057              	.LVL110:
 1058              	.L89:
 273:Src/bsp_tftlcd.c **** 	{
 274:Src/bsp_tftlcd.c **** 		if(lcddev.dir==0)x=lcddev.width-1-x;
 275:Src/bsp_tftlcd.c **** 		LCD_WR_REG(lcddev.setxcmd); 
 276:Src/bsp_tftlcd.c **** 		LCD_WR_DATA(x>>8);LCD_WR_DATA(x&0XFF); 		
 277:Src/bsp_tftlcd.c **** 		LCD_WR_DATA(x>>8);LCD_WR_DATA(x&0XFF); 		
 278:Src/bsp_tftlcd.c **** 		LCD_WR_REG(lcddev.setycmd); 
 279:Src/bsp_tftlcd.c **** 		LCD_WR_DATA(y>>8);LCD_WR_DATA(y&0XFF); 		
 280:Src/bsp_tftlcd.c **** 		LCD_WR_DATA(y>>8);LCD_WR_DATA(y&0XFF); 		
 281:Src/bsp_tftlcd.c **** 	}		 
 282:Src/bsp_tftlcd.c **** 	LCD_WR_REG(lcddev.wramcmd); 
 1059              		.loc 1 282 0
 1060 002e 344B     		ldr	r3, .L95
 1061 0030 1889     		ldrh	r0, [r3, #8]
 1062 0032 FFF7FEFF 		bl	LCD_WR_REG
 1063              	.LVL111:
 283:Src/bsp_tftlcd.c **** 	LCD_WR_DATA(color); 
 1064              		.loc 1 283 0
 1065 0036 B0B2     		uxth	r0, r6
 1066 0038 FFF7FEFF 		bl	LCD_WR_DATA
 1067              	.LVL112:
 1068 003c BDE8F081 		pop	{r4, r5, r6, r7, r8, pc}
 1069              	.LVL113:
 1070              	.L87:
 262:Src/bsp_tftlcd.c **** 		LCD_WR_DATA(x>>8);LCD_WR_DATA(x&0XFF);  			 
 1071              		.loc 1 262 0
 1072 0040 2F4F     		ldr	r7, .L95
 1073 0042 7889     		ldrh	r0, [r7, #10]
 1074              	.LVL114:
 1075 0044 FFF7FEFF 		bl	LCD_WR_REG
 1076              	.LVL115:
 263:Src/bsp_tftlcd.c **** 		LCD_WR_REG(lcddev.setycmd); 
 1077              		.loc 1 263 0
 1078 0048 200A     		lsrs	r0, r4, #8
 1079 004a FFF7FEFF 		bl	LCD_WR_DATA
 1080              	.LVL116:
 1081 004e E0B2     		uxtb	r0, r4
 1082 0050 FFF7FEFF 		bl	LCD_WR_DATA
 1083              	.LVL117:
 264:Src/bsp_tftlcd.c **** 		LCD_WR_DATA(y>>8);LCD_WR_DATA(y&0XFF); 		 	 
 1084              		.loc 1 264 0
 1085 0054 B889     		ldrh	r0, [r7, #12]
 1086 0056 FFF7FEFF 		bl	LCD_WR_REG
 1087              	.LVL118:
 265:Src/bsp_tftlcd.c **** 	}else if(lcddev.id==0X5510)
 1088              		.loc 1 265 0
 1089 005a 280A     		lsrs	r0, r5, #8
 1090 005c FFF7FEFF 		bl	LCD_WR_DATA
 1091              	.LVL119:
 1092 0060 E8B2     		uxtb	r0, r5
 1093 0062 FFF7FEFF 		bl	LCD_WR_DATA
 1094              	.LVL120:
 1095 0066 E2E7     		b	.L89
 1096              	.LVL121:
ARM GAS  /tmp/cco7znPM.s 			page 26


 1097              	.L93:
 268:Src/bsp_tftlcd.c **** 		LCD_WR_REG(lcddev.setxcmd+1);LCD_WR_DATA(x&0XFF);	  
 1098              		.loc 1 268 0
 1099 0068 254F     		ldr	r7, .L95
 1100 006a 7889     		ldrh	r0, [r7, #10]
 1101              	.LVL122:
 1102 006c FFF7FEFF 		bl	LCD_WR_REG
 1103              	.LVL123:
 1104 0070 200A     		lsrs	r0, r4, #8
 1105 0072 FFF7FEFF 		bl	LCD_WR_DATA
 1106              	.LVL124:
 269:Src/bsp_tftlcd.c **** 		LCD_WR_REG(lcddev.setycmd);LCD_WR_DATA(y>>8);  
 1107              		.loc 1 269 0
 1108 0076 7889     		ldrh	r0, [r7, #10]
 1109 0078 0130     		adds	r0, r0, #1
 1110 007a 80B2     		uxth	r0, r0
 1111 007c FFF7FEFF 		bl	LCD_WR_REG
 1112              	.LVL125:
 1113 0080 E0B2     		uxtb	r0, r4
 1114 0082 FFF7FEFF 		bl	LCD_WR_DATA
 1115              	.LVL126:
 270:Src/bsp_tftlcd.c **** 		LCD_WR_REG(lcddev.setycmd+1);LCD_WR_DATA(y&0XFF); 
 1116              		.loc 1 270 0
 1117 0086 B889     		ldrh	r0, [r7, #12]
 1118 0088 FFF7FEFF 		bl	LCD_WR_REG
 1119              	.LVL127:
 1120 008c 280A     		lsrs	r0, r5, #8
 1121 008e FFF7FEFF 		bl	LCD_WR_DATA
 1122              	.LVL128:
 271:Src/bsp_tftlcd.c **** 	}else if(lcddev.id==0X1963)
 1123              		.loc 1 271 0
 1124 0092 B889     		ldrh	r0, [r7, #12]
 1125 0094 0130     		adds	r0, r0, #1
 1126 0096 80B2     		uxth	r0, r0
 1127 0098 FFF7FEFF 		bl	LCD_WR_REG
 1128              	.LVL129:
 1129 009c E8B2     		uxtb	r0, r5
 1130 009e FFF7FEFF 		bl	LCD_WR_DATA
 1131              	.LVL130:
 1132 00a2 C4E7     		b	.L89
 1133              	.LVL131:
 1134              	.L94:
 274:Src/bsp_tftlcd.c **** 		LCD_WR_REG(lcddev.setxcmd); 
 1135              		.loc 1 274 0
 1136 00a4 164B     		ldr	r3, .L95
 1137 00a6 9B79     		ldrb	r3, [r3, #6]	@ zero_extendqisi2
 1138 00a8 2BB9     		cbnz	r3, .L91
 274:Src/bsp_tftlcd.c **** 		LCD_WR_REG(lcddev.setxcmd); 
 1139              		.loc 1 274 0 is_stmt 0 discriminator 1
 1140 00aa 154B     		ldr	r3, .L95
 1141 00ac 1B88     		ldrh	r3, [r3]
 1142 00ae 1C1A     		subs	r4, r3, r0
 1143 00b0 A4B2     		uxth	r4, r4
 1144 00b2 013C     		subs	r4, r4, #1
 1145 00b4 A4B2     		uxth	r4, r4
 1146              	.LVL132:
 1147              	.L91:
ARM GAS  /tmp/cco7znPM.s 			page 27


 275:Src/bsp_tftlcd.c **** 		LCD_WR_DATA(x>>8);LCD_WR_DATA(x&0XFF); 		
 1148              		.loc 1 275 0 is_stmt 1
 1149 00b6 124F     		ldr	r7, .L95
 1150 00b8 7889     		ldrh	r0, [r7, #10]
 1151 00ba FFF7FEFF 		bl	LCD_WR_REG
 1152              	.LVL133:
 276:Src/bsp_tftlcd.c **** 		LCD_WR_DATA(x>>8);LCD_WR_DATA(x&0XFF); 		
 1153              		.loc 1 276 0
 1154 00be 4FEA1428 		lsr	r8, r4, #8
 1155 00c2 4046     		mov	r0, r8
 1156 00c4 FFF7FEFF 		bl	LCD_WR_DATA
 1157              	.LVL134:
 1158 00c8 E4B2     		uxtb	r4, r4
 1159              	.LVL135:
 1160 00ca 2046     		mov	r0, r4
 1161 00cc FFF7FEFF 		bl	LCD_WR_DATA
 1162              	.LVL136:
 277:Src/bsp_tftlcd.c **** 		LCD_WR_REG(lcddev.setycmd); 
 1163              		.loc 1 277 0
 1164 00d0 4046     		mov	r0, r8
 1165 00d2 FFF7FEFF 		bl	LCD_WR_DATA
 1166              	.LVL137:
 1167 00d6 2046     		mov	r0, r4
 1168 00d8 FFF7FEFF 		bl	LCD_WR_DATA
 1169              	.LVL138:
 278:Src/bsp_tftlcd.c **** 		LCD_WR_DATA(y>>8);LCD_WR_DATA(y&0XFF); 		
 1170              		.loc 1 278 0
 1171 00dc B889     		ldrh	r0, [r7, #12]
 1172 00de FFF7FEFF 		bl	LCD_WR_REG
 1173              	.LVL139:
 279:Src/bsp_tftlcd.c **** 		LCD_WR_DATA(y>>8);LCD_WR_DATA(y&0XFF); 		
 1174              		.loc 1 279 0
 1175 00e2 2C0A     		lsrs	r4, r5, #8
 1176 00e4 2046     		mov	r0, r4
 1177 00e6 FFF7FEFF 		bl	LCD_WR_DATA
 1178              	.LVL140:
 1179 00ea EDB2     		uxtb	r5, r5
 1180 00ec 2846     		mov	r0, r5
 1181 00ee FFF7FEFF 		bl	LCD_WR_DATA
 1182              	.LVL141:
 280:Src/bsp_tftlcd.c **** 	}		 
 1183              		.loc 1 280 0
 1184 00f2 2046     		mov	r0, r4
 1185 00f4 FFF7FEFF 		bl	LCD_WR_DATA
 1186              	.LVL142:
 1187 00f8 2846     		mov	r0, r5
 1188 00fa FFF7FEFF 		bl	LCD_WR_DATA
 1189              	.LVL143:
 1190 00fe 96E7     		b	.L89
 1191              	.L96:
 1192              		.align	2
 1193              	.L95:
 1194 0100 00000000 		.word	lcddev
 1195              		.cfi_endproc
 1196              	.LFE133:
 1198              		.section	.text.LCD_Clear,"ax",%progbits
 1199              		.align	1
ARM GAS  /tmp/cco7znPM.s 			page 28


 1200              		.global	LCD_Clear
 1201              		.syntax unified
 1202              		.thumb
 1203              		.thumb_func
 1204              		.fpu fpv4-sp-d16
 1206              	LCD_Clear:
 1207              	.LFB134:
 284:Src/bsp_tftlcd.c **** }
 285:Src/bsp_tftlcd.c **** //Ê∏ÖÂ±èÂáΩÊï∞
 286:Src/bsp_tftlcd.c **** //color:Ë¶ÅÊ∏ÖÂ±èÁöÑÂ°´ÂÖÖËâ≤
 287:Src/bsp_tftlcd.c **** void LCD_Clear(uint32_t color)
 288:Src/bsp_tftlcd.c **** {
 1208              		.loc 1 288 0
 1209              		.cfi_startproc
 1210              		@ args = 0, pretend = 0, frame = 0
 1211              		@ frame_needed = 0, uses_anonymous_args = 0
 1212              	.LVL144:
 1213 0000 70B5     		push	{r4, r5, r6, lr}
 1214              	.LCFI9:
 1215              		.cfi_def_cfa_offset 16
 1216              		.cfi_offset 4, -16
 1217              		.cfi_offset 5, -12
 1218              		.cfi_offset 6, -8
 1219              		.cfi_offset 14, -4
 1220 0002 0646     		mov	r6, r0
 1221              	.LVL145:
 289:Src/bsp_tftlcd.c **** 	uint32_t index=0;      
 290:Src/bsp_tftlcd.c **** 	uint32_t totalpoint=lcddev.width; 
 1222              		.loc 1 290 0
 1223 0004 094B     		ldr	r3, .L101
 1224 0006 1A88     		ldrh	r2, [r3]
 1225              	.LVL146:
 291:Src/bsp_tftlcd.c **** 	totalpoint*=lcddev.height; 			//ÂæóÂà∞ÊÄªÁÇπÊï∞
 1226              		.loc 1 291 0
 1227 0008 5D88     		ldrh	r5, [r3, #2]
 1228 000a 05FB02F5 		mul	r5, r5, r2
 1229              	.LVL147:
 292:Src/bsp_tftlcd.c **** 	LCD_SetCursor(0x00,0x0000);			//ËÆæÁΩÆÂÖâÊ†á‰ΩçÁΩÆ 
 1230              		.loc 1 292 0
 1231 000e 0021     		movs	r1, #0
 1232 0010 0846     		mov	r0, r1
 1233              	.LVL148:
 1234 0012 FFF7FEFF 		bl	LCD_SetCursor
 1235              	.LVL149:
 293:Src/bsp_tftlcd.c **** 	LCD_WriteRAM_Prepare();     		//ÂºÄÂßãÂÜôÂÖ•GRAM	 	  
 1236              		.loc 1 293 0
 1237 0016 FFF7FEFF 		bl	LCD_WriteRAM_Prepare
 1238              	.LVL150:
 294:Src/bsp_tftlcd.c **** 	for(index=0;index<totalpoint;index++)
 1239              		.loc 1 294 0
 1240 001a 0024     		movs	r4, #0
 1241 001c 03E0     		b	.L98
 1242              	.LVL151:
 1243              	.L99:
 295:Src/bsp_tftlcd.c **** 	{
 296:Src/bsp_tftlcd.c **** 		LCD_WR_DATA(color);
 1244              		.loc 1 296 0 discriminator 3
ARM GAS  /tmp/cco7znPM.s 			page 29


 1245 001e B0B2     		uxth	r0, r6
 1246 0020 FFF7FEFF 		bl	LCD_WR_DATA
 1247              	.LVL152:
 294:Src/bsp_tftlcd.c **** 	for(index=0;index<totalpoint;index++)
 1248              		.loc 1 294 0 discriminator 3
 1249 0024 0134     		adds	r4, r4, #1
 1250              	.LVL153:
 1251              	.L98:
 294:Src/bsp_tftlcd.c **** 	for(index=0;index<totalpoint;index++)
 1252              		.loc 1 294 0 is_stmt 0 discriminator 1
 1253 0026 AC42     		cmp	r4, r5
 1254 0028 F9D3     		bcc	.L99
 297:Src/bsp_tftlcd.c **** 		//LCD->LCD_RAM=color;	
 298:Src/bsp_tftlcd.c **** 	} 
 299:Src/bsp_tftlcd.c **** }  
 1255              		.loc 1 299 0 is_stmt 1
 1256 002a 70BD     		pop	{r4, r5, r6, pc}
 1257              	.LVL154:
 1258              	.L102:
 1259              		.align	2
 1260              	.L101:
 1261 002c 00000000 		.word	lcddev
 1262              		.cfi_endproc
 1263              	.LFE134:
 1265              		.section	.text.HAL_SRAM_MspInit,"ax",%progbits
 1266              		.align	1
 1267              		.global	HAL_SRAM_MspInit
 1268              		.syntax unified
 1269              		.thumb
 1270              		.thumb_func
 1271              		.fpu fpv4-sp-d16
 1273              	HAL_SRAM_MspInit:
 1274              	.LFB135:
 300:Src/bsp_tftlcd.c **** 
 301:Src/bsp_tftlcd.c **** void HAL_SRAM_MspInit(SRAM_HandleTypeDef *hsram)
 302:Src/bsp_tftlcd.c **** {	
 1275              		.loc 1 302 0
 1276              		.cfi_startproc
 1277              		@ args = 0, pretend = 0, frame = 40
 1278              		@ frame_needed = 0, uses_anonymous_args = 0
 1279              	.LVL155:
 1280 0000 30B5     		push	{r4, r5, lr}
 1281              	.LCFI10:
 1282              		.cfi_def_cfa_offset 12
 1283              		.cfi_offset 4, -12
 1284              		.cfi_offset 5, -8
 1285              		.cfi_offset 14, -4
 1286 0002 8BB0     		sub	sp, sp, #44
 1287              	.LCFI11:
 1288              		.cfi_def_cfa_offset 56
 1289              	.LBB2:
 303:Src/bsp_tftlcd.c **** 	GPIO_InitTypeDef GPIO_Initure;
 304:Src/bsp_tftlcd.c **** 	
 305:Src/bsp_tftlcd.c **** 	__HAL_RCC_FMC_CLK_ENABLE();				//‰ΩøËÉΩFMCÊó∂Èíü
 1290              		.loc 1 305 0
 1291 0004 0022     		movs	r2, #0
 1292 0006 0192     		str	r2, [sp, #4]
ARM GAS  /tmp/cco7znPM.s 			page 30


 1293 0008 244B     		ldr	r3, .L105
 1294 000a 996B     		ldr	r1, [r3, #56]
 1295 000c 41F00101 		orr	r1, r1, #1
 1296 0010 9963     		str	r1, [r3, #56]
 1297 0012 996B     		ldr	r1, [r3, #56]
 1298 0014 01F00101 		and	r1, r1, #1
 1299 0018 0191     		str	r1, [sp, #4]
 1300 001a 0199     		ldr	r1, [sp, #4]
 1301              	.LBE2:
 1302              	.LBB3:
 306:Src/bsp_tftlcd.c ****     __HAL_RCC_GPIOB_CLK_ENABLE();			//‰ΩøËÉΩGPIOBÊó∂Èíü
 1303              		.loc 1 306 0
 1304 001c 0292     		str	r2, [sp, #8]
 1305 001e 196B     		ldr	r1, [r3, #48]
 1306 0020 41F00201 		orr	r1, r1, #2
 1307 0024 1963     		str	r1, [r3, #48]
 1308 0026 196B     		ldr	r1, [r3, #48]
 1309 0028 01F00201 		and	r1, r1, #2
 1310 002c 0291     		str	r1, [sp, #8]
 1311 002e 0299     		ldr	r1, [sp, #8]
 1312              	.LBE3:
 1313              	.LBB4:
 307:Src/bsp_tftlcd.c **** 	__HAL_RCC_GPIOD_CLK_ENABLE();			//‰ΩøËÉΩGPIODÊó∂Èíü
 1314              		.loc 1 307 0
 1315 0030 0392     		str	r2, [sp, #12]
 1316 0032 196B     		ldr	r1, [r3, #48]
 1317 0034 41F00801 		orr	r1, r1, #8
 1318 0038 1963     		str	r1, [r3, #48]
 1319 003a 196B     		ldr	r1, [r3, #48]
 1320 003c 01F00801 		and	r1, r1, #8
 1321 0040 0391     		str	r1, [sp, #12]
 1322 0042 0399     		ldr	r1, [sp, #12]
 1323              	.LBE4:
 1324              	.LBB5:
 308:Src/bsp_tftlcd.c **** 	__HAL_RCC_GPIOE_CLK_ENABLE();			//‰ΩøËÉΩGPIOEÊó∂Èíü
 1325              		.loc 1 308 0
 1326 0044 0492     		str	r2, [sp, #16]
 1327 0046 1A6B     		ldr	r2, [r3, #48]
 1328 0048 42F01002 		orr	r2, r2, #16
 1329 004c 1A63     		str	r2, [r3, #48]
 1330 004e 1B6B     		ldr	r3, [r3, #48]
 1331 0050 03F01003 		and	r3, r3, #16
 1332 0054 0493     		str	r3, [sp, #16]
 1333 0056 049B     		ldr	r3, [sp, #16]
 1334              	.LBE5:
 309:Src/bsp_tftlcd.c **** 	
 310:Src/bsp_tftlcd.c **** 	//ÂàùÂßãÂåñPD0,1,4,5,7,8,9,10,13,14,15
 311:Src/bsp_tftlcd.c **** 	GPIO_Initure.Pin=GPIO_PIN_0|GPIO_PIN_1|GPIO_PIN_4|GPIO_PIN_5|GPIO_PIN_7|GPIO_PIN_8|\
 1335              		.loc 1 311 0
 1336 0058 4EF2B373 		movw	r3, #59315
 1337 005c 0593     		str	r3, [sp, #20]
 312:Src/bsp_tftlcd.c ****                      GPIO_PIN_9|GPIO_PIN_10|GPIO_PIN_13|GPIO_PIN_14|GPIO_PIN_15;
 313:Src/bsp_tftlcd.c **** 	GPIO_Initure.Mode=GPIO_MODE_AF_PP; 		//Êé®ÊåΩÂ§çÁî®
 1338              		.loc 1 313 0
 1339 005e 0223     		movs	r3, #2
 1340 0060 0693     		str	r3, [sp, #24]
 314:Src/bsp_tftlcd.c **** 	GPIO_Initure.Pull=GPIO_PULLUP;			//‰∏äÊãâ
ARM GAS  /tmp/cco7znPM.s 			page 31


 1341              		.loc 1 314 0
 1342 0062 0124     		movs	r4, #1
 1343 0064 0794     		str	r4, [sp, #28]
 315:Src/bsp_tftlcd.c **** 	GPIO_Initure.Speed=GPIO_SPEED_HIGH;		//È´òÈÄü
 1344              		.loc 1 315 0
 1345 0066 0325     		movs	r5, #3
 1346 0068 0895     		str	r5, [sp, #32]
 316:Src/bsp_tftlcd.c **** 	GPIO_Initure.Alternate=GPIO_AF12_FMC;	//Â§çÁî®‰∏∫FMC
 1347              		.loc 1 316 0
 1348 006a 0C23     		movs	r3, #12
 1349 006c 0993     		str	r3, [sp, #36]
 317:Src/bsp_tftlcd.c **** 	HAL_GPIO_Init(GPIOD,&GPIO_Initure);     //ÂàùÂßãÂåñ
 1350              		.loc 1 317 0
 1351 006e 05A9     		add	r1, sp, #20
 1352 0070 0B48     		ldr	r0, .L105+4
 1353              	.LVL156:
 1354 0072 FFF7FEFF 		bl	HAL_GPIO_Init
 1355              	.LVL157:
 318:Src/bsp_tftlcd.c **** 	
 319:Src/bsp_tftlcd.c **** 	//ÂàùÂßãÂåñPE7,8,9,10,11,12,13,14,15
 320:Src/bsp_tftlcd.c **** 	GPIO_Initure.Pin=GPIO_PIN_7|GPIO_PIN_8|GPIO_PIN_9|GPIO_PIN_10|GPIO_PIN_11|\
 1356              		.loc 1 320 0
 1357 0076 4FF68073 		movw	r3, #65408
 1358 007a 0593     		str	r3, [sp, #20]
 321:Src/bsp_tftlcd.c ****                      GPIO_PIN_12|GPIO_PIN_13|GPIO_PIN_14|GPIO_PIN_15;
 322:Src/bsp_tftlcd.c **** 	HAL_GPIO_Init(GPIOE,&GPIO_Initure);
 1359              		.loc 1 322 0
 1360 007c 05A9     		add	r1, sp, #20
 1361 007e 0948     		ldr	r0, .L105+8
 1362 0080 FFF7FEFF 		bl	HAL_GPIO_Init
 1363              	.LVL158:
 323:Src/bsp_tftlcd.c **** 
 324:Src/bsp_tftlcd.c **** 
 325:Src/bsp_tftlcd.c **** 	GPIO_Initure.Pin=GPIO_PIN_5;            //PB5,ËÉåÂÖâÊéßÂà∂
 1364              		.loc 1 325 0
 1365 0084 2023     		movs	r3, #32
 1366 0086 0593     		str	r3, [sp, #20]
 326:Src/bsp_tftlcd.c **** 	GPIO_Initure.Mode=GPIO_MODE_OUTPUT_PP;  //Êé®ÊåΩËæìÂá∫
 1367              		.loc 1 326 0
 1368 0088 0694     		str	r4, [sp, #24]
 327:Src/bsp_tftlcd.c **** 	GPIO_Initure.Pull=GPIO_PULLUP;          //‰∏äÊãâ
 1369              		.loc 1 327 0
 1370 008a 0794     		str	r4, [sp, #28]
 328:Src/bsp_tftlcd.c **** 	GPIO_Initure.Speed=GPIO_SPEED_HIGH;     //È´òÈÄü
 1371              		.loc 1 328 0
 1372 008c 0895     		str	r5, [sp, #32]
 329:Src/bsp_tftlcd.c **** 	HAL_GPIO_Init(GPIOB,&GPIO_Initure); 
 1373              		.loc 1 329 0
 1374 008e 05A9     		add	r1, sp, #20
 1375 0090 0548     		ldr	r0, .L105+12
 1376 0092 FFF7FEFF 		bl	HAL_GPIO_Init
 1377              	.LVL159:
 330:Src/bsp_tftlcd.c **** }
 1378              		.loc 1 330 0
 1379 0096 0BB0     		add	sp, sp, #44
 1380              	.LCFI12:
 1381              		.cfi_def_cfa_offset 12
ARM GAS  /tmp/cco7znPM.s 			page 32


 1382              		@ sp needed
 1383 0098 30BD     		pop	{r4, r5, pc}
 1384              	.L106:
 1385 009a 00BF     		.align	2
 1386              	.L105:
 1387 009c 00380240 		.word	1073887232
 1388 00a0 000C0240 		.word	1073875968
 1389 00a4 00100240 		.word	1073876992
 1390 00a8 00040240 		.word	1073873920
 1391              		.cfi_endproc
 1392              	.LFE135:
 1394              		.section	.text.LCD_Init,"ax",%progbits
 1395              		.align	1
 1396              		.global	LCD_Init
 1397              		.syntax unified
 1398              		.thumb
 1399              		.thumb_func
 1400              		.fpu fpv4-sp-d16
 1402              	LCD_Init:
 1403              	.LFB136:
 331:Src/bsp_tftlcd.c **** 
 332:Src/bsp_tftlcd.c **** 
 333:Src/bsp_tftlcd.c **** void LCD_Init(void)
 334:Src/bsp_tftlcd.c **** {
 1404              		.loc 1 334 0
 1405              		.cfi_startproc
 1406              		@ args = 0, pretend = 0, frame = 56
 1407              		@ frame_needed = 0, uses_anonymous_args = 0
 1408 0000 10B5     		push	{r4, lr}
 1409              	.LCFI13:
 1410              		.cfi_def_cfa_offset 8
 1411              		.cfi_offset 4, -8
 1412              		.cfi_offset 14, -4
 1413 0002 8EB0     		sub	sp, sp, #56
 1414              	.LCFI14:
 1415              		.cfi_def_cfa_offset 64
 335:Src/bsp_tftlcd.c ****     FMC_NORSRAM_TimingTypeDef FMC_ReadWriteTim;
 336:Src/bsp_tftlcd.c **** 	FMC_NORSRAM_TimingTypeDef FMC_WriteTim;
 337:Src/bsp_tftlcd.c **** 
 338:Src/bsp_tftlcd.c **** 	SRAM_Handler.Instance=FMC_NORSRAM_DEVICE;                
 1416              		.loc 1 338 0
 1417 0004 6F48     		ldr	r0, .L121
 1418 0006 4FF02043 		mov	r3, #-1610612736
 1419 000a 0360     		str	r3, [r0]
 339:Src/bsp_tftlcd.c **** 	SRAM_Handler.Extended=FMC_NORSRAM_EXTENDED_DEVICE;    
 1420              		.loc 1 339 0
 1421 000c 03F58273 		add	r3, r3, #260
 1422 0010 4360     		str	r3, [r0, #4]
 340:Src/bsp_tftlcd.c ****     
 341:Src/bsp_tftlcd.c **** 	SRAM_Handler.Init.NSBank=FMC_NORSRAM_BANK1;     //‰ΩøÁî®NE1
 1423              		.loc 1 341 0
 1424 0012 0023     		movs	r3, #0
 1425 0014 8360     		str	r3, [r0, #8]
 342:Src/bsp_tftlcd.c **** 	SRAM_Handler.Init.DataAddressMux=FMC_DATA_ADDRESS_MUX_DISABLE; //Âú∞ÂùÄ/Êï∞ÊçÆÁ∫ø‰∏çÂ§çÁî®
 1426              		.loc 1 342 0
 1427 0016 C360     		str	r3, [r0, #12]
 343:Src/bsp_tftlcd.c **** 	SRAM_Handler.Init.MemoryType=FMC_MEMORY_TYPE_SRAM;   //SRAM
ARM GAS  /tmp/cco7znPM.s 			page 33


 1428              		.loc 1 343 0
 1429 0018 0361     		str	r3, [r0, #16]
 344:Src/bsp_tftlcd.c **** 	SRAM_Handler.Init.MemoryDataWidth=FMC_NORSRAM_MEM_BUS_WIDTH_16; //16‰ΩçÊï∞ÊçÆÂÆΩÂ∫¶
 1430              		.loc 1 344 0
 1431 001a 1022     		movs	r2, #16
 1432 001c 4261     		str	r2, [r0, #20]
 345:Src/bsp_tftlcd.c **** 	SRAM_Handler.Init.BurstAccessMode=FMC_BURST_ACCESS_MODE_DISABLE; //ÊòØÂê¶‰ΩøËÉΩÁ™ÅÂèëËÆøÈóÆ,‰ªÖÂØπ
 1433              		.loc 1 345 0
 1434 001e 8361     		str	r3, [r0, #24]
 346:Src/bsp_tftlcd.c **** 	SRAM_Handler.Init.WaitSignalPolarity=FMC_WAIT_SIGNAL_POLARITY_LOW;//Á≠âÂæÖ‰ø°Âè∑ÁöÑÊûÅÊÄß,‰ªÖÂú®Á™
 1435              		.loc 1 346 0
 1436 0020 C361     		str	r3, [r0, #28]
 347:Src/bsp_tftlcd.c **** 	SRAM_Handler.Init.WaitSignalActive=FMC_WAIT_TIMING_BEFORE_WS;   //Â≠òÂÇ®Âô®ÊòØÂú®Á≠âÂæÖÂë®Êúü‰πãÂâ
 1437              		.loc 1 347 0
 1438 0022 4362     		str	r3, [r0, #36]
 348:Src/bsp_tftlcd.c **** 	SRAM_Handler.Init.WriteOperation=FMC_WRITE_OPERATION_ENABLE;    //Â≠òÂÇ®Âô®ÂÜô‰ΩøËÉΩ
 1439              		.loc 1 348 0
 1440 0024 4FF48052 		mov	r2, #4096
 1441 0028 8262     		str	r2, [r0, #40]
 349:Src/bsp_tftlcd.c **** 	SRAM_Handler.Init.WaitSignal=FMC_WAIT_SIGNAL_DISABLE;           //Á≠âÂæÖ‰ΩøËÉΩ‰Ωç,Ê≠§Â§ÑÊú™Áî®Âà∞
 1442              		.loc 1 349 0
 1443 002a C362     		str	r3, [r0, #44]
 350:Src/bsp_tftlcd.c **** 	SRAM_Handler.Init.ExtendedMode=FMC_EXTENDED_MODE_ENABLE;        //ËØªÂÜô‰ΩøÁî®‰∏çÂêåÁöÑÊó∂Â∫è
 1444              		.loc 1 350 0
 1445 002c 4FF48042 		mov	r2, #16384
 1446 0030 0263     		str	r2, [r0, #48]
 351:Src/bsp_tftlcd.c **** 	SRAM_Handler.Init.AsynchronousWait=FMC_ASYNCHRONOUS_WAIT_DISABLE;//ÊòØÂê¶‰ΩøËÉΩÂêåÊ≠•‰º†ËæìÊ®°Âºè‰
 1447              		.loc 1 351 0
 1448 0032 4363     		str	r3, [r0, #52]
 352:Src/bsp_tftlcd.c **** 	SRAM_Handler.Init.WriteBurst=FMC_WRITE_BURST_DISABLE;           //Á¶ÅÊ≠¢Á™ÅÂèëÂÜô
 1449              		.loc 1 352 0
 1450 0034 8363     		str	r3, [r0, #56]
 353:Src/bsp_tftlcd.c **** 	SRAM_Handler.Init.ContinuousClock=FMC_CONTINUOUS_CLOCK_SYNC_ASYNC;
 1451              		.loc 1 353 0
 1452 0036 4FF48012 		mov	r2, #1048576
 1453 003a C263     		str	r2, [r0, #60]
 354:Src/bsp_tftlcd.c ****     
 355:Src/bsp_tftlcd.c **** 	//FMCËØªÊó∂Â∫èÊéßÂà∂ÂØÑÂ≠òÂô®
 356:Src/bsp_tftlcd.c **** 	FMC_ReadWriteTim.AddressSetupTime=0x0F;        //Âú∞ÂùÄÂª∫Á´ãÊó∂Èó¥(ADDSET)‰∏∫15‰∏™HCLK 1/180M*15=
 1454              		.loc 1 356 0
 1455 003c 0F22     		movs	r2, #15
 1456 003e 0792     		str	r2, [sp, #28]
 357:Src/bsp_tftlcd.c **** 	FMC_ReadWriteTim.AddressHoldTime=0x00;
 1457              		.loc 1 357 0
 1458 0040 0893     		str	r3, [sp, #32]
 358:Src/bsp_tftlcd.c **** 	FMC_ReadWriteTim.DataSetupTime=0x46;           //Êï∞ÊçÆ‰øùÂ≠òÊó∂Èó¥(DATAST)‰∏∫70‰∏™HCLK	=5.5*70=38
 1459              		.loc 1 358 0
 1460 0042 4621     		movs	r1, #70
 1461 0044 0991     		str	r1, [sp, #36]
 359:Src/bsp_tftlcd.c **** 	FMC_ReadWriteTim.AccessMode=FMC_ACCESS_MODE_A; //Ê®°ÂºèA
 1462              		.loc 1 359 0
 1463 0046 0D93     		str	r3, [sp, #52]
 360:Src/bsp_tftlcd.c **** 	//FMCÂÜôÊó∂Â∫èÊéßÂà∂ÂØÑÂ≠òÂô®
 361:Src/bsp_tftlcd.c **** 	FMC_WriteTim.AddressSetupTime=0x0F;            //Âú∞ÂùÄÂª∫Á´ãÊó∂Èó¥(ADDSET)‰∏∫15‰∏™HCLK=82.5ns
 1464              		.loc 1 361 0
 1465 0048 0092     		str	r2, [sp]
 362:Src/bsp_tftlcd.c **** 	FMC_WriteTim.AddressHoldTime=0x00;
ARM GAS  /tmp/cco7znPM.s 			page 34


 1466              		.loc 1 362 0
 1467 004a 0193     		str	r3, [sp, #4]
 363:Src/bsp_tftlcd.c **** 	FMC_WriteTim.DataSetupTime=0x0F;               //Êï∞ÊçÆ‰øùÂ≠òÊó∂Èó¥(DATAST)‰∏∫5.5ns*15‰∏™HCLK=82.5
 1468              		.loc 1 363 0
 1469 004c 0292     		str	r2, [sp, #8]
 364:Src/bsp_tftlcd.c **** 	FMC_WriteTim.AccessMode=FMC_ACCESS_MODE_A;     //Ê®°ÂºèA
 1470              		.loc 1 364 0
 1471 004e 0693     		str	r3, [sp, #24]
 365:Src/bsp_tftlcd.c **** 	HAL_SRAM_Init(&SRAM_Handler,&FMC_ReadWriteTim,&FMC_WriteTim);
 1472              		.loc 1 365 0
 1473 0050 6A46     		mov	r2, sp
 1474 0052 07A9     		add	r1, sp, #28
 1475 0054 FFF7FEFF 		bl	HAL_SRAM_Init
 1476              	.LVL160:
 366:Src/bsp_tftlcd.c ****     HAL_Delay(50);
 1477              		.loc 1 366 0
 1478 0058 3220     		movs	r0, #50
 1479 005a FFF7FEFF 		bl	HAL_Delay
 1480              	.LVL161:
 367:Src/bsp_tftlcd.c **** 
 368:Src/bsp_tftlcd.c **** 	//Â∞ùËØï9341 IDÁöÑËØªÂèñ		
 369:Src/bsp_tftlcd.c **** 	LCD_WR_REG(0XD3);				   
 1481              		.loc 1 369 0
 1482 005e D320     		movs	r0, #211
 1483 0060 FFF7FEFF 		bl	LCD_WR_REG
 1484              	.LVL162:
 370:Src/bsp_tftlcd.c **** 	lcddev.id=LCD_RD_DATA();	//dummy read 	
 1485              		.loc 1 370 0
 1486 0064 FFF7FEFF 		bl	LCD_RD_DATA
 1487              	.LVL163:
 1488 0068 574C     		ldr	r4, .L121+4
 1489 006a A080     		strh	r0, [r4, #4]	@ movhi
 371:Src/bsp_tftlcd.c **** 	lcddev.id=LCD_RD_DATA();	//ËØªÂà∞0X00
 1490              		.loc 1 371 0
 1491 006c FFF7FEFF 		bl	LCD_RD_DATA
 1492              	.LVL164:
 1493 0070 A080     		strh	r0, [r4, #4]	@ movhi
 372:Src/bsp_tftlcd.c **** 	lcddev.id=LCD_RD_DATA();   	//ËØªÂèñ93								   
 1494              		.loc 1 372 0
 1495 0072 FFF7FEFF 		bl	LCD_RD_DATA
 1496              	.LVL165:
 373:Src/bsp_tftlcd.c **** 	lcddev.id<<=8;
 1497              		.loc 1 373 0
 1498 0076 0002     		lsls	r0, r0, #8
 1499 0078 A080     		strh	r0, [r4, #4]	@ movhi
 374:Src/bsp_tftlcd.c **** 	lcddev.id|=LCD_RD_DATA();  	//ËØªÂèñ41 	   			   
 1500              		.loc 1 374 0
 1501 007a FFF7FEFF 		bl	LCD_RD_DATA
 1502              	.LVL166:
 1503 007e A388     		ldrh	r3, [r4, #4]
 1504 0080 1843     		orrs	r0, r0, r3
 1505 0082 80B2     		uxth	r0, r0
 1506 0084 A080     		strh	r0, [r4, #4]	@ movhi
 375:Src/bsp_tftlcd.c **** 	if(lcddev.id!=0X9341)		//Èùû9341,Â∞ùËØïÁúãÁúãÊòØ‰∏çÊòØNT35310
 1507              		.loc 1 375 0
 1508 0086 49F24133 		movw	r3, #37697
 1509 008a 9842     		cmp	r0, r3
ARM GAS  /tmp/cco7znPM.s 			page 35


 1510 008c 4DD0     		beq	.L108
 376:Src/bsp_tftlcd.c **** 	{	 
 377:Src/bsp_tftlcd.c **** 		LCD_WR_REG(0XD4);				   
 1511              		.loc 1 377 0
 1512 008e D420     		movs	r0, #212
 1513 0090 FFF7FEFF 		bl	LCD_WR_REG
 1514              	.LVL167:
 378:Src/bsp_tftlcd.c **** 		lcddev.id=LCD_RD_DATA();//dummy read  
 1515              		.loc 1 378 0
 1516 0094 FFF7FEFF 		bl	LCD_RD_DATA
 1517              	.LVL168:
 1518 0098 A080     		strh	r0, [r4, #4]	@ movhi
 379:Src/bsp_tftlcd.c **** 		lcddev.id=LCD_RD_DATA();//ËØªÂõû0X01	 
 1519              		.loc 1 379 0
 1520 009a FFF7FEFF 		bl	LCD_RD_DATA
 1521              	.LVL169:
 1522 009e A080     		strh	r0, [r4, #4]	@ movhi
 380:Src/bsp_tftlcd.c **** 		lcddev.id=LCD_RD_DATA();//ËØªÂõû0X53	
 1523              		.loc 1 380 0
 1524 00a0 FFF7FEFF 		bl	LCD_RD_DATA
 1525              	.LVL170:
 381:Src/bsp_tftlcd.c **** 		lcddev.id<<=8;	 
 1526              		.loc 1 381 0
 1527 00a4 0002     		lsls	r0, r0, #8
 1528 00a6 A080     		strh	r0, [r4, #4]	@ movhi
 382:Src/bsp_tftlcd.c **** 		lcddev.id|=LCD_RD_DATA();	//ËøôÈáåËØªÂõû0X10	 
 1529              		.loc 1 382 0
 1530 00a8 FFF7FEFF 		bl	LCD_RD_DATA
 1531              	.LVL171:
 1532 00ac A388     		ldrh	r3, [r4, #4]
 1533 00ae 1843     		orrs	r0, r0, r3
 1534 00b0 80B2     		uxth	r0, r0
 1535 00b2 A080     		strh	r0, [r4, #4]	@ movhi
 383:Src/bsp_tftlcd.c **** 		if(lcddev.id!=0X5310)		//‰πü‰∏çÊòØNT35310,Â∞ùËØïÁúãÁúãÊòØ‰∏çÊòØNT35510
 1536              		.loc 1 383 0
 1537 00b4 45F21033 		movw	r3, #21264
 1538 00b8 9842     		cmp	r0, r3
 1539 00ba 36D0     		beq	.L108
 384:Src/bsp_tftlcd.c **** 		{
 385:Src/bsp_tftlcd.c **** 			LCD_WR_REG(0XDA00);	
 1540              		.loc 1 385 0
 1541 00bc 4FF45A40 		mov	r0, #55808
 1542 00c0 FFF7FEFF 		bl	LCD_WR_REG
 1543              	.LVL172:
 386:Src/bsp_tftlcd.c **** 			lcddev.id=LCD_RD_DATA();		//ËØªÂõû0X00	 
 1544              		.loc 1 386 0
 1545 00c4 FFF7FEFF 		bl	LCD_RD_DATA
 1546              	.LVL173:
 1547 00c8 A080     		strh	r0, [r4, #4]	@ movhi
 387:Src/bsp_tftlcd.c **** 			LCD_WR_REG(0XDB00);	
 1548              		.loc 1 387 0
 1549 00ca 4FF45B40 		mov	r0, #56064
 1550 00ce FFF7FEFF 		bl	LCD_WR_REG
 1551              	.LVL174:
 388:Src/bsp_tftlcd.c **** 			lcddev.id=LCD_RD_DATA();		//ËØªÂõû0X80
 1552              		.loc 1 388 0
 1553 00d2 FFF7FEFF 		bl	LCD_RD_DATA
ARM GAS  /tmp/cco7znPM.s 			page 36


 1554              	.LVL175:
 389:Src/bsp_tftlcd.c **** 			lcddev.id<<=8;	
 1555              		.loc 1 389 0
 1556 00d6 0002     		lsls	r0, r0, #8
 1557 00d8 A080     		strh	r0, [r4, #4]	@ movhi
 390:Src/bsp_tftlcd.c **** 			LCD_WR_REG(0XDC00);	
 1558              		.loc 1 390 0
 1559 00da 4FF45C40 		mov	r0, #56320
 1560 00de FFF7FEFF 		bl	LCD_WR_REG
 1561              	.LVL176:
 391:Src/bsp_tftlcd.c **** 			lcddev.id|=LCD_RD_DATA();		//ËØªÂõû0X00		
 1562              		.loc 1 391 0
 1563 00e2 FFF7FEFF 		bl	LCD_RD_DATA
 1564              	.LVL177:
 1565 00e6 A388     		ldrh	r3, [r4, #4]
 1566 00e8 1843     		orrs	r0, r0, r3
 1567 00ea 80B2     		uxth	r0, r0
 1568 00ec A080     		strh	r0, [r4, #4]	@ movhi
 392:Src/bsp_tftlcd.c **** 			if(lcddev.id==0x8000)lcddev.id=0x5510;//NT35510ËØªÂõûÁöÑIDÊòØ8000H,‰∏∫Êñπ‰æøÂå∫ÂàÜ,Êàë‰ª¨Âº∫Âà∂Ë
 1569              		.loc 1 392 0
 1570 00ee B0F5004F 		cmp	r0, #32768
 1571 00f2 5FD0     		beq	.L116
 1572              	.L109:
 393:Src/bsp_tftlcd.c **** 			if(lcddev.id!=0X5510)			//‰πü‰∏çÊòØNT5510,Â∞ùËØïÁúãÁúãÊòØ‰∏çÊòØSSD1963
 1573              		.loc 1 393 0
 1574 00f4 344B     		ldr	r3, .L121+4
 1575 00f6 9A88     		ldrh	r2, [r3, #4]
 1576 00f8 45F21053 		movw	r3, #21776
 1577 00fc 9A42     		cmp	r2, r3
 1578 00fe 14D0     		beq	.L108
 394:Src/bsp_tftlcd.c **** 			{
 395:Src/bsp_tftlcd.c **** 				LCD_WR_REG(0XA1);
 1579              		.loc 1 395 0
 1580 0100 A120     		movs	r0, #161
 1581 0102 FFF7FEFF 		bl	LCD_WR_REG
 1582              	.LVL178:
 396:Src/bsp_tftlcd.c **** 				lcddev.id=LCD_RD_DATA();
 1583              		.loc 1 396 0
 1584 0106 FFF7FEFF 		bl	LCD_RD_DATA
 1585              	.LVL179:
 1586 010a 2F4C     		ldr	r4, .L121+4
 1587 010c A080     		strh	r0, [r4, #4]	@ movhi
 397:Src/bsp_tftlcd.c **** 				lcddev.id=LCD_RD_DATA();	//ËØªÂõû0X57
 1588              		.loc 1 397 0
 1589 010e FFF7FEFF 		bl	LCD_RD_DATA
 1590              	.LVL180:
 398:Src/bsp_tftlcd.c **** 				lcddev.id<<=8;	 
 1591              		.loc 1 398 0
 1592 0112 0002     		lsls	r0, r0, #8
 1593 0114 A080     		strh	r0, [r4, #4]	@ movhi
 399:Src/bsp_tftlcd.c **** 				lcddev.id|=LCD_RD_DATA();	//ËØªÂõû0X61	
 1594              		.loc 1 399 0
 1595 0116 FFF7FEFF 		bl	LCD_RD_DATA
 1596              	.LVL181:
 1597 011a A388     		ldrh	r3, [r4, #4]
 1598 011c 1843     		orrs	r0, r0, r3
 1599 011e 80B2     		uxth	r0, r0
ARM GAS  /tmp/cco7znPM.s 			page 37


 1600 0120 A080     		strh	r0, [r4, #4]	@ movhi
 400:Src/bsp_tftlcd.c **** 				if(lcddev.id==0X5761)lcddev.id=0X1963;//SSD1963ËØªÂõûÁöÑIDÊòØ5761H,‰∏∫Êñπ‰æøÂå∫ÂàÜ,Êàë‰ª¨Âº∫Âà∂
 1601              		.loc 1 400 0
 1602 0122 45F26173 		movw	r3, #22369
 1603 0126 9842     		cmp	r0, r3
 1604 0128 48D0     		beq	.L117
 1605              	.L108:
 401:Src/bsp_tftlcd.c **** 			} 
 402:Src/bsp_tftlcd.c **** 		}
 403:Src/bsp_tftlcd.c **** 	}   
 404:Src/bsp_tftlcd.c **** 	printf(" LCD ID:%x\r\n",lcddev.id); //ÊâìÂç∞LCD ID  
 1606              		.loc 1 404 0
 1607 012a 274C     		ldr	r4, .L121+4
 1608 012c A188     		ldrh	r1, [r4, #4]
 1609 012e 2748     		ldr	r0, .L121+8
 1610 0130 FFF7FEFF 		bl	printf
 1611              	.LVL182:
 405:Src/bsp_tftlcd.c **** 	if(lcddev.id==0X9341)	//9341ÂàùÂßãÂåñ
 1612              		.loc 1 405 0
 1613 0134 A388     		ldrh	r3, [r4, #4]
 1614 0136 49F24132 		movw	r2, #37697
 1615 013a 9342     		cmp	r3, r2
 1616 013c 4CD0     		beq	.L118
 406:Src/bsp_tftlcd.c **** 	{	 
 407:Src/bsp_tftlcd.c **** 		LCD_WR_REG(0xCF);  
 408:Src/bsp_tftlcd.c **** 		LCD_WR_DATA(0x00); 
 409:Src/bsp_tftlcd.c **** 		LCD_WR_DATA(0xC1); 
 410:Src/bsp_tftlcd.c **** 		LCD_WR_DATA(0X30); 
 411:Src/bsp_tftlcd.c **** 		LCD_WR_REG(0xED);  
 412:Src/bsp_tftlcd.c **** 		LCD_WR_DATA(0x64); 
 413:Src/bsp_tftlcd.c **** 		LCD_WR_DATA(0x03); 
 414:Src/bsp_tftlcd.c **** 		LCD_WR_DATA(0X12); 
 415:Src/bsp_tftlcd.c **** 		LCD_WR_DATA(0X81); 
 416:Src/bsp_tftlcd.c **** 		LCD_WR_REG(0xE8);  
 417:Src/bsp_tftlcd.c **** 		LCD_WR_DATA(0x85); 
 418:Src/bsp_tftlcd.c **** 		LCD_WR_DATA(0x10); 
 419:Src/bsp_tftlcd.c **** 		LCD_WR_DATA(0x7A); 
 420:Src/bsp_tftlcd.c **** 		LCD_WR_REG(0xCB);  
 421:Src/bsp_tftlcd.c **** 		LCD_WR_DATA(0x39); 
 422:Src/bsp_tftlcd.c **** 		LCD_WR_DATA(0x2C); 
 423:Src/bsp_tftlcd.c **** 		LCD_WR_DATA(0x00); 
 424:Src/bsp_tftlcd.c **** 		LCD_WR_DATA(0x34); 
 425:Src/bsp_tftlcd.c **** 		LCD_WR_DATA(0x02); 
 426:Src/bsp_tftlcd.c **** 		LCD_WR_REG(0xF7);  
 427:Src/bsp_tftlcd.c **** 		LCD_WR_DATA(0x20); 
 428:Src/bsp_tftlcd.c **** 		LCD_WR_REG(0xEA);  
 429:Src/bsp_tftlcd.c **** 		LCD_WR_DATA(0x00); 
 430:Src/bsp_tftlcd.c **** 		LCD_WR_DATA(0x00); 
 431:Src/bsp_tftlcd.c **** 		LCD_WR_REG(0xC0);    //Power control 
 432:Src/bsp_tftlcd.c **** 		LCD_WR_DATA(0x1B);   //VRH[5:0] 
 433:Src/bsp_tftlcd.c **** 		LCD_WR_REG(0xC1);    //Power control 
 434:Src/bsp_tftlcd.c **** 		LCD_WR_DATA(0x01);   //SAP[2:0];BT[3:0] 
 435:Src/bsp_tftlcd.c **** 		LCD_WR_REG(0xC5);    //VCM control 
 436:Src/bsp_tftlcd.c **** 		LCD_WR_DATA(0x30); 	 //3F
 437:Src/bsp_tftlcd.c **** 		LCD_WR_DATA(0x30); 	 //3C
 438:Src/bsp_tftlcd.c **** 		LCD_WR_REG(0xC7);    //VCM control2 
 439:Src/bsp_tftlcd.c **** 		LCD_WR_DATA(0XB7); 
ARM GAS  /tmp/cco7znPM.s 			page 38


 440:Src/bsp_tftlcd.c **** 		LCD_WR_REG(0x36);    // Memory Access Control 
 441:Src/bsp_tftlcd.c **** 		LCD_WR_DATA(0x48); 
 442:Src/bsp_tftlcd.c **** 		LCD_WR_REG(0x3A);   
 443:Src/bsp_tftlcd.c **** 		LCD_WR_DATA(0x55); 
 444:Src/bsp_tftlcd.c **** 		LCD_WR_REG(0xB1);   
 445:Src/bsp_tftlcd.c **** 		LCD_WR_DATA(0x00);   
 446:Src/bsp_tftlcd.c **** 		LCD_WR_DATA(0x1A); 
 447:Src/bsp_tftlcd.c **** 		LCD_WR_REG(0xB6);    // Display Function Control 
 448:Src/bsp_tftlcd.c **** 		LCD_WR_DATA(0x0A); 
 449:Src/bsp_tftlcd.c **** 		LCD_WR_DATA(0xA2); 
 450:Src/bsp_tftlcd.c **** 		LCD_WR_REG(0xF2);    // 3Gamma Function Disable 
 451:Src/bsp_tftlcd.c **** 		LCD_WR_DATA(0x00); 
 452:Src/bsp_tftlcd.c **** 		LCD_WR_REG(0x26);    //Gamma curve selected 
 453:Src/bsp_tftlcd.c **** 		LCD_WR_DATA(0x01); 
 454:Src/bsp_tftlcd.c **** 		LCD_WR_REG(0xE0);    //Set Gamma 
 455:Src/bsp_tftlcd.c **** 		LCD_WR_DATA(0x0F); 
 456:Src/bsp_tftlcd.c **** 		LCD_WR_DATA(0x2A); 
 457:Src/bsp_tftlcd.c **** 		LCD_WR_DATA(0x28); 
 458:Src/bsp_tftlcd.c **** 		LCD_WR_DATA(0x08); 
 459:Src/bsp_tftlcd.c **** 		LCD_WR_DATA(0x0E); 
 460:Src/bsp_tftlcd.c **** 		LCD_WR_DATA(0x08); 
 461:Src/bsp_tftlcd.c **** 		LCD_WR_DATA(0x54); 
 462:Src/bsp_tftlcd.c **** 		LCD_WR_DATA(0XA9); 
 463:Src/bsp_tftlcd.c **** 		LCD_WR_DATA(0x43); 
 464:Src/bsp_tftlcd.c **** 		LCD_WR_DATA(0x0A); 
 465:Src/bsp_tftlcd.c **** 		LCD_WR_DATA(0x0F); 
 466:Src/bsp_tftlcd.c **** 		LCD_WR_DATA(0x00); 
 467:Src/bsp_tftlcd.c **** 		LCD_WR_DATA(0x00); 
 468:Src/bsp_tftlcd.c **** 		LCD_WR_DATA(0x00); 
 469:Src/bsp_tftlcd.c **** 		LCD_WR_DATA(0x00); 		 
 470:Src/bsp_tftlcd.c **** 		LCD_WR_REG(0XE1);    //Set Gamma 
 471:Src/bsp_tftlcd.c **** 		LCD_WR_DATA(0x00); 
 472:Src/bsp_tftlcd.c **** 		LCD_WR_DATA(0x15); 
 473:Src/bsp_tftlcd.c **** 		LCD_WR_DATA(0x17); 
 474:Src/bsp_tftlcd.c **** 		LCD_WR_DATA(0x07); 
 475:Src/bsp_tftlcd.c **** 		LCD_WR_DATA(0x11); 
 476:Src/bsp_tftlcd.c **** 		LCD_WR_DATA(0x06); 
 477:Src/bsp_tftlcd.c **** 		LCD_WR_DATA(0x2B); 
 478:Src/bsp_tftlcd.c **** 		LCD_WR_DATA(0x56); 
 479:Src/bsp_tftlcd.c **** 		LCD_WR_DATA(0x3C); 
 480:Src/bsp_tftlcd.c **** 		LCD_WR_DATA(0x05); 
 481:Src/bsp_tftlcd.c **** 		LCD_WR_DATA(0x10); 
 482:Src/bsp_tftlcd.c **** 		LCD_WR_DATA(0x0F); 
 483:Src/bsp_tftlcd.c **** 		LCD_WR_DATA(0x3F); 
 484:Src/bsp_tftlcd.c **** 		LCD_WR_DATA(0x3F); 
 485:Src/bsp_tftlcd.c **** 		LCD_WR_DATA(0x0F); 
 486:Src/bsp_tftlcd.c **** 		LCD_WR_REG(0x2B); 
 487:Src/bsp_tftlcd.c **** 		LCD_WR_DATA(0x00);
 488:Src/bsp_tftlcd.c **** 		LCD_WR_DATA(0x00);
 489:Src/bsp_tftlcd.c **** 		LCD_WR_DATA(0x01);
 490:Src/bsp_tftlcd.c **** 		LCD_WR_DATA(0x3f);
 491:Src/bsp_tftlcd.c **** 		LCD_WR_REG(0x2A); 
 492:Src/bsp_tftlcd.c **** 		LCD_WR_DATA(0x00);
 493:Src/bsp_tftlcd.c **** 		LCD_WR_DATA(0x00);
 494:Src/bsp_tftlcd.c **** 		LCD_WR_DATA(0x00);
 495:Src/bsp_tftlcd.c **** 		LCD_WR_DATA(0xef);	 
 496:Src/bsp_tftlcd.c **** 		LCD_WR_REG(0x11); //Exit Sleep
ARM GAS  /tmp/cco7znPM.s 			page 39


 497:Src/bsp_tftlcd.c **** 		HAL_Delay(120);
 498:Src/bsp_tftlcd.c **** 		LCD_WR_REG(0x29); //display on	
 499:Src/bsp_tftlcd.c **** 	}else if(lcddev.id==0x5310)
 1617              		.loc 1 499 0
 1618 013e 45F21032 		movw	r2, #21264
 1619 0142 9342     		cmp	r3, r2
 1620 0144 00F05D81 		beq	.L119
 500:Src/bsp_tftlcd.c **** 	{ 
 501:Src/bsp_tftlcd.c **** 		LCD_WR_REG(0xED);
 502:Src/bsp_tftlcd.c **** 		LCD_WR_DATA(0x01);
 503:Src/bsp_tftlcd.c **** 		LCD_WR_DATA(0xFE);
 504:Src/bsp_tftlcd.c **** 
 505:Src/bsp_tftlcd.c **** 		LCD_WR_REG(0xEE);
 506:Src/bsp_tftlcd.c **** 		LCD_WR_DATA(0xDE);
 507:Src/bsp_tftlcd.c **** 		LCD_WR_DATA(0x21);
 508:Src/bsp_tftlcd.c **** 
 509:Src/bsp_tftlcd.c **** 		LCD_WR_REG(0xF1);
 510:Src/bsp_tftlcd.c **** 		LCD_WR_DATA(0x01);
 511:Src/bsp_tftlcd.c **** 		LCD_WR_REG(0xDF);
 512:Src/bsp_tftlcd.c **** 		LCD_WR_DATA(0x10);
 513:Src/bsp_tftlcd.c **** 
 514:Src/bsp_tftlcd.c **** 		//VCOMvoltage//
 515:Src/bsp_tftlcd.c **** 		LCD_WR_REG(0xC4);
 516:Src/bsp_tftlcd.c **** 		LCD_WR_DATA(0x8F);	  //5f
 517:Src/bsp_tftlcd.c **** 
 518:Src/bsp_tftlcd.c **** 		LCD_WR_REG(0xC6);
 519:Src/bsp_tftlcd.c **** 		LCD_WR_DATA(0x00);
 520:Src/bsp_tftlcd.c **** 		LCD_WR_DATA(0xE2);
 521:Src/bsp_tftlcd.c **** 		LCD_WR_DATA(0xE2);
 522:Src/bsp_tftlcd.c **** 		LCD_WR_DATA(0xE2);
 523:Src/bsp_tftlcd.c **** 		LCD_WR_REG(0xBF);
 524:Src/bsp_tftlcd.c **** 		LCD_WR_DATA(0xAA);
 525:Src/bsp_tftlcd.c **** 
 526:Src/bsp_tftlcd.c **** 		LCD_WR_REG(0xB0);
 527:Src/bsp_tftlcd.c **** 		LCD_WR_DATA(0x0D);
 528:Src/bsp_tftlcd.c **** 		LCD_WR_DATA(0x00);
 529:Src/bsp_tftlcd.c **** 		LCD_WR_DATA(0x0D);
 530:Src/bsp_tftlcd.c **** 		LCD_WR_DATA(0x00);
 531:Src/bsp_tftlcd.c **** 		LCD_WR_DATA(0x11);
 532:Src/bsp_tftlcd.c **** 		LCD_WR_DATA(0x00);
 533:Src/bsp_tftlcd.c **** 		LCD_WR_DATA(0x19);
 534:Src/bsp_tftlcd.c **** 		LCD_WR_DATA(0x00);
 535:Src/bsp_tftlcd.c **** 		LCD_WR_DATA(0x21);
 536:Src/bsp_tftlcd.c **** 		LCD_WR_DATA(0x00);
 537:Src/bsp_tftlcd.c **** 		LCD_WR_DATA(0x2D);
 538:Src/bsp_tftlcd.c **** 		LCD_WR_DATA(0x00);
 539:Src/bsp_tftlcd.c **** 		LCD_WR_DATA(0x3D);
 540:Src/bsp_tftlcd.c **** 		LCD_WR_DATA(0x00);
 541:Src/bsp_tftlcd.c **** 		LCD_WR_DATA(0x5D);
 542:Src/bsp_tftlcd.c **** 		LCD_WR_DATA(0x00);
 543:Src/bsp_tftlcd.c **** 		LCD_WR_DATA(0x5D);
 544:Src/bsp_tftlcd.c **** 		LCD_WR_DATA(0x00);
 545:Src/bsp_tftlcd.c **** 
 546:Src/bsp_tftlcd.c **** 		LCD_WR_REG(0xB1);
 547:Src/bsp_tftlcd.c **** 		LCD_WR_DATA(0x80);
 548:Src/bsp_tftlcd.c **** 		LCD_WR_DATA(0x00);
 549:Src/bsp_tftlcd.c **** 		LCD_WR_DATA(0x8B);
ARM GAS  /tmp/cco7znPM.s 			page 40


 550:Src/bsp_tftlcd.c **** 		LCD_WR_DATA(0x00);
 551:Src/bsp_tftlcd.c **** 		LCD_WR_DATA(0x96);
 552:Src/bsp_tftlcd.c **** 		LCD_WR_DATA(0x00);
 553:Src/bsp_tftlcd.c **** 
 554:Src/bsp_tftlcd.c **** 		LCD_WR_REG(0xB2);
 555:Src/bsp_tftlcd.c **** 		LCD_WR_DATA(0x00);
 556:Src/bsp_tftlcd.c **** 		LCD_WR_DATA(0x00);
 557:Src/bsp_tftlcd.c **** 		LCD_WR_DATA(0x02);
 558:Src/bsp_tftlcd.c **** 		LCD_WR_DATA(0x00);
 559:Src/bsp_tftlcd.c **** 		LCD_WR_DATA(0x03);
 560:Src/bsp_tftlcd.c **** 		LCD_WR_DATA(0x00);
 561:Src/bsp_tftlcd.c **** 
 562:Src/bsp_tftlcd.c **** 		LCD_WR_REG(0xB3);
 563:Src/bsp_tftlcd.c **** 		LCD_WR_DATA(0x00);
 564:Src/bsp_tftlcd.c **** 		LCD_WR_DATA(0x00);
 565:Src/bsp_tftlcd.c **** 		LCD_WR_DATA(0x00);
 566:Src/bsp_tftlcd.c **** 		LCD_WR_DATA(0x00);
 567:Src/bsp_tftlcd.c **** 		LCD_WR_DATA(0x00);
 568:Src/bsp_tftlcd.c **** 		LCD_WR_DATA(0x00);
 569:Src/bsp_tftlcd.c **** 		LCD_WR_DATA(0x00);
 570:Src/bsp_tftlcd.c **** 		LCD_WR_DATA(0x00);
 571:Src/bsp_tftlcd.c **** 		LCD_WR_DATA(0x00);
 572:Src/bsp_tftlcd.c **** 		LCD_WR_DATA(0x00);
 573:Src/bsp_tftlcd.c **** 		LCD_WR_DATA(0x00);
 574:Src/bsp_tftlcd.c **** 		LCD_WR_DATA(0x00);
 575:Src/bsp_tftlcd.c **** 		LCD_WR_DATA(0x00);
 576:Src/bsp_tftlcd.c **** 		LCD_WR_DATA(0x00);
 577:Src/bsp_tftlcd.c **** 		LCD_WR_DATA(0x00);
 578:Src/bsp_tftlcd.c **** 		LCD_WR_DATA(0x00);
 579:Src/bsp_tftlcd.c **** 		LCD_WR_DATA(0x00);
 580:Src/bsp_tftlcd.c **** 		LCD_WR_DATA(0x00);
 581:Src/bsp_tftlcd.c **** 		LCD_WR_DATA(0x00);
 582:Src/bsp_tftlcd.c **** 		LCD_WR_DATA(0x00);
 583:Src/bsp_tftlcd.c **** 		LCD_WR_DATA(0x00);
 584:Src/bsp_tftlcd.c **** 		LCD_WR_DATA(0x00);
 585:Src/bsp_tftlcd.c **** 		LCD_WR_DATA(0x00);
 586:Src/bsp_tftlcd.c **** 		LCD_WR_DATA(0x00);
 587:Src/bsp_tftlcd.c **** 
 588:Src/bsp_tftlcd.c **** 		LCD_WR_REG(0xB4);
 589:Src/bsp_tftlcd.c **** 		LCD_WR_DATA(0x8B);
 590:Src/bsp_tftlcd.c **** 		LCD_WR_DATA(0x00);
 591:Src/bsp_tftlcd.c **** 		LCD_WR_DATA(0x96);
 592:Src/bsp_tftlcd.c **** 		LCD_WR_DATA(0x00);
 593:Src/bsp_tftlcd.c **** 		LCD_WR_DATA(0xA1);
 594:Src/bsp_tftlcd.c **** 		LCD_WR_DATA(0x00);
 595:Src/bsp_tftlcd.c **** 
 596:Src/bsp_tftlcd.c **** 		LCD_WR_REG(0xB5);
 597:Src/bsp_tftlcd.c **** 		LCD_WR_DATA(0x02);
 598:Src/bsp_tftlcd.c **** 		LCD_WR_DATA(0x00);
 599:Src/bsp_tftlcd.c **** 		LCD_WR_DATA(0x03);
 600:Src/bsp_tftlcd.c **** 		LCD_WR_DATA(0x00);
 601:Src/bsp_tftlcd.c **** 		LCD_WR_DATA(0x04);
 602:Src/bsp_tftlcd.c **** 		LCD_WR_DATA(0x00);
 603:Src/bsp_tftlcd.c **** 
 604:Src/bsp_tftlcd.c **** 		LCD_WR_REG(0xB6);
 605:Src/bsp_tftlcd.c **** 		LCD_WR_DATA(0x00);
 606:Src/bsp_tftlcd.c **** 		LCD_WR_DATA(0x00);
ARM GAS  /tmp/cco7znPM.s 			page 41


 607:Src/bsp_tftlcd.c **** 
 608:Src/bsp_tftlcd.c **** 		LCD_WR_REG(0xB7);
 609:Src/bsp_tftlcd.c **** 		LCD_WR_DATA(0x00);
 610:Src/bsp_tftlcd.c **** 		LCD_WR_DATA(0x00);
 611:Src/bsp_tftlcd.c **** 		LCD_WR_DATA(0x3F);
 612:Src/bsp_tftlcd.c **** 		LCD_WR_DATA(0x00);
 613:Src/bsp_tftlcd.c **** 		LCD_WR_DATA(0x5E);
 614:Src/bsp_tftlcd.c **** 		LCD_WR_DATA(0x00);
 615:Src/bsp_tftlcd.c **** 		LCD_WR_DATA(0x64);
 616:Src/bsp_tftlcd.c **** 		LCD_WR_DATA(0x00);
 617:Src/bsp_tftlcd.c **** 		LCD_WR_DATA(0x8C);
 618:Src/bsp_tftlcd.c **** 		LCD_WR_DATA(0x00);
 619:Src/bsp_tftlcd.c **** 		LCD_WR_DATA(0xAC);
 620:Src/bsp_tftlcd.c **** 		LCD_WR_DATA(0x00);
 621:Src/bsp_tftlcd.c **** 		LCD_WR_DATA(0xDC);
 622:Src/bsp_tftlcd.c **** 		LCD_WR_DATA(0x00);
 623:Src/bsp_tftlcd.c **** 		LCD_WR_DATA(0x70);
 624:Src/bsp_tftlcd.c **** 		LCD_WR_DATA(0x00);
 625:Src/bsp_tftlcd.c **** 		LCD_WR_DATA(0x90);
 626:Src/bsp_tftlcd.c **** 		LCD_WR_DATA(0x00);
 627:Src/bsp_tftlcd.c **** 		LCD_WR_DATA(0xEB);
 628:Src/bsp_tftlcd.c **** 		LCD_WR_DATA(0x00);
 629:Src/bsp_tftlcd.c **** 		LCD_WR_DATA(0xDC);
 630:Src/bsp_tftlcd.c **** 		LCD_WR_DATA(0x00);
 631:Src/bsp_tftlcd.c **** 
 632:Src/bsp_tftlcd.c **** 		LCD_WR_REG(0xB8);
 633:Src/bsp_tftlcd.c **** 		LCD_WR_DATA(0x00);
 634:Src/bsp_tftlcd.c **** 		LCD_WR_DATA(0x00);
 635:Src/bsp_tftlcd.c **** 		LCD_WR_DATA(0x00);
 636:Src/bsp_tftlcd.c **** 		LCD_WR_DATA(0x00);
 637:Src/bsp_tftlcd.c **** 		LCD_WR_DATA(0x00);
 638:Src/bsp_tftlcd.c **** 		LCD_WR_DATA(0x00);
 639:Src/bsp_tftlcd.c **** 		LCD_WR_DATA(0x00);
 640:Src/bsp_tftlcd.c **** 		LCD_WR_DATA(0x00);
 641:Src/bsp_tftlcd.c **** 
 642:Src/bsp_tftlcd.c **** 		LCD_WR_REG(0xBA);
 643:Src/bsp_tftlcd.c **** 		LCD_WR_DATA(0x24);
 644:Src/bsp_tftlcd.c **** 		LCD_WR_DATA(0x00);
 645:Src/bsp_tftlcd.c **** 		LCD_WR_DATA(0x00);
 646:Src/bsp_tftlcd.c **** 		LCD_WR_DATA(0x00);
 647:Src/bsp_tftlcd.c **** 
 648:Src/bsp_tftlcd.c **** 		LCD_WR_REG(0xC1);
 649:Src/bsp_tftlcd.c **** 		LCD_WR_DATA(0x20);
 650:Src/bsp_tftlcd.c **** 		LCD_WR_DATA(0x00);
 651:Src/bsp_tftlcd.c **** 		LCD_WR_DATA(0x54);
 652:Src/bsp_tftlcd.c **** 		LCD_WR_DATA(0x00);
 653:Src/bsp_tftlcd.c **** 		LCD_WR_DATA(0xFF);
 654:Src/bsp_tftlcd.c **** 		LCD_WR_DATA(0x00);
 655:Src/bsp_tftlcd.c **** 
 656:Src/bsp_tftlcd.c **** 		LCD_WR_REG(0xC2);
 657:Src/bsp_tftlcd.c **** 		LCD_WR_DATA(0x0A);
 658:Src/bsp_tftlcd.c **** 		LCD_WR_DATA(0x00);
 659:Src/bsp_tftlcd.c **** 		LCD_WR_DATA(0x04);
 660:Src/bsp_tftlcd.c **** 		LCD_WR_DATA(0x00);
 661:Src/bsp_tftlcd.c **** 
 662:Src/bsp_tftlcd.c **** 		LCD_WR_REG(0xC3);
 663:Src/bsp_tftlcd.c **** 		LCD_WR_DATA(0x3C);
ARM GAS  /tmp/cco7znPM.s 			page 42


 664:Src/bsp_tftlcd.c **** 		LCD_WR_DATA(0x00);
 665:Src/bsp_tftlcd.c **** 		LCD_WR_DATA(0x3A);
 666:Src/bsp_tftlcd.c **** 		LCD_WR_DATA(0x00);
 667:Src/bsp_tftlcd.c **** 		LCD_WR_DATA(0x39);
 668:Src/bsp_tftlcd.c **** 		LCD_WR_DATA(0x00);
 669:Src/bsp_tftlcd.c **** 		LCD_WR_DATA(0x37);
 670:Src/bsp_tftlcd.c **** 		LCD_WR_DATA(0x00);
 671:Src/bsp_tftlcd.c **** 		LCD_WR_DATA(0x3C);
 672:Src/bsp_tftlcd.c **** 		LCD_WR_DATA(0x00);
 673:Src/bsp_tftlcd.c **** 		LCD_WR_DATA(0x36);
 674:Src/bsp_tftlcd.c **** 		LCD_WR_DATA(0x00);
 675:Src/bsp_tftlcd.c **** 		LCD_WR_DATA(0x32);
 676:Src/bsp_tftlcd.c **** 		LCD_WR_DATA(0x00);
 677:Src/bsp_tftlcd.c **** 		LCD_WR_DATA(0x2F);
 678:Src/bsp_tftlcd.c **** 		LCD_WR_DATA(0x00);
 679:Src/bsp_tftlcd.c **** 		LCD_WR_DATA(0x2C);
 680:Src/bsp_tftlcd.c **** 		LCD_WR_DATA(0x00);
 681:Src/bsp_tftlcd.c **** 		LCD_WR_DATA(0x29);
 682:Src/bsp_tftlcd.c **** 		LCD_WR_DATA(0x00);
 683:Src/bsp_tftlcd.c **** 		LCD_WR_DATA(0x26);
 684:Src/bsp_tftlcd.c **** 		LCD_WR_DATA(0x00);
 685:Src/bsp_tftlcd.c **** 		LCD_WR_DATA(0x24);
 686:Src/bsp_tftlcd.c **** 		LCD_WR_DATA(0x00);
 687:Src/bsp_tftlcd.c **** 		LCD_WR_DATA(0x24);
 688:Src/bsp_tftlcd.c **** 		LCD_WR_DATA(0x00);
 689:Src/bsp_tftlcd.c **** 		LCD_WR_DATA(0x23);
 690:Src/bsp_tftlcd.c **** 		LCD_WR_DATA(0x00);
 691:Src/bsp_tftlcd.c **** 		LCD_WR_DATA(0x3C);
 692:Src/bsp_tftlcd.c **** 		LCD_WR_DATA(0x00);
 693:Src/bsp_tftlcd.c **** 		LCD_WR_DATA(0x36);
 694:Src/bsp_tftlcd.c **** 		LCD_WR_DATA(0x00);
 695:Src/bsp_tftlcd.c **** 		LCD_WR_DATA(0x32);
 696:Src/bsp_tftlcd.c **** 		LCD_WR_DATA(0x00);
 697:Src/bsp_tftlcd.c **** 		LCD_WR_DATA(0x2F);
 698:Src/bsp_tftlcd.c **** 		LCD_WR_DATA(0x00);
 699:Src/bsp_tftlcd.c **** 		LCD_WR_DATA(0x2C);
 700:Src/bsp_tftlcd.c **** 		LCD_WR_DATA(0x00);
 701:Src/bsp_tftlcd.c **** 		LCD_WR_DATA(0x29);
 702:Src/bsp_tftlcd.c **** 		LCD_WR_DATA(0x00);
 703:Src/bsp_tftlcd.c **** 		LCD_WR_DATA(0x26);
 704:Src/bsp_tftlcd.c **** 		LCD_WR_DATA(0x00);
 705:Src/bsp_tftlcd.c **** 		LCD_WR_DATA(0x24);
 706:Src/bsp_tftlcd.c **** 		LCD_WR_DATA(0x00);
 707:Src/bsp_tftlcd.c **** 		LCD_WR_DATA(0x24);
 708:Src/bsp_tftlcd.c **** 		LCD_WR_DATA(0x00);
 709:Src/bsp_tftlcd.c **** 		LCD_WR_DATA(0x23);
 710:Src/bsp_tftlcd.c **** 		LCD_WR_DATA(0x00);
 711:Src/bsp_tftlcd.c **** 
 712:Src/bsp_tftlcd.c **** 		LCD_WR_REG(0xC4);
 713:Src/bsp_tftlcd.c **** 		LCD_WR_DATA(0x62);
 714:Src/bsp_tftlcd.c **** 		LCD_WR_DATA(0x00);
 715:Src/bsp_tftlcd.c **** 		LCD_WR_DATA(0x05);
 716:Src/bsp_tftlcd.c **** 		LCD_WR_DATA(0x00);
 717:Src/bsp_tftlcd.c **** 		LCD_WR_DATA(0x84);
 718:Src/bsp_tftlcd.c **** 		LCD_WR_DATA(0x00);
 719:Src/bsp_tftlcd.c **** 		LCD_WR_DATA(0xF0);
 720:Src/bsp_tftlcd.c **** 		LCD_WR_DATA(0x00);
ARM GAS  /tmp/cco7znPM.s 			page 43


 721:Src/bsp_tftlcd.c **** 		LCD_WR_DATA(0x18);
 722:Src/bsp_tftlcd.c **** 		LCD_WR_DATA(0x00);
 723:Src/bsp_tftlcd.c **** 		LCD_WR_DATA(0xA4);
 724:Src/bsp_tftlcd.c **** 		LCD_WR_DATA(0x00);
 725:Src/bsp_tftlcd.c **** 		LCD_WR_DATA(0x18);
 726:Src/bsp_tftlcd.c **** 		LCD_WR_DATA(0x00);
 727:Src/bsp_tftlcd.c **** 		LCD_WR_DATA(0x50);
 728:Src/bsp_tftlcd.c **** 		LCD_WR_DATA(0x00);
 729:Src/bsp_tftlcd.c **** 		LCD_WR_DATA(0x0C);
 730:Src/bsp_tftlcd.c **** 		LCD_WR_DATA(0x00);
 731:Src/bsp_tftlcd.c **** 		LCD_WR_DATA(0x17);
 732:Src/bsp_tftlcd.c **** 		LCD_WR_DATA(0x00);
 733:Src/bsp_tftlcd.c **** 		LCD_WR_DATA(0x95);
 734:Src/bsp_tftlcd.c **** 		LCD_WR_DATA(0x00);
 735:Src/bsp_tftlcd.c **** 		LCD_WR_DATA(0xF3);
 736:Src/bsp_tftlcd.c **** 		LCD_WR_DATA(0x00);
 737:Src/bsp_tftlcd.c **** 		LCD_WR_DATA(0xE6);
 738:Src/bsp_tftlcd.c **** 		LCD_WR_DATA(0x00);
 739:Src/bsp_tftlcd.c **** 
 740:Src/bsp_tftlcd.c **** 		LCD_WR_REG(0xC5);
 741:Src/bsp_tftlcd.c **** 		LCD_WR_DATA(0x32);
 742:Src/bsp_tftlcd.c **** 		LCD_WR_DATA(0x00);
 743:Src/bsp_tftlcd.c **** 		LCD_WR_DATA(0x44);
 744:Src/bsp_tftlcd.c **** 		LCD_WR_DATA(0x00);
 745:Src/bsp_tftlcd.c **** 		LCD_WR_DATA(0x65);
 746:Src/bsp_tftlcd.c **** 		LCD_WR_DATA(0x00);
 747:Src/bsp_tftlcd.c **** 		LCD_WR_DATA(0x76);
 748:Src/bsp_tftlcd.c **** 		LCD_WR_DATA(0x00);
 749:Src/bsp_tftlcd.c **** 		LCD_WR_DATA(0x88);
 750:Src/bsp_tftlcd.c **** 		LCD_WR_DATA(0x00);
 751:Src/bsp_tftlcd.c **** 
 752:Src/bsp_tftlcd.c **** 		LCD_WR_REG(0xC6);
 753:Src/bsp_tftlcd.c **** 		LCD_WR_DATA(0x20);
 754:Src/bsp_tftlcd.c **** 		LCD_WR_DATA(0x00);
 755:Src/bsp_tftlcd.c **** 		LCD_WR_DATA(0x17);
 756:Src/bsp_tftlcd.c **** 		LCD_WR_DATA(0x00);
 757:Src/bsp_tftlcd.c **** 		LCD_WR_DATA(0x01);
 758:Src/bsp_tftlcd.c **** 		LCD_WR_DATA(0x00);
 759:Src/bsp_tftlcd.c **** 
 760:Src/bsp_tftlcd.c **** 		LCD_WR_REG(0xC7);
 761:Src/bsp_tftlcd.c **** 		LCD_WR_DATA(0x00);
 762:Src/bsp_tftlcd.c **** 		LCD_WR_DATA(0x00);
 763:Src/bsp_tftlcd.c **** 		LCD_WR_DATA(0x00);
 764:Src/bsp_tftlcd.c **** 		LCD_WR_DATA(0x00);
 765:Src/bsp_tftlcd.c **** 
 766:Src/bsp_tftlcd.c **** 		LCD_WR_REG(0xC8);
 767:Src/bsp_tftlcd.c **** 		LCD_WR_DATA(0x00);
 768:Src/bsp_tftlcd.c **** 		LCD_WR_DATA(0x00);
 769:Src/bsp_tftlcd.c **** 		LCD_WR_DATA(0x00);
 770:Src/bsp_tftlcd.c **** 		LCD_WR_DATA(0x00);
 771:Src/bsp_tftlcd.c **** 
 772:Src/bsp_tftlcd.c **** 		LCD_WR_REG(0xC9);
 773:Src/bsp_tftlcd.c **** 		LCD_WR_DATA(0x00);
 774:Src/bsp_tftlcd.c **** 		LCD_WR_DATA(0x00);
 775:Src/bsp_tftlcd.c **** 		LCD_WR_DATA(0x00);
 776:Src/bsp_tftlcd.c **** 		LCD_WR_DATA(0x00);
 777:Src/bsp_tftlcd.c **** 		LCD_WR_DATA(0x00);
ARM GAS  /tmp/cco7znPM.s 			page 44


 778:Src/bsp_tftlcd.c **** 		LCD_WR_DATA(0x00);
 779:Src/bsp_tftlcd.c **** 		LCD_WR_DATA(0x00);
 780:Src/bsp_tftlcd.c **** 		LCD_WR_DATA(0x00);
 781:Src/bsp_tftlcd.c **** 		LCD_WR_DATA(0x00);
 782:Src/bsp_tftlcd.c **** 		LCD_WR_DATA(0x00);
 783:Src/bsp_tftlcd.c **** 		LCD_WR_DATA(0x00);
 784:Src/bsp_tftlcd.c **** 		LCD_WR_DATA(0x00);
 785:Src/bsp_tftlcd.c **** 		LCD_WR_DATA(0x00);
 786:Src/bsp_tftlcd.c **** 		LCD_WR_DATA(0x00);
 787:Src/bsp_tftlcd.c **** 		LCD_WR_DATA(0x00);
 788:Src/bsp_tftlcd.c **** 		LCD_WR_DATA(0x00);
 789:Src/bsp_tftlcd.c **** 
 790:Src/bsp_tftlcd.c **** 		LCD_WR_REG(0xE0);
 791:Src/bsp_tftlcd.c **** 		LCD_WR_DATA(0x16);
 792:Src/bsp_tftlcd.c **** 		LCD_WR_DATA(0x00);
 793:Src/bsp_tftlcd.c **** 		LCD_WR_DATA(0x1C);
 794:Src/bsp_tftlcd.c **** 		LCD_WR_DATA(0x00);
 795:Src/bsp_tftlcd.c **** 		LCD_WR_DATA(0x21);
 796:Src/bsp_tftlcd.c **** 		LCD_WR_DATA(0x00);
 797:Src/bsp_tftlcd.c **** 		LCD_WR_DATA(0x36);
 798:Src/bsp_tftlcd.c **** 		LCD_WR_DATA(0x00);
 799:Src/bsp_tftlcd.c **** 		LCD_WR_DATA(0x46);
 800:Src/bsp_tftlcd.c **** 		LCD_WR_DATA(0x00);
 801:Src/bsp_tftlcd.c **** 		LCD_WR_DATA(0x52);
 802:Src/bsp_tftlcd.c **** 		LCD_WR_DATA(0x00);
 803:Src/bsp_tftlcd.c **** 		LCD_WR_DATA(0x64);
 804:Src/bsp_tftlcd.c **** 		LCD_WR_DATA(0x00);
 805:Src/bsp_tftlcd.c **** 		LCD_WR_DATA(0x7A);
 806:Src/bsp_tftlcd.c **** 		LCD_WR_DATA(0x00);
 807:Src/bsp_tftlcd.c **** 		LCD_WR_DATA(0x8B);
 808:Src/bsp_tftlcd.c **** 		LCD_WR_DATA(0x00);
 809:Src/bsp_tftlcd.c **** 		LCD_WR_DATA(0x99);
 810:Src/bsp_tftlcd.c **** 		LCD_WR_DATA(0x00);
 811:Src/bsp_tftlcd.c **** 		LCD_WR_DATA(0xA8);
 812:Src/bsp_tftlcd.c **** 		LCD_WR_DATA(0x00);
 813:Src/bsp_tftlcd.c **** 		LCD_WR_DATA(0xB9);
 814:Src/bsp_tftlcd.c **** 		LCD_WR_DATA(0x00);
 815:Src/bsp_tftlcd.c **** 		LCD_WR_DATA(0xC4);
 816:Src/bsp_tftlcd.c **** 		LCD_WR_DATA(0x00);
 817:Src/bsp_tftlcd.c **** 		LCD_WR_DATA(0xCA);
 818:Src/bsp_tftlcd.c **** 		LCD_WR_DATA(0x00);
 819:Src/bsp_tftlcd.c **** 		LCD_WR_DATA(0xD2);
 820:Src/bsp_tftlcd.c **** 		LCD_WR_DATA(0x00);
 821:Src/bsp_tftlcd.c **** 		LCD_WR_DATA(0xD9);
 822:Src/bsp_tftlcd.c **** 		LCD_WR_DATA(0x00);
 823:Src/bsp_tftlcd.c **** 		LCD_WR_DATA(0xE0);
 824:Src/bsp_tftlcd.c **** 		LCD_WR_DATA(0x00);
 825:Src/bsp_tftlcd.c **** 		LCD_WR_DATA(0xF3);
 826:Src/bsp_tftlcd.c **** 		LCD_WR_DATA(0x00);
 827:Src/bsp_tftlcd.c **** 
 828:Src/bsp_tftlcd.c **** 		LCD_WR_REG(0xE1);
 829:Src/bsp_tftlcd.c **** 		LCD_WR_DATA(0x16);
 830:Src/bsp_tftlcd.c **** 		LCD_WR_DATA(0x00);
 831:Src/bsp_tftlcd.c **** 		LCD_WR_DATA(0x1C);
 832:Src/bsp_tftlcd.c **** 		LCD_WR_DATA(0x00);
 833:Src/bsp_tftlcd.c **** 		LCD_WR_DATA(0x22);
 834:Src/bsp_tftlcd.c **** 		LCD_WR_DATA(0x00);
ARM GAS  /tmp/cco7znPM.s 			page 45


 835:Src/bsp_tftlcd.c **** 		LCD_WR_DATA(0x36);
 836:Src/bsp_tftlcd.c **** 		LCD_WR_DATA(0x00);
 837:Src/bsp_tftlcd.c **** 		LCD_WR_DATA(0x45);
 838:Src/bsp_tftlcd.c **** 		LCD_WR_DATA(0x00);
 839:Src/bsp_tftlcd.c **** 		LCD_WR_DATA(0x52);
 840:Src/bsp_tftlcd.c **** 		LCD_WR_DATA(0x00);
 841:Src/bsp_tftlcd.c **** 		LCD_WR_DATA(0x64);
 842:Src/bsp_tftlcd.c **** 		LCD_WR_DATA(0x00);
 843:Src/bsp_tftlcd.c **** 		LCD_WR_DATA(0x7A);
 844:Src/bsp_tftlcd.c **** 		LCD_WR_DATA(0x00);
 845:Src/bsp_tftlcd.c **** 		LCD_WR_DATA(0x8B);
 846:Src/bsp_tftlcd.c **** 		LCD_WR_DATA(0x00);
 847:Src/bsp_tftlcd.c **** 		LCD_WR_DATA(0x99);
 848:Src/bsp_tftlcd.c **** 		LCD_WR_DATA(0x00);
 849:Src/bsp_tftlcd.c **** 		LCD_WR_DATA(0xA8);
 850:Src/bsp_tftlcd.c **** 		LCD_WR_DATA(0x00);
 851:Src/bsp_tftlcd.c **** 		LCD_WR_DATA(0xB9);
 852:Src/bsp_tftlcd.c **** 		LCD_WR_DATA(0x00);
 853:Src/bsp_tftlcd.c **** 		LCD_WR_DATA(0xC4);
 854:Src/bsp_tftlcd.c **** 		LCD_WR_DATA(0x00);
 855:Src/bsp_tftlcd.c **** 		LCD_WR_DATA(0xCA);
 856:Src/bsp_tftlcd.c **** 		LCD_WR_DATA(0x00);
 857:Src/bsp_tftlcd.c **** 		LCD_WR_DATA(0xD2);
 858:Src/bsp_tftlcd.c **** 		LCD_WR_DATA(0x00);
 859:Src/bsp_tftlcd.c **** 		LCD_WR_DATA(0xD8);
 860:Src/bsp_tftlcd.c **** 		LCD_WR_DATA(0x00);
 861:Src/bsp_tftlcd.c **** 		LCD_WR_DATA(0xE0);
 862:Src/bsp_tftlcd.c **** 		LCD_WR_DATA(0x00);
 863:Src/bsp_tftlcd.c **** 		LCD_WR_DATA(0xF3);
 864:Src/bsp_tftlcd.c **** 		LCD_WR_DATA(0x00);
 865:Src/bsp_tftlcd.c **** 
 866:Src/bsp_tftlcd.c **** 		LCD_WR_REG(0xE2);
 867:Src/bsp_tftlcd.c **** 		LCD_WR_DATA(0x05);
 868:Src/bsp_tftlcd.c **** 		LCD_WR_DATA(0x00);
 869:Src/bsp_tftlcd.c **** 		LCD_WR_DATA(0x0B);
 870:Src/bsp_tftlcd.c **** 		LCD_WR_DATA(0x00);
 871:Src/bsp_tftlcd.c **** 		LCD_WR_DATA(0x1B);
 872:Src/bsp_tftlcd.c **** 		LCD_WR_DATA(0x00);
 873:Src/bsp_tftlcd.c **** 		LCD_WR_DATA(0x34);
 874:Src/bsp_tftlcd.c **** 		LCD_WR_DATA(0x00);
 875:Src/bsp_tftlcd.c **** 		LCD_WR_DATA(0x44);
 876:Src/bsp_tftlcd.c **** 		LCD_WR_DATA(0x00);
 877:Src/bsp_tftlcd.c **** 		LCD_WR_DATA(0x4F);
 878:Src/bsp_tftlcd.c **** 		LCD_WR_DATA(0x00);
 879:Src/bsp_tftlcd.c **** 		LCD_WR_DATA(0x61);
 880:Src/bsp_tftlcd.c **** 		LCD_WR_DATA(0x00);
 881:Src/bsp_tftlcd.c **** 		LCD_WR_DATA(0x79);
 882:Src/bsp_tftlcd.c **** 		LCD_WR_DATA(0x00);
 883:Src/bsp_tftlcd.c **** 		LCD_WR_DATA(0x88);
 884:Src/bsp_tftlcd.c **** 		LCD_WR_DATA(0x00);
 885:Src/bsp_tftlcd.c **** 		LCD_WR_DATA(0x97);
 886:Src/bsp_tftlcd.c **** 		LCD_WR_DATA(0x00);
 887:Src/bsp_tftlcd.c **** 		LCD_WR_DATA(0xA6);
 888:Src/bsp_tftlcd.c **** 		LCD_WR_DATA(0x00);
 889:Src/bsp_tftlcd.c **** 		LCD_WR_DATA(0xB7);
 890:Src/bsp_tftlcd.c **** 		LCD_WR_DATA(0x00);
 891:Src/bsp_tftlcd.c **** 		LCD_WR_DATA(0xC2);
ARM GAS  /tmp/cco7znPM.s 			page 46


 892:Src/bsp_tftlcd.c **** 		LCD_WR_DATA(0x00);
 893:Src/bsp_tftlcd.c **** 		LCD_WR_DATA(0xC7);
 894:Src/bsp_tftlcd.c **** 		LCD_WR_DATA(0x00);
 895:Src/bsp_tftlcd.c **** 		LCD_WR_DATA(0xD1);
 896:Src/bsp_tftlcd.c **** 		LCD_WR_DATA(0x00);
 897:Src/bsp_tftlcd.c **** 		LCD_WR_DATA(0xD6);
 898:Src/bsp_tftlcd.c **** 		LCD_WR_DATA(0x00);
 899:Src/bsp_tftlcd.c **** 		LCD_WR_DATA(0xDD);
 900:Src/bsp_tftlcd.c **** 		LCD_WR_DATA(0x00);
 901:Src/bsp_tftlcd.c **** 		LCD_WR_DATA(0xF3);
 902:Src/bsp_tftlcd.c **** 		LCD_WR_DATA(0x00);
 903:Src/bsp_tftlcd.c **** 		LCD_WR_REG(0xE3);
 904:Src/bsp_tftlcd.c **** 		LCD_WR_DATA(0x05);
 905:Src/bsp_tftlcd.c **** 		LCD_WR_DATA(0x00);
 906:Src/bsp_tftlcd.c **** 		LCD_WR_DATA(0xA);
 907:Src/bsp_tftlcd.c **** 		LCD_WR_DATA(0x00);
 908:Src/bsp_tftlcd.c **** 		LCD_WR_DATA(0x1C);
 909:Src/bsp_tftlcd.c **** 		LCD_WR_DATA(0x00);
 910:Src/bsp_tftlcd.c **** 		LCD_WR_DATA(0x33);
 911:Src/bsp_tftlcd.c **** 		LCD_WR_DATA(0x00);
 912:Src/bsp_tftlcd.c **** 		LCD_WR_DATA(0x44);
 913:Src/bsp_tftlcd.c **** 		LCD_WR_DATA(0x00);
 914:Src/bsp_tftlcd.c **** 		LCD_WR_DATA(0x50);
 915:Src/bsp_tftlcd.c **** 		LCD_WR_DATA(0x00);
 916:Src/bsp_tftlcd.c **** 		LCD_WR_DATA(0x62);
 917:Src/bsp_tftlcd.c **** 		LCD_WR_DATA(0x00);
 918:Src/bsp_tftlcd.c **** 		LCD_WR_DATA(0x78);
 919:Src/bsp_tftlcd.c **** 		LCD_WR_DATA(0x00);
 920:Src/bsp_tftlcd.c **** 		LCD_WR_DATA(0x88);
 921:Src/bsp_tftlcd.c **** 		LCD_WR_DATA(0x00);
 922:Src/bsp_tftlcd.c **** 		LCD_WR_DATA(0x97);
 923:Src/bsp_tftlcd.c **** 		LCD_WR_DATA(0x00);
 924:Src/bsp_tftlcd.c **** 		LCD_WR_DATA(0xA6);
 925:Src/bsp_tftlcd.c **** 		LCD_WR_DATA(0x00);
 926:Src/bsp_tftlcd.c **** 		LCD_WR_DATA(0xB7);
 927:Src/bsp_tftlcd.c **** 		LCD_WR_DATA(0x00);
 928:Src/bsp_tftlcd.c **** 		LCD_WR_DATA(0xC2);
 929:Src/bsp_tftlcd.c **** 		LCD_WR_DATA(0x00);
 930:Src/bsp_tftlcd.c **** 		LCD_WR_DATA(0xC7);
 931:Src/bsp_tftlcd.c **** 		LCD_WR_DATA(0x00);
 932:Src/bsp_tftlcd.c **** 		LCD_WR_DATA(0xD1);
 933:Src/bsp_tftlcd.c **** 		LCD_WR_DATA(0x00);
 934:Src/bsp_tftlcd.c **** 		LCD_WR_DATA(0xD5);
 935:Src/bsp_tftlcd.c **** 		LCD_WR_DATA(0x00);
 936:Src/bsp_tftlcd.c **** 		LCD_WR_DATA(0xDD);
 937:Src/bsp_tftlcd.c **** 		LCD_WR_DATA(0x00);
 938:Src/bsp_tftlcd.c **** 		LCD_WR_DATA(0xF3);
 939:Src/bsp_tftlcd.c **** 		LCD_WR_DATA(0x00);
 940:Src/bsp_tftlcd.c **** 
 941:Src/bsp_tftlcd.c **** 		LCD_WR_REG(0xE4);
 942:Src/bsp_tftlcd.c **** 		LCD_WR_DATA(0x01);
 943:Src/bsp_tftlcd.c **** 		LCD_WR_DATA(0x00);
 944:Src/bsp_tftlcd.c **** 		LCD_WR_DATA(0x01);
 945:Src/bsp_tftlcd.c **** 		LCD_WR_DATA(0x00);
 946:Src/bsp_tftlcd.c **** 		LCD_WR_DATA(0x02);
 947:Src/bsp_tftlcd.c **** 		LCD_WR_DATA(0x00);
 948:Src/bsp_tftlcd.c **** 		LCD_WR_DATA(0x2A);
ARM GAS  /tmp/cco7znPM.s 			page 47


 949:Src/bsp_tftlcd.c **** 		LCD_WR_DATA(0x00);
 950:Src/bsp_tftlcd.c **** 		LCD_WR_DATA(0x3C);
 951:Src/bsp_tftlcd.c **** 		LCD_WR_DATA(0x00);
 952:Src/bsp_tftlcd.c **** 		LCD_WR_DATA(0x4B);
 953:Src/bsp_tftlcd.c **** 		LCD_WR_DATA(0x00);
 954:Src/bsp_tftlcd.c **** 		LCD_WR_DATA(0x5D);
 955:Src/bsp_tftlcd.c **** 		LCD_WR_DATA(0x00);
 956:Src/bsp_tftlcd.c **** 		LCD_WR_DATA(0x74);
 957:Src/bsp_tftlcd.c **** 		LCD_WR_DATA(0x00);
 958:Src/bsp_tftlcd.c **** 		LCD_WR_DATA(0x84);
 959:Src/bsp_tftlcd.c **** 		LCD_WR_DATA(0x00);
 960:Src/bsp_tftlcd.c **** 		LCD_WR_DATA(0x93);
 961:Src/bsp_tftlcd.c **** 		LCD_WR_DATA(0x00);
 962:Src/bsp_tftlcd.c **** 		LCD_WR_DATA(0xA2);
 963:Src/bsp_tftlcd.c **** 		LCD_WR_DATA(0x00);
 964:Src/bsp_tftlcd.c **** 		LCD_WR_DATA(0xB3);
 965:Src/bsp_tftlcd.c **** 		LCD_WR_DATA(0x00);
 966:Src/bsp_tftlcd.c **** 		LCD_WR_DATA(0xBE);
 967:Src/bsp_tftlcd.c **** 		LCD_WR_DATA(0x00);
 968:Src/bsp_tftlcd.c **** 		LCD_WR_DATA(0xC4);
 969:Src/bsp_tftlcd.c **** 		LCD_WR_DATA(0x00);
 970:Src/bsp_tftlcd.c **** 		LCD_WR_DATA(0xCD);
 971:Src/bsp_tftlcd.c **** 		LCD_WR_DATA(0x00);
 972:Src/bsp_tftlcd.c **** 		LCD_WR_DATA(0xD3);
 973:Src/bsp_tftlcd.c **** 		LCD_WR_DATA(0x00);
 974:Src/bsp_tftlcd.c **** 		LCD_WR_DATA(0xDD);
 975:Src/bsp_tftlcd.c **** 		LCD_WR_DATA(0x00);
 976:Src/bsp_tftlcd.c **** 		LCD_WR_DATA(0xF3);
 977:Src/bsp_tftlcd.c **** 		LCD_WR_DATA(0x00);
 978:Src/bsp_tftlcd.c **** 		LCD_WR_REG(0xE5);
 979:Src/bsp_tftlcd.c **** 		LCD_WR_DATA(0x00);
 980:Src/bsp_tftlcd.c **** 		LCD_WR_DATA(0x00);
 981:Src/bsp_tftlcd.c **** 		LCD_WR_DATA(0x00);
 982:Src/bsp_tftlcd.c **** 		LCD_WR_DATA(0x00);
 983:Src/bsp_tftlcd.c **** 		LCD_WR_DATA(0x02);
 984:Src/bsp_tftlcd.c **** 		LCD_WR_DATA(0x00);
 985:Src/bsp_tftlcd.c **** 		LCD_WR_DATA(0x29);
 986:Src/bsp_tftlcd.c **** 		LCD_WR_DATA(0x00);
 987:Src/bsp_tftlcd.c **** 		LCD_WR_DATA(0x3C);
 988:Src/bsp_tftlcd.c **** 		LCD_WR_DATA(0x00);
 989:Src/bsp_tftlcd.c **** 		LCD_WR_DATA(0x4B);
 990:Src/bsp_tftlcd.c **** 		LCD_WR_DATA(0x00);
 991:Src/bsp_tftlcd.c **** 		LCD_WR_DATA(0x5D);
 992:Src/bsp_tftlcd.c **** 		LCD_WR_DATA(0x00);
 993:Src/bsp_tftlcd.c **** 		LCD_WR_DATA(0x74);
 994:Src/bsp_tftlcd.c **** 		LCD_WR_DATA(0x00);
 995:Src/bsp_tftlcd.c **** 		LCD_WR_DATA(0x84);
 996:Src/bsp_tftlcd.c **** 		LCD_WR_DATA(0x00);
 997:Src/bsp_tftlcd.c **** 		LCD_WR_DATA(0x93);
 998:Src/bsp_tftlcd.c **** 		LCD_WR_DATA(0x00);
 999:Src/bsp_tftlcd.c **** 		LCD_WR_DATA(0xA2);
1000:Src/bsp_tftlcd.c **** 		LCD_WR_DATA(0x00);
1001:Src/bsp_tftlcd.c **** 		LCD_WR_DATA(0xB3);
1002:Src/bsp_tftlcd.c **** 		LCD_WR_DATA(0x00);
1003:Src/bsp_tftlcd.c **** 		LCD_WR_DATA(0xBE);
1004:Src/bsp_tftlcd.c **** 		LCD_WR_DATA(0x00);
1005:Src/bsp_tftlcd.c **** 		LCD_WR_DATA(0xC4);
ARM GAS  /tmp/cco7znPM.s 			page 48


1006:Src/bsp_tftlcd.c **** 		LCD_WR_DATA(0x00);
1007:Src/bsp_tftlcd.c **** 		LCD_WR_DATA(0xCD);
1008:Src/bsp_tftlcd.c **** 		LCD_WR_DATA(0x00);
1009:Src/bsp_tftlcd.c **** 		LCD_WR_DATA(0xD3);
1010:Src/bsp_tftlcd.c **** 		LCD_WR_DATA(0x00);
1011:Src/bsp_tftlcd.c **** 		LCD_WR_DATA(0xDC);
1012:Src/bsp_tftlcd.c **** 		LCD_WR_DATA(0x00);
1013:Src/bsp_tftlcd.c **** 		LCD_WR_DATA(0xF3);
1014:Src/bsp_tftlcd.c **** 		LCD_WR_DATA(0x00);
1015:Src/bsp_tftlcd.c **** 
1016:Src/bsp_tftlcd.c **** 		LCD_WR_REG(0xE6);
1017:Src/bsp_tftlcd.c **** 		LCD_WR_DATA(0x11);
1018:Src/bsp_tftlcd.c **** 		LCD_WR_DATA(0x00);
1019:Src/bsp_tftlcd.c **** 		LCD_WR_DATA(0x34);
1020:Src/bsp_tftlcd.c **** 		LCD_WR_DATA(0x00);
1021:Src/bsp_tftlcd.c **** 		LCD_WR_DATA(0x56);
1022:Src/bsp_tftlcd.c **** 		LCD_WR_DATA(0x00);
1023:Src/bsp_tftlcd.c **** 		LCD_WR_DATA(0x76);
1024:Src/bsp_tftlcd.c **** 		LCD_WR_DATA(0x00);
1025:Src/bsp_tftlcd.c **** 		LCD_WR_DATA(0x77);
1026:Src/bsp_tftlcd.c **** 		LCD_WR_DATA(0x00);
1027:Src/bsp_tftlcd.c **** 		LCD_WR_DATA(0x66);
1028:Src/bsp_tftlcd.c **** 		LCD_WR_DATA(0x00);
1029:Src/bsp_tftlcd.c **** 		LCD_WR_DATA(0x88);
1030:Src/bsp_tftlcd.c **** 		LCD_WR_DATA(0x00);
1031:Src/bsp_tftlcd.c **** 		LCD_WR_DATA(0x99);
1032:Src/bsp_tftlcd.c **** 		LCD_WR_DATA(0x00);
1033:Src/bsp_tftlcd.c **** 		LCD_WR_DATA(0xBB);
1034:Src/bsp_tftlcd.c **** 		LCD_WR_DATA(0x00);
1035:Src/bsp_tftlcd.c **** 		LCD_WR_DATA(0x99);
1036:Src/bsp_tftlcd.c **** 		LCD_WR_DATA(0x00);
1037:Src/bsp_tftlcd.c **** 		LCD_WR_DATA(0x66);
1038:Src/bsp_tftlcd.c **** 		LCD_WR_DATA(0x00);
1039:Src/bsp_tftlcd.c **** 		LCD_WR_DATA(0x55);
1040:Src/bsp_tftlcd.c **** 		LCD_WR_DATA(0x00);
1041:Src/bsp_tftlcd.c **** 		LCD_WR_DATA(0x55);
1042:Src/bsp_tftlcd.c **** 		LCD_WR_DATA(0x00);
1043:Src/bsp_tftlcd.c **** 		LCD_WR_DATA(0x45);
1044:Src/bsp_tftlcd.c **** 		LCD_WR_DATA(0x00);
1045:Src/bsp_tftlcd.c **** 		LCD_WR_DATA(0x43);
1046:Src/bsp_tftlcd.c **** 		LCD_WR_DATA(0x00);
1047:Src/bsp_tftlcd.c **** 		LCD_WR_DATA(0x44);
1048:Src/bsp_tftlcd.c **** 		LCD_WR_DATA(0x00);
1049:Src/bsp_tftlcd.c **** 
1050:Src/bsp_tftlcd.c **** 		LCD_WR_REG(0xE7);
1051:Src/bsp_tftlcd.c **** 		LCD_WR_DATA(0x32);
1052:Src/bsp_tftlcd.c **** 		LCD_WR_DATA(0x00);
1053:Src/bsp_tftlcd.c **** 		LCD_WR_DATA(0x55);
1054:Src/bsp_tftlcd.c **** 		LCD_WR_DATA(0x00);
1055:Src/bsp_tftlcd.c **** 		LCD_WR_DATA(0x76);
1056:Src/bsp_tftlcd.c **** 		LCD_WR_DATA(0x00);
1057:Src/bsp_tftlcd.c **** 		LCD_WR_DATA(0x66);
1058:Src/bsp_tftlcd.c **** 		LCD_WR_DATA(0x00);
1059:Src/bsp_tftlcd.c **** 		LCD_WR_DATA(0x67);
1060:Src/bsp_tftlcd.c **** 		LCD_WR_DATA(0x00);
1061:Src/bsp_tftlcd.c **** 		LCD_WR_DATA(0x67);
1062:Src/bsp_tftlcd.c **** 		LCD_WR_DATA(0x00);
ARM GAS  /tmp/cco7znPM.s 			page 49


1063:Src/bsp_tftlcd.c **** 		LCD_WR_DATA(0x87);
1064:Src/bsp_tftlcd.c **** 		LCD_WR_DATA(0x00);
1065:Src/bsp_tftlcd.c **** 		LCD_WR_DATA(0x99);
1066:Src/bsp_tftlcd.c **** 		LCD_WR_DATA(0x00);
1067:Src/bsp_tftlcd.c **** 		LCD_WR_DATA(0xBB);
1068:Src/bsp_tftlcd.c **** 		LCD_WR_DATA(0x00);
1069:Src/bsp_tftlcd.c **** 		LCD_WR_DATA(0x99);
1070:Src/bsp_tftlcd.c **** 		LCD_WR_DATA(0x00);
1071:Src/bsp_tftlcd.c **** 		LCD_WR_DATA(0x77);
1072:Src/bsp_tftlcd.c **** 		LCD_WR_DATA(0x00);
1073:Src/bsp_tftlcd.c **** 		LCD_WR_DATA(0x44);
1074:Src/bsp_tftlcd.c **** 		LCD_WR_DATA(0x00);
1075:Src/bsp_tftlcd.c **** 		LCD_WR_DATA(0x56);
1076:Src/bsp_tftlcd.c **** 		LCD_WR_DATA(0x00);
1077:Src/bsp_tftlcd.c **** 		LCD_WR_DATA(0x23); 
1078:Src/bsp_tftlcd.c **** 		LCD_WR_DATA(0x00);
1079:Src/bsp_tftlcd.c **** 		LCD_WR_DATA(0x33);
1080:Src/bsp_tftlcd.c **** 		LCD_WR_DATA(0x00);
1081:Src/bsp_tftlcd.c **** 		LCD_WR_DATA(0x45);
1082:Src/bsp_tftlcd.c **** 		LCD_WR_DATA(0x00);
1083:Src/bsp_tftlcd.c **** 
1084:Src/bsp_tftlcd.c **** 		LCD_WR_REG(0xE8);
1085:Src/bsp_tftlcd.c **** 		LCD_WR_DATA(0x00);
1086:Src/bsp_tftlcd.c **** 		LCD_WR_DATA(0x00);
1087:Src/bsp_tftlcd.c **** 		LCD_WR_DATA(0x99);
1088:Src/bsp_tftlcd.c **** 		LCD_WR_DATA(0x00);
1089:Src/bsp_tftlcd.c **** 		LCD_WR_DATA(0x87);
1090:Src/bsp_tftlcd.c **** 		LCD_WR_DATA(0x00);
1091:Src/bsp_tftlcd.c **** 		LCD_WR_DATA(0x88);
1092:Src/bsp_tftlcd.c **** 		LCD_WR_DATA(0x00);
1093:Src/bsp_tftlcd.c **** 		LCD_WR_DATA(0x77);
1094:Src/bsp_tftlcd.c **** 		LCD_WR_DATA(0x00);
1095:Src/bsp_tftlcd.c **** 		LCD_WR_DATA(0x66);
1096:Src/bsp_tftlcd.c **** 		LCD_WR_DATA(0x00);
1097:Src/bsp_tftlcd.c **** 		LCD_WR_DATA(0x88);
1098:Src/bsp_tftlcd.c **** 		LCD_WR_DATA(0x00);
1099:Src/bsp_tftlcd.c **** 		LCD_WR_DATA(0xAA);
1100:Src/bsp_tftlcd.c **** 		LCD_WR_DATA(0x00);
1101:Src/bsp_tftlcd.c **** 		LCD_WR_DATA(0xBB);
1102:Src/bsp_tftlcd.c **** 		LCD_WR_DATA(0x00);
1103:Src/bsp_tftlcd.c **** 		LCD_WR_DATA(0x99);
1104:Src/bsp_tftlcd.c **** 		LCD_WR_DATA(0x00);
1105:Src/bsp_tftlcd.c **** 		LCD_WR_DATA(0x66);
1106:Src/bsp_tftlcd.c **** 		LCD_WR_DATA(0x00);
1107:Src/bsp_tftlcd.c **** 		LCD_WR_DATA(0x55);
1108:Src/bsp_tftlcd.c **** 		LCD_WR_DATA(0x00);
1109:Src/bsp_tftlcd.c **** 		LCD_WR_DATA(0x55);
1110:Src/bsp_tftlcd.c **** 		LCD_WR_DATA(0x00);
1111:Src/bsp_tftlcd.c **** 		LCD_WR_DATA(0x44);
1112:Src/bsp_tftlcd.c **** 		LCD_WR_DATA(0x00);
1113:Src/bsp_tftlcd.c **** 		LCD_WR_DATA(0x44);
1114:Src/bsp_tftlcd.c **** 		LCD_WR_DATA(0x00);
1115:Src/bsp_tftlcd.c **** 		LCD_WR_DATA(0x55);
1116:Src/bsp_tftlcd.c **** 		LCD_WR_DATA(0x00);
1117:Src/bsp_tftlcd.c **** 
1118:Src/bsp_tftlcd.c **** 		LCD_WR_REG(0xE9);
1119:Src/bsp_tftlcd.c **** 		LCD_WR_DATA(0xAA);
ARM GAS  /tmp/cco7znPM.s 			page 50


1120:Src/bsp_tftlcd.c **** 		LCD_WR_DATA(0x00);
1121:Src/bsp_tftlcd.c **** 		LCD_WR_DATA(0x00);
1122:Src/bsp_tftlcd.c **** 		LCD_WR_DATA(0x00);
1123:Src/bsp_tftlcd.c **** 
1124:Src/bsp_tftlcd.c **** 		LCD_WR_REG(0x00);
1125:Src/bsp_tftlcd.c **** 		LCD_WR_DATA(0xAA);
1126:Src/bsp_tftlcd.c **** 
1127:Src/bsp_tftlcd.c **** 		LCD_WR_REG(0xCF);
1128:Src/bsp_tftlcd.c **** 		LCD_WR_DATA(0x00);
1129:Src/bsp_tftlcd.c **** 		LCD_WR_DATA(0x00);
1130:Src/bsp_tftlcd.c **** 		LCD_WR_DATA(0x00);
1131:Src/bsp_tftlcd.c **** 		LCD_WR_DATA(0x00);
1132:Src/bsp_tftlcd.c **** 		LCD_WR_DATA(0x00);
1133:Src/bsp_tftlcd.c **** 		LCD_WR_DATA(0x00);
1134:Src/bsp_tftlcd.c **** 		LCD_WR_DATA(0x00);
1135:Src/bsp_tftlcd.c **** 		LCD_WR_DATA(0x00);
1136:Src/bsp_tftlcd.c **** 		LCD_WR_DATA(0x00);
1137:Src/bsp_tftlcd.c **** 		LCD_WR_DATA(0x00);
1138:Src/bsp_tftlcd.c **** 		LCD_WR_DATA(0x00);
1139:Src/bsp_tftlcd.c **** 		LCD_WR_DATA(0x00);
1140:Src/bsp_tftlcd.c **** 		LCD_WR_DATA(0x00);
1141:Src/bsp_tftlcd.c **** 		LCD_WR_DATA(0x00);
1142:Src/bsp_tftlcd.c **** 		LCD_WR_DATA(0x00);
1143:Src/bsp_tftlcd.c **** 		LCD_WR_DATA(0x00);
1144:Src/bsp_tftlcd.c **** 		LCD_WR_DATA(0x00);
1145:Src/bsp_tftlcd.c **** 
1146:Src/bsp_tftlcd.c **** 		LCD_WR_REG(0xF0);
1147:Src/bsp_tftlcd.c **** 		LCD_WR_DATA(0x00);
1148:Src/bsp_tftlcd.c **** 		LCD_WR_DATA(0x50);
1149:Src/bsp_tftlcd.c **** 		LCD_WR_DATA(0x00);
1150:Src/bsp_tftlcd.c **** 		LCD_WR_DATA(0x00);
1151:Src/bsp_tftlcd.c **** 		LCD_WR_DATA(0x00);
1152:Src/bsp_tftlcd.c **** 
1153:Src/bsp_tftlcd.c **** 		LCD_WR_REG(0xF3);
1154:Src/bsp_tftlcd.c **** 		LCD_WR_DATA(0x00);
1155:Src/bsp_tftlcd.c **** 
1156:Src/bsp_tftlcd.c **** 		LCD_WR_REG(0xF9);
1157:Src/bsp_tftlcd.c **** 		LCD_WR_DATA(0x06);
1158:Src/bsp_tftlcd.c **** 		LCD_WR_DATA(0x10);
1159:Src/bsp_tftlcd.c **** 		LCD_WR_DATA(0x29);
1160:Src/bsp_tftlcd.c **** 		LCD_WR_DATA(0x00);
1161:Src/bsp_tftlcd.c **** 
1162:Src/bsp_tftlcd.c **** 		LCD_WR_REG(0x3A);
1163:Src/bsp_tftlcd.c **** 		LCD_WR_DATA(0x55);	//66
1164:Src/bsp_tftlcd.c **** 
1165:Src/bsp_tftlcd.c **** 		LCD_WR_REG(0x11);
1166:Src/bsp_tftlcd.c **** 		HAL_Delay(100);
1167:Src/bsp_tftlcd.c **** 		LCD_WR_REG(0x29);
1168:Src/bsp_tftlcd.c **** 		LCD_WR_REG(0x35);
1169:Src/bsp_tftlcd.c **** 		LCD_WR_DATA(0x00);
1170:Src/bsp_tftlcd.c **** 
1171:Src/bsp_tftlcd.c **** 		LCD_WR_REG(0x51);
1172:Src/bsp_tftlcd.c **** 		LCD_WR_DATA(0xFF);
1173:Src/bsp_tftlcd.c **** 		LCD_WR_REG(0x53);
1174:Src/bsp_tftlcd.c **** 		LCD_WR_DATA(0x2C);
1175:Src/bsp_tftlcd.c **** 		LCD_WR_REG(0x55);
1176:Src/bsp_tftlcd.c **** 		LCD_WR_DATA(0x82);
ARM GAS  /tmp/cco7znPM.s 			page 51


1177:Src/bsp_tftlcd.c **** 		LCD_WR_REG(0x2c);
1178:Src/bsp_tftlcd.c **** 	}else if(lcddev.id==0x5510)
 1621              		.loc 1 1178 0
 1622 0148 45F21052 		movw	r2, #21776
 1623 014c 9342     		cmp	r3, r2
 1624 014e 01F0D180 		beq	.L120
 1625              	.L111:
1179:Src/bsp_tftlcd.c **** 	{
1180:Src/bsp_tftlcd.c **** 		LCD_WriteReg(0xF000,0x55);
1181:Src/bsp_tftlcd.c **** 		LCD_WriteReg(0xF001,0xAA);
1182:Src/bsp_tftlcd.c **** 		LCD_WriteReg(0xF002,0x52);
1183:Src/bsp_tftlcd.c **** 		LCD_WriteReg(0xF003,0x08);
1184:Src/bsp_tftlcd.c **** 		LCD_WriteReg(0xF004,0x01);
1185:Src/bsp_tftlcd.c **** 		//AVDD Set AVDD 5.2V
1186:Src/bsp_tftlcd.c **** 		LCD_WriteReg(0xB000,0x0D);
1187:Src/bsp_tftlcd.c **** 		LCD_WriteReg(0xB001,0x0D);
1188:Src/bsp_tftlcd.c **** 		LCD_WriteReg(0xB002,0x0D);
1189:Src/bsp_tftlcd.c **** 		//AVDD ratio
1190:Src/bsp_tftlcd.c **** 		LCD_WriteReg(0xB600,0x34);
1191:Src/bsp_tftlcd.c **** 		LCD_WriteReg(0xB601,0x34);
1192:Src/bsp_tftlcd.c **** 		LCD_WriteReg(0xB602,0x34);
1193:Src/bsp_tftlcd.c **** 		//AVEE -5.2V
1194:Src/bsp_tftlcd.c **** 		LCD_WriteReg(0xB100,0x0D);
1195:Src/bsp_tftlcd.c **** 		LCD_WriteReg(0xB101,0x0D);
1196:Src/bsp_tftlcd.c **** 		LCD_WriteReg(0xB102,0x0D);
1197:Src/bsp_tftlcd.c **** 		//AVEE ratio
1198:Src/bsp_tftlcd.c **** 		LCD_WriteReg(0xB700,0x34);
1199:Src/bsp_tftlcd.c **** 		LCD_WriteReg(0xB701,0x34);
1200:Src/bsp_tftlcd.c **** 		LCD_WriteReg(0xB702,0x34);
1201:Src/bsp_tftlcd.c **** 		//VCL -2.5V
1202:Src/bsp_tftlcd.c **** 		LCD_WriteReg(0xB200,0x00);
1203:Src/bsp_tftlcd.c **** 		LCD_WriteReg(0xB201,0x00);
1204:Src/bsp_tftlcd.c **** 		LCD_WriteReg(0xB202,0x00);
1205:Src/bsp_tftlcd.c **** 		//VCL ratio
1206:Src/bsp_tftlcd.c **** 		LCD_WriteReg(0xB800,0x24);
1207:Src/bsp_tftlcd.c **** 		LCD_WriteReg(0xB801,0x24);
1208:Src/bsp_tftlcd.c **** 		LCD_WriteReg(0xB802,0x24);
1209:Src/bsp_tftlcd.c **** 		//VGH 15V (Free pump)
1210:Src/bsp_tftlcd.c **** 		LCD_WriteReg(0xBF00,0x01);
1211:Src/bsp_tftlcd.c **** 		LCD_WriteReg(0xB300,0x0F);
1212:Src/bsp_tftlcd.c **** 		LCD_WriteReg(0xB301,0x0F);
1213:Src/bsp_tftlcd.c **** 		LCD_WriteReg(0xB302,0x0F);
1214:Src/bsp_tftlcd.c **** 		//VGH ratio
1215:Src/bsp_tftlcd.c **** 		LCD_WriteReg(0xB900,0x34);
1216:Src/bsp_tftlcd.c **** 		LCD_WriteReg(0xB901,0x34);
1217:Src/bsp_tftlcd.c **** 		LCD_WriteReg(0xB902,0x34);
1218:Src/bsp_tftlcd.c **** 		//VGL_REG -10V
1219:Src/bsp_tftlcd.c **** 		LCD_WriteReg(0xB500,0x08);
1220:Src/bsp_tftlcd.c **** 		LCD_WriteReg(0xB501,0x08);
1221:Src/bsp_tftlcd.c **** 		LCD_WriteReg(0xB502,0x08);
1222:Src/bsp_tftlcd.c **** 		LCD_WriteReg(0xC200,0x03);
1223:Src/bsp_tftlcd.c **** 		//VGLX ratio
1224:Src/bsp_tftlcd.c **** 		LCD_WriteReg(0xBA00,0x24);
1225:Src/bsp_tftlcd.c **** 		LCD_WriteReg(0xBA01,0x24);
1226:Src/bsp_tftlcd.c **** 		LCD_WriteReg(0xBA02,0x24);
1227:Src/bsp_tftlcd.c **** 		//VGMP/VGSP 4.5V/0V
1228:Src/bsp_tftlcd.c **** 		LCD_WriteReg(0xBC00,0x00);
ARM GAS  /tmp/cco7znPM.s 			page 52


1229:Src/bsp_tftlcd.c **** 		LCD_WriteReg(0xBC01,0x78);
1230:Src/bsp_tftlcd.c **** 		LCD_WriteReg(0xBC02,0x00);
1231:Src/bsp_tftlcd.c **** 		//VGMN/VGSN -4.5V/0V
1232:Src/bsp_tftlcd.c **** 		LCD_WriteReg(0xBD00,0x00);
1233:Src/bsp_tftlcd.c **** 		LCD_WriteReg(0xBD01,0x78);
1234:Src/bsp_tftlcd.c **** 		LCD_WriteReg(0xBD02,0x00);
1235:Src/bsp_tftlcd.c **** 		//VCOM
1236:Src/bsp_tftlcd.c **** 		LCD_WriteReg(0xBE00,0x00);
1237:Src/bsp_tftlcd.c **** 		LCD_WriteReg(0xBE01,0x64);
1238:Src/bsp_tftlcd.c **** 		//Gamma Setting
1239:Src/bsp_tftlcd.c **** 		LCD_WriteReg(0xD100,0x00);
1240:Src/bsp_tftlcd.c **** 		LCD_WriteReg(0xD101,0x33);
1241:Src/bsp_tftlcd.c **** 		LCD_WriteReg(0xD102,0x00);
1242:Src/bsp_tftlcd.c **** 		LCD_WriteReg(0xD103,0x34);
1243:Src/bsp_tftlcd.c **** 		LCD_WriteReg(0xD104,0x00);
1244:Src/bsp_tftlcd.c **** 		LCD_WriteReg(0xD105,0x3A);
1245:Src/bsp_tftlcd.c **** 		LCD_WriteReg(0xD106,0x00);
1246:Src/bsp_tftlcd.c **** 		LCD_WriteReg(0xD107,0x4A);
1247:Src/bsp_tftlcd.c **** 		LCD_WriteReg(0xD108,0x00);
1248:Src/bsp_tftlcd.c **** 		LCD_WriteReg(0xD109,0x5C);
1249:Src/bsp_tftlcd.c **** 		LCD_WriteReg(0xD10A,0x00);
1250:Src/bsp_tftlcd.c **** 		LCD_WriteReg(0xD10B,0x81);
1251:Src/bsp_tftlcd.c **** 		LCD_WriteReg(0xD10C,0x00);
1252:Src/bsp_tftlcd.c **** 		LCD_WriteReg(0xD10D,0xA6);
1253:Src/bsp_tftlcd.c **** 		LCD_WriteReg(0xD10E,0x00);
1254:Src/bsp_tftlcd.c **** 		LCD_WriteReg(0xD10F,0xE5);
1255:Src/bsp_tftlcd.c **** 		LCD_WriteReg(0xD110,0x01);
1256:Src/bsp_tftlcd.c **** 		LCD_WriteReg(0xD111,0x13);
1257:Src/bsp_tftlcd.c **** 		LCD_WriteReg(0xD112,0x01);
1258:Src/bsp_tftlcd.c **** 		LCD_WriteReg(0xD113,0x54);
1259:Src/bsp_tftlcd.c **** 		LCD_WriteReg(0xD114,0x01);
1260:Src/bsp_tftlcd.c **** 		LCD_WriteReg(0xD115,0x82);
1261:Src/bsp_tftlcd.c **** 		LCD_WriteReg(0xD116,0x01);
1262:Src/bsp_tftlcd.c **** 		LCD_WriteReg(0xD117,0xCA);
1263:Src/bsp_tftlcd.c **** 		LCD_WriteReg(0xD118,0x02);
1264:Src/bsp_tftlcd.c **** 		LCD_WriteReg(0xD119,0x00);
1265:Src/bsp_tftlcd.c **** 		LCD_WriteReg(0xD11A,0x02);
1266:Src/bsp_tftlcd.c **** 		LCD_WriteReg(0xD11B,0x01);
1267:Src/bsp_tftlcd.c **** 		LCD_WriteReg(0xD11C,0x02);
1268:Src/bsp_tftlcd.c **** 		LCD_WriteReg(0xD11D,0x34);
1269:Src/bsp_tftlcd.c **** 		LCD_WriteReg(0xD11E,0x02);
1270:Src/bsp_tftlcd.c **** 		LCD_WriteReg(0xD11F,0x67);
1271:Src/bsp_tftlcd.c **** 		LCD_WriteReg(0xD120,0x02);
1272:Src/bsp_tftlcd.c **** 		LCD_WriteReg(0xD121,0x84);
1273:Src/bsp_tftlcd.c **** 		LCD_WriteReg(0xD122,0x02);
1274:Src/bsp_tftlcd.c **** 		LCD_WriteReg(0xD123,0xA4);
1275:Src/bsp_tftlcd.c **** 		LCD_WriteReg(0xD124,0x02);
1276:Src/bsp_tftlcd.c **** 		LCD_WriteReg(0xD125,0xB7);
1277:Src/bsp_tftlcd.c **** 		LCD_WriteReg(0xD126,0x02);
1278:Src/bsp_tftlcd.c **** 		LCD_WriteReg(0xD127,0xCF);
1279:Src/bsp_tftlcd.c **** 		LCD_WriteReg(0xD128,0x02);
1280:Src/bsp_tftlcd.c **** 		LCD_WriteReg(0xD129,0xDE);
1281:Src/bsp_tftlcd.c **** 		LCD_WriteReg(0xD12A,0x02);
1282:Src/bsp_tftlcd.c **** 		LCD_WriteReg(0xD12B,0xF2);
1283:Src/bsp_tftlcd.c **** 		LCD_WriteReg(0xD12C,0x02);
1284:Src/bsp_tftlcd.c **** 		LCD_WriteReg(0xD12D,0xFE);
1285:Src/bsp_tftlcd.c **** 		LCD_WriteReg(0xD12E,0x03);
ARM GAS  /tmp/cco7znPM.s 			page 53


1286:Src/bsp_tftlcd.c **** 		LCD_WriteReg(0xD12F,0x10);
1287:Src/bsp_tftlcd.c **** 		LCD_WriteReg(0xD130,0x03);
1288:Src/bsp_tftlcd.c **** 		LCD_WriteReg(0xD131,0x33);
1289:Src/bsp_tftlcd.c **** 		LCD_WriteReg(0xD132,0x03);
1290:Src/bsp_tftlcd.c **** 		LCD_WriteReg(0xD133,0x6D);
1291:Src/bsp_tftlcd.c **** 		LCD_WriteReg(0xD200,0x00);
1292:Src/bsp_tftlcd.c **** 		LCD_WriteReg(0xD201,0x33);
1293:Src/bsp_tftlcd.c **** 		LCD_WriteReg(0xD202,0x00);
1294:Src/bsp_tftlcd.c **** 		LCD_WriteReg(0xD203,0x34);
1295:Src/bsp_tftlcd.c **** 		LCD_WriteReg(0xD204,0x00);
1296:Src/bsp_tftlcd.c **** 		LCD_WriteReg(0xD205,0x3A);
1297:Src/bsp_tftlcd.c **** 		LCD_WriteReg(0xD206,0x00);
1298:Src/bsp_tftlcd.c **** 		LCD_WriteReg(0xD207,0x4A);
1299:Src/bsp_tftlcd.c **** 		LCD_WriteReg(0xD208,0x00);
1300:Src/bsp_tftlcd.c **** 		LCD_WriteReg(0xD209,0x5C);
1301:Src/bsp_tftlcd.c **** 		LCD_WriteReg(0xD20A,0x00);
1302:Src/bsp_tftlcd.c **** 
1303:Src/bsp_tftlcd.c **** 		LCD_WriteReg(0xD20B,0x81);
1304:Src/bsp_tftlcd.c **** 		LCD_WriteReg(0xD20C,0x00);
1305:Src/bsp_tftlcd.c **** 		LCD_WriteReg(0xD20D,0xA6);
1306:Src/bsp_tftlcd.c **** 		LCD_WriteReg(0xD20E,0x00);
1307:Src/bsp_tftlcd.c **** 		LCD_WriteReg(0xD20F,0xE5);
1308:Src/bsp_tftlcd.c **** 		LCD_WriteReg(0xD210,0x01);
1309:Src/bsp_tftlcd.c **** 		LCD_WriteReg(0xD211,0x13);
1310:Src/bsp_tftlcd.c **** 		LCD_WriteReg(0xD212,0x01);
1311:Src/bsp_tftlcd.c **** 		LCD_WriteReg(0xD213,0x54);
1312:Src/bsp_tftlcd.c **** 		LCD_WriteReg(0xD214,0x01);
1313:Src/bsp_tftlcd.c **** 		LCD_WriteReg(0xD215,0x82);
1314:Src/bsp_tftlcd.c **** 		LCD_WriteReg(0xD216,0x01);
1315:Src/bsp_tftlcd.c **** 		LCD_WriteReg(0xD217,0xCA);
1316:Src/bsp_tftlcd.c **** 		LCD_WriteReg(0xD218,0x02);
1317:Src/bsp_tftlcd.c **** 		LCD_WriteReg(0xD219,0x00);
1318:Src/bsp_tftlcd.c **** 		LCD_WriteReg(0xD21A,0x02);
1319:Src/bsp_tftlcd.c **** 		LCD_WriteReg(0xD21B,0x01);
1320:Src/bsp_tftlcd.c **** 		LCD_WriteReg(0xD21C,0x02);
1321:Src/bsp_tftlcd.c **** 		LCD_WriteReg(0xD21D,0x34);
1322:Src/bsp_tftlcd.c **** 		LCD_WriteReg(0xD21E,0x02);
1323:Src/bsp_tftlcd.c **** 		LCD_WriteReg(0xD21F,0x67);
1324:Src/bsp_tftlcd.c **** 		LCD_WriteReg(0xD220,0x02);
1325:Src/bsp_tftlcd.c **** 		LCD_WriteReg(0xD221,0x84);
1326:Src/bsp_tftlcd.c **** 		LCD_WriteReg(0xD222,0x02);
1327:Src/bsp_tftlcd.c **** 		LCD_WriteReg(0xD223,0xA4);
1328:Src/bsp_tftlcd.c **** 		LCD_WriteReg(0xD224,0x02);
1329:Src/bsp_tftlcd.c **** 		LCD_WriteReg(0xD225,0xB7);
1330:Src/bsp_tftlcd.c **** 		LCD_WriteReg(0xD226,0x02);
1331:Src/bsp_tftlcd.c **** 		LCD_WriteReg(0xD227,0xCF);
1332:Src/bsp_tftlcd.c **** 		LCD_WriteReg(0xD228,0x02);
1333:Src/bsp_tftlcd.c **** 		LCD_WriteReg(0xD229,0xDE);
1334:Src/bsp_tftlcd.c **** 		LCD_WriteReg(0xD22A,0x02);
1335:Src/bsp_tftlcd.c **** 		LCD_WriteReg(0xD22B,0xF2);
1336:Src/bsp_tftlcd.c **** 		LCD_WriteReg(0xD22C,0x02);
1337:Src/bsp_tftlcd.c **** 		LCD_WriteReg(0xD22D,0xFE);
1338:Src/bsp_tftlcd.c **** 		LCD_WriteReg(0xD22E,0x03);
1339:Src/bsp_tftlcd.c **** 		LCD_WriteReg(0xD22F,0x10);
1340:Src/bsp_tftlcd.c **** 		LCD_WriteReg(0xD230,0x03);
1341:Src/bsp_tftlcd.c **** 		LCD_WriteReg(0xD231,0x33);
1342:Src/bsp_tftlcd.c **** 		LCD_WriteReg(0xD232,0x03);
ARM GAS  /tmp/cco7znPM.s 			page 54


1343:Src/bsp_tftlcd.c **** 		LCD_WriteReg(0xD233,0x6D);
1344:Src/bsp_tftlcd.c **** 		LCD_WriteReg(0xD300,0x00);
1345:Src/bsp_tftlcd.c **** 		LCD_WriteReg(0xD301,0x33);
1346:Src/bsp_tftlcd.c **** 		LCD_WriteReg(0xD302,0x00);
1347:Src/bsp_tftlcd.c **** 		LCD_WriteReg(0xD303,0x34);
1348:Src/bsp_tftlcd.c **** 		LCD_WriteReg(0xD304,0x00);
1349:Src/bsp_tftlcd.c **** 		LCD_WriteReg(0xD305,0x3A);
1350:Src/bsp_tftlcd.c **** 		LCD_WriteReg(0xD306,0x00);
1351:Src/bsp_tftlcd.c **** 		LCD_WriteReg(0xD307,0x4A);
1352:Src/bsp_tftlcd.c **** 		LCD_WriteReg(0xD308,0x00);
1353:Src/bsp_tftlcd.c **** 		LCD_WriteReg(0xD309,0x5C);
1354:Src/bsp_tftlcd.c **** 		LCD_WriteReg(0xD30A,0x00);
1355:Src/bsp_tftlcd.c **** 
1356:Src/bsp_tftlcd.c **** 		LCD_WriteReg(0xD30B,0x81);
1357:Src/bsp_tftlcd.c **** 		LCD_WriteReg(0xD30C,0x00);
1358:Src/bsp_tftlcd.c **** 		LCD_WriteReg(0xD30D,0xA6);
1359:Src/bsp_tftlcd.c **** 		LCD_WriteReg(0xD30E,0x00);
1360:Src/bsp_tftlcd.c **** 		LCD_WriteReg(0xD30F,0xE5);
1361:Src/bsp_tftlcd.c **** 		LCD_WriteReg(0xD310,0x01);
1362:Src/bsp_tftlcd.c **** 		LCD_WriteReg(0xD311,0x13);
1363:Src/bsp_tftlcd.c **** 		LCD_WriteReg(0xD312,0x01);
1364:Src/bsp_tftlcd.c **** 		LCD_WriteReg(0xD313,0x54);
1365:Src/bsp_tftlcd.c **** 		LCD_WriteReg(0xD314,0x01);
1366:Src/bsp_tftlcd.c **** 		LCD_WriteReg(0xD315,0x82);
1367:Src/bsp_tftlcd.c **** 		LCD_WriteReg(0xD316,0x01);
1368:Src/bsp_tftlcd.c **** 		LCD_WriteReg(0xD317,0xCA);
1369:Src/bsp_tftlcd.c **** 		LCD_WriteReg(0xD318,0x02);
1370:Src/bsp_tftlcd.c **** 		LCD_WriteReg(0xD319,0x00);
1371:Src/bsp_tftlcd.c **** 		LCD_WriteReg(0xD31A,0x02);
1372:Src/bsp_tftlcd.c **** 		LCD_WriteReg(0xD31B,0x01);
1373:Src/bsp_tftlcd.c **** 		LCD_WriteReg(0xD31C,0x02);
1374:Src/bsp_tftlcd.c **** 		LCD_WriteReg(0xD31D,0x34);
1375:Src/bsp_tftlcd.c **** 		LCD_WriteReg(0xD31E,0x02);
1376:Src/bsp_tftlcd.c **** 		LCD_WriteReg(0xD31F,0x67);
1377:Src/bsp_tftlcd.c **** 		LCD_WriteReg(0xD320,0x02);
1378:Src/bsp_tftlcd.c **** 		LCD_WriteReg(0xD321,0x84);
1379:Src/bsp_tftlcd.c **** 		LCD_WriteReg(0xD322,0x02);
1380:Src/bsp_tftlcd.c **** 		LCD_WriteReg(0xD323,0xA4);
1381:Src/bsp_tftlcd.c **** 		LCD_WriteReg(0xD324,0x02);
1382:Src/bsp_tftlcd.c **** 		LCD_WriteReg(0xD325,0xB7);
1383:Src/bsp_tftlcd.c **** 		LCD_WriteReg(0xD326,0x02);
1384:Src/bsp_tftlcd.c **** 		LCD_WriteReg(0xD327,0xCF);
1385:Src/bsp_tftlcd.c **** 		LCD_WriteReg(0xD328,0x02);
1386:Src/bsp_tftlcd.c **** 		LCD_WriteReg(0xD329,0xDE);
1387:Src/bsp_tftlcd.c **** 		LCD_WriteReg(0xD32A,0x02);
1388:Src/bsp_tftlcd.c **** 		LCD_WriteReg(0xD32B,0xF2);
1389:Src/bsp_tftlcd.c **** 		LCD_WriteReg(0xD32C,0x02);
1390:Src/bsp_tftlcd.c **** 		LCD_WriteReg(0xD32D,0xFE);
1391:Src/bsp_tftlcd.c **** 		LCD_WriteReg(0xD32E,0x03);
1392:Src/bsp_tftlcd.c **** 		LCD_WriteReg(0xD32F,0x10);
1393:Src/bsp_tftlcd.c **** 		LCD_WriteReg(0xD330,0x03);
1394:Src/bsp_tftlcd.c **** 		LCD_WriteReg(0xD331,0x33);
1395:Src/bsp_tftlcd.c **** 		LCD_WriteReg(0xD332,0x03);
1396:Src/bsp_tftlcd.c **** 		LCD_WriteReg(0xD333,0x6D);
1397:Src/bsp_tftlcd.c **** 		LCD_WriteReg(0xD400,0x00);
1398:Src/bsp_tftlcd.c **** 		LCD_WriteReg(0xD401,0x33);
1399:Src/bsp_tftlcd.c **** 		LCD_WriteReg(0xD402,0x00);
ARM GAS  /tmp/cco7znPM.s 			page 55


1400:Src/bsp_tftlcd.c **** 		LCD_WriteReg(0xD403,0x34);
1401:Src/bsp_tftlcd.c **** 		LCD_WriteReg(0xD404,0x00);
1402:Src/bsp_tftlcd.c **** 		LCD_WriteReg(0xD405,0x3A);
1403:Src/bsp_tftlcd.c **** 		LCD_WriteReg(0xD406,0x00);
1404:Src/bsp_tftlcd.c **** 		LCD_WriteReg(0xD407,0x4A);
1405:Src/bsp_tftlcd.c **** 		LCD_WriteReg(0xD408,0x00);
1406:Src/bsp_tftlcd.c **** 		LCD_WriteReg(0xD409,0x5C);
1407:Src/bsp_tftlcd.c **** 		LCD_WriteReg(0xD40A,0x00);
1408:Src/bsp_tftlcd.c **** 		LCD_WriteReg(0xD40B,0x81);
1409:Src/bsp_tftlcd.c **** 
1410:Src/bsp_tftlcd.c **** 		LCD_WriteReg(0xD40C,0x00);
1411:Src/bsp_tftlcd.c **** 		LCD_WriteReg(0xD40D,0xA6);
1412:Src/bsp_tftlcd.c **** 		LCD_WriteReg(0xD40E,0x00);
1413:Src/bsp_tftlcd.c **** 		LCD_WriteReg(0xD40F,0xE5);
1414:Src/bsp_tftlcd.c **** 		LCD_WriteReg(0xD410,0x01);
1415:Src/bsp_tftlcd.c **** 		LCD_WriteReg(0xD411,0x13);
1416:Src/bsp_tftlcd.c **** 		LCD_WriteReg(0xD412,0x01);
1417:Src/bsp_tftlcd.c **** 		LCD_WriteReg(0xD413,0x54);
1418:Src/bsp_tftlcd.c **** 		LCD_WriteReg(0xD414,0x01);
1419:Src/bsp_tftlcd.c **** 		LCD_WriteReg(0xD415,0x82);
1420:Src/bsp_tftlcd.c **** 		LCD_WriteReg(0xD416,0x01);
1421:Src/bsp_tftlcd.c **** 		LCD_WriteReg(0xD417,0xCA);
1422:Src/bsp_tftlcd.c **** 		LCD_WriteReg(0xD418,0x02);
1423:Src/bsp_tftlcd.c **** 		LCD_WriteReg(0xD419,0x00);
1424:Src/bsp_tftlcd.c **** 		LCD_WriteReg(0xD41A,0x02);
1425:Src/bsp_tftlcd.c **** 		LCD_WriteReg(0xD41B,0x01);
1426:Src/bsp_tftlcd.c **** 		LCD_WriteReg(0xD41C,0x02);
1427:Src/bsp_tftlcd.c **** 		LCD_WriteReg(0xD41D,0x34);
1428:Src/bsp_tftlcd.c **** 		LCD_WriteReg(0xD41E,0x02);
1429:Src/bsp_tftlcd.c **** 		LCD_WriteReg(0xD41F,0x67);
1430:Src/bsp_tftlcd.c **** 		LCD_WriteReg(0xD420,0x02);
1431:Src/bsp_tftlcd.c **** 		LCD_WriteReg(0xD421,0x84);
1432:Src/bsp_tftlcd.c **** 		LCD_WriteReg(0xD422,0x02);
1433:Src/bsp_tftlcd.c **** 		LCD_WriteReg(0xD423,0xA4);
1434:Src/bsp_tftlcd.c **** 		LCD_WriteReg(0xD424,0x02);
1435:Src/bsp_tftlcd.c **** 		LCD_WriteReg(0xD425,0xB7);
1436:Src/bsp_tftlcd.c **** 		LCD_WriteReg(0xD426,0x02);
1437:Src/bsp_tftlcd.c **** 		LCD_WriteReg(0xD427,0xCF);
1438:Src/bsp_tftlcd.c **** 		LCD_WriteReg(0xD428,0x02);
1439:Src/bsp_tftlcd.c **** 		LCD_WriteReg(0xD429,0xDE);
1440:Src/bsp_tftlcd.c **** 		LCD_WriteReg(0xD42A,0x02);
1441:Src/bsp_tftlcd.c **** 		LCD_WriteReg(0xD42B,0xF2);
1442:Src/bsp_tftlcd.c **** 		LCD_WriteReg(0xD42C,0x02);
1443:Src/bsp_tftlcd.c **** 		LCD_WriteReg(0xD42D,0xFE);
1444:Src/bsp_tftlcd.c **** 		LCD_WriteReg(0xD42E,0x03);
1445:Src/bsp_tftlcd.c **** 		LCD_WriteReg(0xD42F,0x10);
1446:Src/bsp_tftlcd.c **** 		LCD_WriteReg(0xD430,0x03);
1447:Src/bsp_tftlcd.c **** 		LCD_WriteReg(0xD431,0x33);
1448:Src/bsp_tftlcd.c **** 		LCD_WriteReg(0xD432,0x03);
1449:Src/bsp_tftlcd.c **** 		LCD_WriteReg(0xD433,0x6D);
1450:Src/bsp_tftlcd.c **** 		LCD_WriteReg(0xD500,0x00);
1451:Src/bsp_tftlcd.c **** 		LCD_WriteReg(0xD501,0x33);
1452:Src/bsp_tftlcd.c **** 		LCD_WriteReg(0xD502,0x00);
1453:Src/bsp_tftlcd.c **** 		LCD_WriteReg(0xD503,0x34);
1454:Src/bsp_tftlcd.c **** 		LCD_WriteReg(0xD504,0x00);
1455:Src/bsp_tftlcd.c **** 		LCD_WriteReg(0xD505,0x3A);
1456:Src/bsp_tftlcd.c **** 		LCD_WriteReg(0xD506,0x00);
ARM GAS  /tmp/cco7znPM.s 			page 56


1457:Src/bsp_tftlcd.c **** 		LCD_WriteReg(0xD507,0x4A);
1458:Src/bsp_tftlcd.c **** 		LCD_WriteReg(0xD508,0x00);
1459:Src/bsp_tftlcd.c **** 		LCD_WriteReg(0xD509,0x5C);
1460:Src/bsp_tftlcd.c **** 		LCD_WriteReg(0xD50A,0x00);
1461:Src/bsp_tftlcd.c **** 		LCD_WriteReg(0xD50B,0x81);
1462:Src/bsp_tftlcd.c **** 
1463:Src/bsp_tftlcd.c **** 		LCD_WriteReg(0xD50C,0x00);
1464:Src/bsp_tftlcd.c **** 		LCD_WriteReg(0xD50D,0xA6);
1465:Src/bsp_tftlcd.c **** 		LCD_WriteReg(0xD50E,0x00);
1466:Src/bsp_tftlcd.c **** 		LCD_WriteReg(0xD50F,0xE5);
1467:Src/bsp_tftlcd.c **** 		LCD_WriteReg(0xD510,0x01);
1468:Src/bsp_tftlcd.c **** 		LCD_WriteReg(0xD511,0x13);
1469:Src/bsp_tftlcd.c **** 		LCD_WriteReg(0xD512,0x01);
1470:Src/bsp_tftlcd.c **** 		LCD_WriteReg(0xD513,0x54);
1471:Src/bsp_tftlcd.c **** 		LCD_WriteReg(0xD514,0x01);
1472:Src/bsp_tftlcd.c **** 		LCD_WriteReg(0xD515,0x82);
1473:Src/bsp_tftlcd.c **** 		LCD_WriteReg(0xD516,0x01);
1474:Src/bsp_tftlcd.c **** 		LCD_WriteReg(0xD517,0xCA);
1475:Src/bsp_tftlcd.c **** 		LCD_WriteReg(0xD518,0x02);
1476:Src/bsp_tftlcd.c **** 		LCD_WriteReg(0xD519,0x00);
1477:Src/bsp_tftlcd.c **** 		LCD_WriteReg(0xD51A,0x02);
1478:Src/bsp_tftlcd.c **** 		LCD_WriteReg(0xD51B,0x01);
1479:Src/bsp_tftlcd.c **** 		LCD_WriteReg(0xD51C,0x02);
1480:Src/bsp_tftlcd.c **** 		LCD_WriteReg(0xD51D,0x34);
1481:Src/bsp_tftlcd.c **** 		LCD_WriteReg(0xD51E,0x02);
1482:Src/bsp_tftlcd.c **** 		LCD_WriteReg(0xD51F,0x67);
1483:Src/bsp_tftlcd.c **** 		LCD_WriteReg(0xD520,0x02);
1484:Src/bsp_tftlcd.c **** 		LCD_WriteReg(0xD521,0x84);
1485:Src/bsp_tftlcd.c **** 		LCD_WriteReg(0xD522,0x02);
1486:Src/bsp_tftlcd.c **** 		LCD_WriteReg(0xD523,0xA4);
1487:Src/bsp_tftlcd.c **** 		LCD_WriteReg(0xD524,0x02);
1488:Src/bsp_tftlcd.c **** 		LCD_WriteReg(0xD525,0xB7);
1489:Src/bsp_tftlcd.c **** 		LCD_WriteReg(0xD526,0x02);
1490:Src/bsp_tftlcd.c **** 		LCD_WriteReg(0xD527,0xCF);
1491:Src/bsp_tftlcd.c **** 		LCD_WriteReg(0xD528,0x02);
1492:Src/bsp_tftlcd.c **** 		LCD_WriteReg(0xD529,0xDE);
1493:Src/bsp_tftlcd.c **** 		LCD_WriteReg(0xD52A,0x02);
1494:Src/bsp_tftlcd.c **** 		LCD_WriteReg(0xD52B,0xF2);
1495:Src/bsp_tftlcd.c **** 		LCD_WriteReg(0xD52C,0x02);
1496:Src/bsp_tftlcd.c **** 		LCD_WriteReg(0xD52D,0xFE);
1497:Src/bsp_tftlcd.c **** 		LCD_WriteReg(0xD52E,0x03);
1498:Src/bsp_tftlcd.c **** 		LCD_WriteReg(0xD52F,0x10);
1499:Src/bsp_tftlcd.c **** 		LCD_WriteReg(0xD530,0x03);
1500:Src/bsp_tftlcd.c **** 		LCD_WriteReg(0xD531,0x33);
1501:Src/bsp_tftlcd.c **** 		LCD_WriteReg(0xD532,0x03);
1502:Src/bsp_tftlcd.c **** 		LCD_WriteReg(0xD533,0x6D);
1503:Src/bsp_tftlcd.c **** 		LCD_WriteReg(0xD600,0x00);
1504:Src/bsp_tftlcd.c **** 		LCD_WriteReg(0xD601,0x33);
1505:Src/bsp_tftlcd.c **** 		LCD_WriteReg(0xD602,0x00);
1506:Src/bsp_tftlcd.c **** 		LCD_WriteReg(0xD603,0x34);
1507:Src/bsp_tftlcd.c **** 		LCD_WriteReg(0xD604,0x00);
1508:Src/bsp_tftlcd.c **** 		LCD_WriteReg(0xD605,0x3A);
1509:Src/bsp_tftlcd.c **** 		LCD_WriteReg(0xD606,0x00);
1510:Src/bsp_tftlcd.c **** 		LCD_WriteReg(0xD607,0x4A);
1511:Src/bsp_tftlcd.c **** 		LCD_WriteReg(0xD608,0x00);
1512:Src/bsp_tftlcd.c **** 		LCD_WriteReg(0xD609,0x5C);
1513:Src/bsp_tftlcd.c **** 		LCD_WriteReg(0xD60A,0x00);
ARM GAS  /tmp/cco7znPM.s 			page 57


1514:Src/bsp_tftlcd.c **** 		LCD_WriteReg(0xD60B,0x81);
1515:Src/bsp_tftlcd.c **** 
1516:Src/bsp_tftlcd.c **** 		LCD_WriteReg(0xD60C,0x00);
1517:Src/bsp_tftlcd.c **** 		LCD_WriteReg(0xD60D,0xA6);
1518:Src/bsp_tftlcd.c **** 		LCD_WriteReg(0xD60E,0x00);
1519:Src/bsp_tftlcd.c **** 		LCD_WriteReg(0xD60F,0xE5);
1520:Src/bsp_tftlcd.c **** 		LCD_WriteReg(0xD610,0x01);
1521:Src/bsp_tftlcd.c **** 		LCD_WriteReg(0xD611,0x13);
1522:Src/bsp_tftlcd.c **** 		LCD_WriteReg(0xD612,0x01);
1523:Src/bsp_tftlcd.c **** 		LCD_WriteReg(0xD613,0x54);
1524:Src/bsp_tftlcd.c **** 		LCD_WriteReg(0xD614,0x01);
1525:Src/bsp_tftlcd.c **** 		LCD_WriteReg(0xD615,0x82);
1526:Src/bsp_tftlcd.c **** 		LCD_WriteReg(0xD616,0x01);
1527:Src/bsp_tftlcd.c **** 		LCD_WriteReg(0xD617,0xCA);
1528:Src/bsp_tftlcd.c **** 		LCD_WriteReg(0xD618,0x02);
1529:Src/bsp_tftlcd.c **** 		LCD_WriteReg(0xD619,0x00);
1530:Src/bsp_tftlcd.c **** 		LCD_WriteReg(0xD61A,0x02);
1531:Src/bsp_tftlcd.c **** 		LCD_WriteReg(0xD61B,0x01);
1532:Src/bsp_tftlcd.c **** 		LCD_WriteReg(0xD61C,0x02);
1533:Src/bsp_tftlcd.c **** 		LCD_WriteReg(0xD61D,0x34);
1534:Src/bsp_tftlcd.c **** 		LCD_WriteReg(0xD61E,0x02);
1535:Src/bsp_tftlcd.c **** 		LCD_WriteReg(0xD61F,0x67);
1536:Src/bsp_tftlcd.c **** 		LCD_WriteReg(0xD620,0x02);
1537:Src/bsp_tftlcd.c **** 		LCD_WriteReg(0xD621,0x84);
1538:Src/bsp_tftlcd.c **** 		LCD_WriteReg(0xD622,0x02);
1539:Src/bsp_tftlcd.c **** 		LCD_WriteReg(0xD623,0xA4);
1540:Src/bsp_tftlcd.c **** 		LCD_WriteReg(0xD624,0x02);
1541:Src/bsp_tftlcd.c **** 		LCD_WriteReg(0xD625,0xB7);
1542:Src/bsp_tftlcd.c **** 		LCD_WriteReg(0xD626,0x02);
1543:Src/bsp_tftlcd.c **** 		LCD_WriteReg(0xD627,0xCF);
1544:Src/bsp_tftlcd.c **** 		LCD_WriteReg(0xD628,0x02);
1545:Src/bsp_tftlcd.c **** 		LCD_WriteReg(0xD629,0xDE);
1546:Src/bsp_tftlcd.c **** 		LCD_WriteReg(0xD62A,0x02);
1547:Src/bsp_tftlcd.c **** 		LCD_WriteReg(0xD62B,0xF2);
1548:Src/bsp_tftlcd.c **** 		LCD_WriteReg(0xD62C,0x02);
1549:Src/bsp_tftlcd.c **** 		LCD_WriteReg(0xD62D,0xFE);
1550:Src/bsp_tftlcd.c **** 		LCD_WriteReg(0xD62E,0x03);
1551:Src/bsp_tftlcd.c **** 		LCD_WriteReg(0xD62F,0x10);
1552:Src/bsp_tftlcd.c **** 		LCD_WriteReg(0xD630,0x03);
1553:Src/bsp_tftlcd.c **** 		LCD_WriteReg(0xD631,0x33);
1554:Src/bsp_tftlcd.c **** 		LCD_WriteReg(0xD632,0x03);
1555:Src/bsp_tftlcd.c **** 		LCD_WriteReg(0xD633,0x6D);
1556:Src/bsp_tftlcd.c **** 		//LV2 Page 0 enable
1557:Src/bsp_tftlcd.c **** 		LCD_WriteReg(0xF000,0x55);
1558:Src/bsp_tftlcd.c **** 		LCD_WriteReg(0xF001,0xAA);
1559:Src/bsp_tftlcd.c **** 		LCD_WriteReg(0xF002,0x52);
1560:Src/bsp_tftlcd.c **** 		LCD_WriteReg(0xF003,0x08);
1561:Src/bsp_tftlcd.c **** 		LCD_WriteReg(0xF004,0x00);
1562:Src/bsp_tftlcd.c **** 		//Display control
1563:Src/bsp_tftlcd.c **** 		LCD_WriteReg(0xB100, 0xCC);
1564:Src/bsp_tftlcd.c **** 		LCD_WriteReg(0xB101, 0x00);
1565:Src/bsp_tftlcd.c **** 		//Source hold time
1566:Src/bsp_tftlcd.c **** 		LCD_WriteReg(0xB600,0x05);
1567:Src/bsp_tftlcd.c **** 		//Gate EQ control
1568:Src/bsp_tftlcd.c **** 		LCD_WriteReg(0xB700,0x70);
1569:Src/bsp_tftlcd.c **** 		LCD_WriteReg(0xB701,0x70);
1570:Src/bsp_tftlcd.c **** 		//Source EQ control (Mode 2)
ARM GAS  /tmp/cco7znPM.s 			page 58


1571:Src/bsp_tftlcd.c **** 		LCD_WriteReg(0xB800,0x01);
1572:Src/bsp_tftlcd.c **** 		LCD_WriteReg(0xB801,0x03);
1573:Src/bsp_tftlcd.c **** 		LCD_WriteReg(0xB802,0x03);
1574:Src/bsp_tftlcd.c **** 		LCD_WriteReg(0xB803,0x03);
1575:Src/bsp_tftlcd.c **** 		//Inversion mode (2-dot)
1576:Src/bsp_tftlcd.c **** 		LCD_WriteReg(0xBC00,0x02);
1577:Src/bsp_tftlcd.c **** 		LCD_WriteReg(0xBC01,0x00);
1578:Src/bsp_tftlcd.c **** 		LCD_WriteReg(0xBC02,0x00);
1579:Src/bsp_tftlcd.c **** 		//Timing control 4H w/ 4-delay
1580:Src/bsp_tftlcd.c **** 		LCD_WriteReg(0xC900,0xD0);
1581:Src/bsp_tftlcd.c **** 		LCD_WriteReg(0xC901,0x02);
1582:Src/bsp_tftlcd.c **** 		LCD_WriteReg(0xC902,0x50);
1583:Src/bsp_tftlcd.c **** 		LCD_WriteReg(0xC903,0x50);
1584:Src/bsp_tftlcd.c **** 		LCD_WriteReg(0xC904,0x50);
1585:Src/bsp_tftlcd.c **** 		LCD_WriteReg(0x3500,0x00);
1586:Src/bsp_tftlcd.c **** 		LCD_WriteReg(0x3A00,0x55);  //16-bit/pixel
1587:Src/bsp_tftlcd.c **** 		LCD_WR_REG(0x1100);
1588:Src/bsp_tftlcd.c **** 		HAL_Delay(1);
1589:Src/bsp_tftlcd.c **** 		LCD_WR_REG(0x2900);  
1590:Src/bsp_tftlcd.c **** 	} 
1591:Src/bsp_tftlcd.c **** 	//ÂàùÂßãÂåñÂÆåÊàê‰ª•Âêé,ÊèêÈÄü
1592:Src/bsp_tftlcd.c **** 	if(lcddev.id==0X9341||lcddev.id==0X5310||lcddev.id==0X5510||lcddev.id==0X1963)//Â¶ÇÊûúÊòØËøôÂá†‰∏™
 1626              		.loc 1 1592 0
 1627 0152 1D4B     		ldr	r3, .L121+4
 1628 0154 9B88     		ldrh	r3, [r3, #4]
 1629 0156 49F24132 		movw	r2, #37697
 1630 015a 9342     		cmp	r3, r2
 1631 015c 0BD0     		beq	.L113
 1632              		.loc 1 1592 0 is_stmt 0 discriminator 1
 1633 015e 45F21032 		movw	r2, #21264
 1634 0162 9342     		cmp	r3, r2
 1635 0164 07D0     		beq	.L113
 1636              		.loc 1 1592 0 discriminator 2
 1637 0166 45F21052 		movw	r2, #21776
 1638 016a 9342     		cmp	r3, r2
 1639 016c 03D0     		beq	.L113
 1640              		.loc 1 1592 0 discriminator 3
 1641 016e 41F66312 		movw	r2, #6499
 1642 0172 9342     		cmp	r3, r2
 1643 0174 10D1     		bne	.L114
 1644              	.L113:
1593:Src/bsp_tftlcd.c **** 	{
1594:Src/bsp_tftlcd.c **** 		//ÈáçÊñ∞ÈÖçÁΩÆÂÜôÊó∂Â∫èÊéßÂà∂ÂØÑÂ≠òÂô®ÁöÑÊó∂Â∫è   	 							    
1595:Src/bsp_tftlcd.c **** 		FMC_Bank1E->BWTR[0]&=~(0XF<<0);	//Âú∞ÂùÄÂª∫Á´ãÊó∂Èó¥(ADDSET)Ê∏ÖÈõ∂ 	 
 1645              		.loc 1 1595 0 is_stmt 1
 1646 0176 164B     		ldr	r3, .L121+12
 1647 0178 1A68     		ldr	r2, [r3]
 1648 017a 22F00F02 		bic	r2, r2, #15
 1649 017e 1A60     		str	r2, [r3]
1596:Src/bsp_tftlcd.c **** 		FMC_Bank1E->BWTR[0]&=~(0XF<<8);	//Êï∞ÊçÆ‰øùÂ≠òÊó∂Èó¥Ê∏ÖÈõ∂
 1650              		.loc 1 1596 0
 1651 0180 1A68     		ldr	r2, [r3]
 1652 0182 22F47062 		bic	r2, r2, #3840
 1653 0186 1A60     		str	r2, [r3]
1597:Src/bsp_tftlcd.c **** 		FMC_Bank1E->BWTR[0]|=4<<0;	 	//Âú∞ÂùÄÂª∫Á´ãÊó∂Èó¥(ADDSET)‰∏∫4‰∏™HCLK =21ns  	 
 1654              		.loc 1 1597 0
 1655 0188 1A68     		ldr	r2, [r3]
ARM GAS  /tmp/cco7znPM.s 			page 59


 1656 018a 42F00402 		orr	r2, r2, #4
 1657 018e 1A60     		str	r2, [r3]
1598:Src/bsp_tftlcd.c **** 		FMC_Bank1E->BWTR[0]|=4<<8; 		//Êï∞ÊçÆ‰øùÂ≠òÊó∂Èó¥(DATAST)‰∏∫5.2ns*4‰∏™HCLK=21ns
 1658              		.loc 1 1598 0
 1659 0190 1A68     		ldr	r2, [r3]
 1660 0192 42F48062 		orr	r2, r2, #1024
 1661 0196 1A60     		str	r2, [r3]
 1662              	.L114:
1599:Src/bsp_tftlcd.c **** 	} 
1600:Src/bsp_tftlcd.c **** 	LCD_Display_Dir(0);
 1663              		.loc 1 1600 0
 1664 0198 0020     		movs	r0, #0
 1665 019a FFF7FEFF 		bl	LCD_Display_Dir
 1666              	.LVL183:
1601:Src/bsp_tftlcd.c **** 	LCD_LED(1);
 1667              		.loc 1 1601 0
 1668 019e 0122     		movs	r2, #1
 1669 01a0 2021     		movs	r1, #32
 1670 01a2 0C48     		ldr	r0, .L121+16
 1671 01a4 FFF7FEFF 		bl	HAL_GPIO_WritePin
 1672              	.LVL184:
1602:Src/bsp_tftlcd.c **** 	LCD_Clear(WHITE);
 1673              		.loc 1 1602 0
 1674 01a8 4FF6FF70 		movw	r0, #65535
 1675 01ac FFF7FEFF 		bl	LCD_Clear
 1676              	.LVL185:
1603:Src/bsp_tftlcd.c **** }
 1677              		.loc 1 1603 0
 1678 01b0 0EB0     		add	sp, sp, #56
 1679              	.LCFI15:
 1680              		.cfi_remember_state
 1681              		.cfi_def_cfa_offset 8
 1682              		@ sp needed
 1683 01b2 10BD     		pop	{r4, pc}
 1684              	.L116:
 1685              	.LCFI16:
 1686              		.cfi_restore_state
 392:Src/bsp_tftlcd.c **** 			if(lcddev.id!=0X5510)			//‰πü‰∏çÊòØNT5510,Â∞ùËØïÁúãÁúãÊòØ‰∏çÊòØSSD1963
 1687              		.loc 1 392 0 discriminator 1
 1688 01b4 45F21052 		movw	r2, #21776
 1689 01b8 A280     		strh	r2, [r4, #4]	@ movhi
 1690 01ba 9BE7     		b	.L109
 1691              	.L117:
 400:Src/bsp_tftlcd.c **** 			} 
 1692              		.loc 1 400 0 discriminator 1
 1693 01bc 41F66312 		movw	r2, #6499
 1694 01c0 A280     		strh	r2, [r4, #4]	@ movhi
 1695 01c2 B2E7     		b	.L108
 1696              	.L122:
 1697              		.align	2
 1698              	.L121:
 1699 01c4 00000000 		.word	SRAM_Handler
 1700 01c8 00000000 		.word	lcddev
 1701 01cc 00000000 		.word	.LC0
 1702 01d0 040100A0 		.word	-1610612476
 1703 01d4 00040240 		.word	1073873920
 1704              	.L118:
ARM GAS  /tmp/cco7znPM.s 			page 60


 407:Src/bsp_tftlcd.c **** 		LCD_WR_DATA(0x00); 
 1705              		.loc 1 407 0
 1706 01d8 CF20     		movs	r0, #207
 1707 01da FFF7FEFF 		bl	LCD_WR_REG
 1708              	.LVL186:
 408:Src/bsp_tftlcd.c **** 		LCD_WR_DATA(0xC1); 
 1709              		.loc 1 408 0
 1710 01de 0020     		movs	r0, #0
 1711 01e0 FFF7FEFF 		bl	LCD_WR_DATA
 1712              	.LVL187:
 409:Src/bsp_tftlcd.c **** 		LCD_WR_DATA(0X30); 
 1713              		.loc 1 409 0
 1714 01e4 C120     		movs	r0, #193
 1715 01e6 FFF7FEFF 		bl	LCD_WR_DATA
 1716              	.LVL188:
 410:Src/bsp_tftlcd.c **** 		LCD_WR_REG(0xED);  
 1717              		.loc 1 410 0
 1718 01ea 3020     		movs	r0, #48
 1719 01ec FFF7FEFF 		bl	LCD_WR_DATA
 1720              	.LVL189:
 411:Src/bsp_tftlcd.c **** 		LCD_WR_DATA(0x64); 
 1721              		.loc 1 411 0
 1722 01f0 ED20     		movs	r0, #237
 1723 01f2 FFF7FEFF 		bl	LCD_WR_REG
 1724              	.LVL190:
 412:Src/bsp_tftlcd.c **** 		LCD_WR_DATA(0x03); 
 1725              		.loc 1 412 0
 1726 01f6 6420     		movs	r0, #100
 1727 01f8 FFF7FEFF 		bl	LCD_WR_DATA
 1728              	.LVL191:
 413:Src/bsp_tftlcd.c **** 		LCD_WR_DATA(0X12); 
 1729              		.loc 1 413 0
 1730 01fc 0320     		movs	r0, #3
 1731 01fe FFF7FEFF 		bl	LCD_WR_DATA
 1732              	.LVL192:
 414:Src/bsp_tftlcd.c **** 		LCD_WR_DATA(0X81); 
 1733              		.loc 1 414 0
 1734 0202 1220     		movs	r0, #18
 1735 0204 FFF7FEFF 		bl	LCD_WR_DATA
 1736              	.LVL193:
 415:Src/bsp_tftlcd.c **** 		LCD_WR_REG(0xE8);  
 1737              		.loc 1 415 0
 1738 0208 8120     		movs	r0, #129
 1739 020a FFF7FEFF 		bl	LCD_WR_DATA
 1740              	.LVL194:
 416:Src/bsp_tftlcd.c **** 		LCD_WR_DATA(0x85); 
 1741              		.loc 1 416 0
 1742 020e E820     		movs	r0, #232
 1743 0210 FFF7FEFF 		bl	LCD_WR_REG
 1744              	.LVL195:
 417:Src/bsp_tftlcd.c **** 		LCD_WR_DATA(0x10); 
 1745              		.loc 1 417 0
 1746 0214 8520     		movs	r0, #133
 1747 0216 FFF7FEFF 		bl	LCD_WR_DATA
 1748              	.LVL196:
 418:Src/bsp_tftlcd.c **** 		LCD_WR_DATA(0x7A); 
 1749              		.loc 1 418 0
ARM GAS  /tmp/cco7znPM.s 			page 61


 1750 021a 1020     		movs	r0, #16
 1751 021c FFF7FEFF 		bl	LCD_WR_DATA
 1752              	.LVL197:
 419:Src/bsp_tftlcd.c **** 		LCD_WR_REG(0xCB);  
 1753              		.loc 1 419 0
 1754 0220 7A20     		movs	r0, #122
 1755 0222 FFF7FEFF 		bl	LCD_WR_DATA
 1756              	.LVL198:
 420:Src/bsp_tftlcd.c **** 		LCD_WR_DATA(0x39); 
 1757              		.loc 1 420 0
 1758 0226 CB20     		movs	r0, #203
 1759 0228 FFF7FEFF 		bl	LCD_WR_REG
 1760              	.LVL199:
 421:Src/bsp_tftlcd.c **** 		LCD_WR_DATA(0x2C); 
 1761              		.loc 1 421 0
 1762 022c 3920     		movs	r0, #57
 1763 022e FFF7FEFF 		bl	LCD_WR_DATA
 1764              	.LVL200:
 422:Src/bsp_tftlcd.c **** 		LCD_WR_DATA(0x00); 
 1765              		.loc 1 422 0
 1766 0232 2C20     		movs	r0, #44
 1767 0234 FFF7FEFF 		bl	LCD_WR_DATA
 1768              	.LVL201:
 423:Src/bsp_tftlcd.c **** 		LCD_WR_DATA(0x34); 
 1769              		.loc 1 423 0
 1770 0238 0020     		movs	r0, #0
 1771 023a FFF7FEFF 		bl	LCD_WR_DATA
 1772              	.LVL202:
 424:Src/bsp_tftlcd.c **** 		LCD_WR_DATA(0x02); 
 1773              		.loc 1 424 0
 1774 023e 3420     		movs	r0, #52
 1775 0240 FFF7FEFF 		bl	LCD_WR_DATA
 1776              	.LVL203:
 425:Src/bsp_tftlcd.c **** 		LCD_WR_REG(0xF7);  
 1777              		.loc 1 425 0
 1778 0244 0220     		movs	r0, #2
 1779 0246 FFF7FEFF 		bl	LCD_WR_DATA
 1780              	.LVL204:
 426:Src/bsp_tftlcd.c **** 		LCD_WR_DATA(0x20); 
 1781              		.loc 1 426 0
 1782 024a F720     		movs	r0, #247
 1783 024c FFF7FEFF 		bl	LCD_WR_REG
 1784              	.LVL205:
 427:Src/bsp_tftlcd.c **** 		LCD_WR_REG(0xEA);  
 1785              		.loc 1 427 0
 1786 0250 2020     		movs	r0, #32
 1787 0252 FFF7FEFF 		bl	LCD_WR_DATA
 1788              	.LVL206:
 428:Src/bsp_tftlcd.c **** 		LCD_WR_DATA(0x00); 
 1789              		.loc 1 428 0
 1790 0256 EA20     		movs	r0, #234
 1791 0258 FFF7FEFF 		bl	LCD_WR_REG
 1792              	.LVL207:
 429:Src/bsp_tftlcd.c **** 		LCD_WR_DATA(0x00); 
 1793              		.loc 1 429 0
 1794 025c 0020     		movs	r0, #0
 1795 025e FFF7FEFF 		bl	LCD_WR_DATA
ARM GAS  /tmp/cco7znPM.s 			page 62


 1796              	.LVL208:
 430:Src/bsp_tftlcd.c **** 		LCD_WR_REG(0xC0);    //Power control 
 1797              		.loc 1 430 0
 1798 0262 0020     		movs	r0, #0
 1799 0264 FFF7FEFF 		bl	LCD_WR_DATA
 1800              	.LVL209:
 431:Src/bsp_tftlcd.c **** 		LCD_WR_DATA(0x1B);   //VRH[5:0] 
 1801              		.loc 1 431 0
 1802 0268 C020     		movs	r0, #192
 1803 026a FFF7FEFF 		bl	LCD_WR_REG
 1804              	.LVL210:
 432:Src/bsp_tftlcd.c **** 		LCD_WR_REG(0xC1);    //Power control 
 1805              		.loc 1 432 0
 1806 026e 1B20     		movs	r0, #27
 1807 0270 FFF7FEFF 		bl	LCD_WR_DATA
 1808              	.LVL211:
 433:Src/bsp_tftlcd.c **** 		LCD_WR_DATA(0x01);   //SAP[2:0];BT[3:0] 
 1809              		.loc 1 433 0
 1810 0274 C120     		movs	r0, #193
 1811 0276 FFF7FEFF 		bl	LCD_WR_REG
 1812              	.LVL212:
 434:Src/bsp_tftlcd.c **** 		LCD_WR_REG(0xC5);    //VCM control 
 1813              		.loc 1 434 0
 1814 027a 0120     		movs	r0, #1
 1815 027c FFF7FEFF 		bl	LCD_WR_DATA
 1816              	.LVL213:
 435:Src/bsp_tftlcd.c **** 		LCD_WR_DATA(0x30); 	 //3F
 1817              		.loc 1 435 0
 1818 0280 C520     		movs	r0, #197
 1819 0282 FFF7FEFF 		bl	LCD_WR_REG
 1820              	.LVL214:
 436:Src/bsp_tftlcd.c **** 		LCD_WR_DATA(0x30); 	 //3C
 1821              		.loc 1 436 0
 1822 0286 3020     		movs	r0, #48
 1823 0288 FFF7FEFF 		bl	LCD_WR_DATA
 1824              	.LVL215:
 437:Src/bsp_tftlcd.c **** 		LCD_WR_REG(0xC7);    //VCM control2 
 1825              		.loc 1 437 0
 1826 028c 3020     		movs	r0, #48
 1827 028e FFF7FEFF 		bl	LCD_WR_DATA
 1828              	.LVL216:
 438:Src/bsp_tftlcd.c **** 		LCD_WR_DATA(0XB7); 
 1829              		.loc 1 438 0
 1830 0292 C720     		movs	r0, #199
 1831 0294 FFF7FEFF 		bl	LCD_WR_REG
 1832              	.LVL217:
 439:Src/bsp_tftlcd.c **** 		LCD_WR_REG(0x36);    // Memory Access Control 
 1833              		.loc 1 439 0
 1834 0298 B720     		movs	r0, #183
 1835 029a FFF7FEFF 		bl	LCD_WR_DATA
 1836              	.LVL218:
 440:Src/bsp_tftlcd.c **** 		LCD_WR_DATA(0x48); 
 1837              		.loc 1 440 0
 1838 029e 3620     		movs	r0, #54
 1839 02a0 FFF7FEFF 		bl	LCD_WR_REG
 1840              	.LVL219:
 441:Src/bsp_tftlcd.c **** 		LCD_WR_REG(0x3A);   
ARM GAS  /tmp/cco7znPM.s 			page 63


 1841              		.loc 1 441 0
 1842 02a4 4820     		movs	r0, #72
 1843 02a6 FFF7FEFF 		bl	LCD_WR_DATA
 1844              	.LVL220:
 442:Src/bsp_tftlcd.c **** 		LCD_WR_DATA(0x55); 
 1845              		.loc 1 442 0
 1846 02aa 3A20     		movs	r0, #58
 1847 02ac FFF7FEFF 		bl	LCD_WR_REG
 1848              	.LVL221:
 443:Src/bsp_tftlcd.c **** 		LCD_WR_REG(0xB1);   
 1849              		.loc 1 443 0
 1850 02b0 5520     		movs	r0, #85
 1851 02b2 FFF7FEFF 		bl	LCD_WR_DATA
 1852              	.LVL222:
 444:Src/bsp_tftlcd.c **** 		LCD_WR_DATA(0x00);   
 1853              		.loc 1 444 0
 1854 02b6 B120     		movs	r0, #177
 1855 02b8 FFF7FEFF 		bl	LCD_WR_REG
 1856              	.LVL223:
 445:Src/bsp_tftlcd.c **** 		LCD_WR_DATA(0x1A); 
 1857              		.loc 1 445 0
 1858 02bc 0020     		movs	r0, #0
 1859 02be FFF7FEFF 		bl	LCD_WR_DATA
 1860              	.LVL224:
 446:Src/bsp_tftlcd.c **** 		LCD_WR_REG(0xB6);    // Display Function Control 
 1861              		.loc 1 446 0
 1862 02c2 1A20     		movs	r0, #26
 1863 02c4 FFF7FEFF 		bl	LCD_WR_DATA
 1864              	.LVL225:
 447:Src/bsp_tftlcd.c **** 		LCD_WR_DATA(0x0A); 
 1865              		.loc 1 447 0
 1866 02c8 B620     		movs	r0, #182
 1867 02ca FFF7FEFF 		bl	LCD_WR_REG
 1868              	.LVL226:
 448:Src/bsp_tftlcd.c **** 		LCD_WR_DATA(0xA2); 
 1869              		.loc 1 448 0
 1870 02ce 0A20     		movs	r0, #10
 1871 02d0 FFF7FEFF 		bl	LCD_WR_DATA
 1872              	.LVL227:
 449:Src/bsp_tftlcd.c **** 		LCD_WR_REG(0xF2);    // 3Gamma Function Disable 
 1873              		.loc 1 449 0
 1874 02d4 A220     		movs	r0, #162
 1875 02d6 FFF7FEFF 		bl	LCD_WR_DATA
 1876              	.LVL228:
 450:Src/bsp_tftlcd.c **** 		LCD_WR_DATA(0x00); 
 1877              		.loc 1 450 0
 1878 02da F220     		movs	r0, #242
 1879 02dc FFF7FEFF 		bl	LCD_WR_REG
 1880              	.LVL229:
 451:Src/bsp_tftlcd.c **** 		LCD_WR_REG(0x26);    //Gamma curve selected 
 1881              		.loc 1 451 0
 1882 02e0 0020     		movs	r0, #0
 1883 02e2 FFF7FEFF 		bl	LCD_WR_DATA
 1884              	.LVL230:
 452:Src/bsp_tftlcd.c **** 		LCD_WR_DATA(0x01); 
 1885              		.loc 1 452 0
 1886 02e6 2620     		movs	r0, #38
ARM GAS  /tmp/cco7znPM.s 			page 64


 1887 02e8 FFF7FEFF 		bl	LCD_WR_REG
 1888              	.LVL231:
 453:Src/bsp_tftlcd.c **** 		LCD_WR_REG(0xE0);    //Set Gamma 
 1889              		.loc 1 453 0
 1890 02ec 0120     		movs	r0, #1
 1891 02ee FFF7FEFF 		bl	LCD_WR_DATA
 1892              	.LVL232:
 454:Src/bsp_tftlcd.c **** 		LCD_WR_DATA(0x0F); 
 1893              		.loc 1 454 0
 1894 02f2 E020     		movs	r0, #224
 1895 02f4 FFF7FEFF 		bl	LCD_WR_REG
 1896              	.LVL233:
 455:Src/bsp_tftlcd.c **** 		LCD_WR_DATA(0x2A); 
 1897              		.loc 1 455 0
 1898 02f8 0F20     		movs	r0, #15
 1899 02fa FFF7FEFF 		bl	LCD_WR_DATA
 1900              	.LVL234:
 456:Src/bsp_tftlcd.c **** 		LCD_WR_DATA(0x28); 
 1901              		.loc 1 456 0
 1902 02fe 2A20     		movs	r0, #42
 1903 0300 FFF7FEFF 		bl	LCD_WR_DATA
 1904              	.LVL235:
 457:Src/bsp_tftlcd.c **** 		LCD_WR_DATA(0x08); 
 1905              		.loc 1 457 0
 1906 0304 2820     		movs	r0, #40
 1907 0306 FFF7FEFF 		bl	LCD_WR_DATA
 1908              	.LVL236:
 458:Src/bsp_tftlcd.c **** 		LCD_WR_DATA(0x0E); 
 1909              		.loc 1 458 0
 1910 030a 0820     		movs	r0, #8
 1911 030c FFF7FEFF 		bl	LCD_WR_DATA
 1912              	.LVL237:
 459:Src/bsp_tftlcd.c **** 		LCD_WR_DATA(0x08); 
 1913              		.loc 1 459 0
 1914 0310 0E20     		movs	r0, #14
 1915 0312 FFF7FEFF 		bl	LCD_WR_DATA
 1916              	.LVL238:
 460:Src/bsp_tftlcd.c **** 		LCD_WR_DATA(0x54); 
 1917              		.loc 1 460 0
 1918 0316 0820     		movs	r0, #8
 1919 0318 FFF7FEFF 		bl	LCD_WR_DATA
 1920              	.LVL239:
 461:Src/bsp_tftlcd.c **** 		LCD_WR_DATA(0XA9); 
 1921              		.loc 1 461 0
 1922 031c 5420     		movs	r0, #84
 1923 031e FFF7FEFF 		bl	LCD_WR_DATA
 1924              	.LVL240:
 462:Src/bsp_tftlcd.c **** 		LCD_WR_DATA(0x43); 
 1925              		.loc 1 462 0
 1926 0322 A920     		movs	r0, #169
 1927 0324 FFF7FEFF 		bl	LCD_WR_DATA
 1928              	.LVL241:
 463:Src/bsp_tftlcd.c **** 		LCD_WR_DATA(0x0A); 
 1929              		.loc 1 463 0
 1930 0328 4320     		movs	r0, #67
 1931 032a FFF7FEFF 		bl	LCD_WR_DATA
 1932              	.LVL242:
ARM GAS  /tmp/cco7znPM.s 			page 65


 464:Src/bsp_tftlcd.c **** 		LCD_WR_DATA(0x0F); 
 1933              		.loc 1 464 0
 1934 032e 0A20     		movs	r0, #10
 1935 0330 FFF7FEFF 		bl	LCD_WR_DATA
 1936              	.LVL243:
 465:Src/bsp_tftlcd.c **** 		LCD_WR_DATA(0x00); 
 1937              		.loc 1 465 0
 1938 0334 0F20     		movs	r0, #15
 1939 0336 FFF7FEFF 		bl	LCD_WR_DATA
 1940              	.LVL244:
 466:Src/bsp_tftlcd.c **** 		LCD_WR_DATA(0x00); 
 1941              		.loc 1 466 0
 1942 033a 0020     		movs	r0, #0
 1943 033c FFF7FEFF 		bl	LCD_WR_DATA
 1944              	.LVL245:
 467:Src/bsp_tftlcd.c **** 		LCD_WR_DATA(0x00); 
 1945              		.loc 1 467 0
 1946 0340 0020     		movs	r0, #0
 1947 0342 FFF7FEFF 		bl	LCD_WR_DATA
 1948              	.LVL246:
 468:Src/bsp_tftlcd.c **** 		LCD_WR_DATA(0x00); 		 
 1949              		.loc 1 468 0
 1950 0346 0020     		movs	r0, #0
 1951 0348 FFF7FEFF 		bl	LCD_WR_DATA
 1952              	.LVL247:
 469:Src/bsp_tftlcd.c **** 		LCD_WR_REG(0XE1);    //Set Gamma 
 1953              		.loc 1 469 0
 1954 034c 0020     		movs	r0, #0
 1955 034e FFF7FEFF 		bl	LCD_WR_DATA
 1956              	.LVL248:
 470:Src/bsp_tftlcd.c **** 		LCD_WR_DATA(0x00); 
 1957              		.loc 1 470 0
 1958 0352 E120     		movs	r0, #225
 1959 0354 FFF7FEFF 		bl	LCD_WR_REG
 1960              	.LVL249:
 471:Src/bsp_tftlcd.c **** 		LCD_WR_DATA(0x15); 
 1961              		.loc 1 471 0
 1962 0358 0020     		movs	r0, #0
 1963 035a FFF7FEFF 		bl	LCD_WR_DATA
 1964              	.LVL250:
 472:Src/bsp_tftlcd.c **** 		LCD_WR_DATA(0x17); 
 1965              		.loc 1 472 0
 1966 035e 1520     		movs	r0, #21
 1967 0360 FFF7FEFF 		bl	LCD_WR_DATA
 1968              	.LVL251:
 473:Src/bsp_tftlcd.c **** 		LCD_WR_DATA(0x07); 
 1969              		.loc 1 473 0
 1970 0364 1720     		movs	r0, #23
 1971 0366 FFF7FEFF 		bl	LCD_WR_DATA
 1972              	.LVL252:
 474:Src/bsp_tftlcd.c **** 		LCD_WR_DATA(0x11); 
 1973              		.loc 1 474 0
 1974 036a 0720     		movs	r0, #7
 1975 036c FFF7FEFF 		bl	LCD_WR_DATA
 1976              	.LVL253:
 475:Src/bsp_tftlcd.c **** 		LCD_WR_DATA(0x06); 
 1977              		.loc 1 475 0
ARM GAS  /tmp/cco7znPM.s 			page 66


 1978 0370 1120     		movs	r0, #17
 1979 0372 FFF7FEFF 		bl	LCD_WR_DATA
 1980              	.LVL254:
 476:Src/bsp_tftlcd.c **** 		LCD_WR_DATA(0x2B); 
 1981              		.loc 1 476 0
 1982 0376 0620     		movs	r0, #6
 1983 0378 FFF7FEFF 		bl	LCD_WR_DATA
 1984              	.LVL255:
 477:Src/bsp_tftlcd.c **** 		LCD_WR_DATA(0x56); 
 1985              		.loc 1 477 0
 1986 037c 2B20     		movs	r0, #43
 1987 037e FFF7FEFF 		bl	LCD_WR_DATA
 1988              	.LVL256:
 478:Src/bsp_tftlcd.c **** 		LCD_WR_DATA(0x3C); 
 1989              		.loc 1 478 0
 1990 0382 5620     		movs	r0, #86
 1991 0384 FFF7FEFF 		bl	LCD_WR_DATA
 1992              	.LVL257:
 479:Src/bsp_tftlcd.c **** 		LCD_WR_DATA(0x05); 
 1993              		.loc 1 479 0
 1994 0388 3C20     		movs	r0, #60
 1995 038a FFF7FEFF 		bl	LCD_WR_DATA
 1996              	.LVL258:
 480:Src/bsp_tftlcd.c **** 		LCD_WR_DATA(0x10); 
 1997              		.loc 1 480 0
 1998 038e 0520     		movs	r0, #5
 1999 0390 FFF7FEFF 		bl	LCD_WR_DATA
 2000              	.LVL259:
 481:Src/bsp_tftlcd.c **** 		LCD_WR_DATA(0x0F); 
 2001              		.loc 1 481 0
 2002 0394 1020     		movs	r0, #16
 2003 0396 FFF7FEFF 		bl	LCD_WR_DATA
 2004              	.LVL260:
 482:Src/bsp_tftlcd.c **** 		LCD_WR_DATA(0x3F); 
 2005              		.loc 1 482 0
 2006 039a 0F20     		movs	r0, #15
 2007 039c FFF7FEFF 		bl	LCD_WR_DATA
 2008              	.LVL261:
 483:Src/bsp_tftlcd.c **** 		LCD_WR_DATA(0x3F); 
 2009              		.loc 1 483 0
 2010 03a0 3F20     		movs	r0, #63
 2011 03a2 FFF7FEFF 		bl	LCD_WR_DATA
 2012              	.LVL262:
 484:Src/bsp_tftlcd.c **** 		LCD_WR_DATA(0x0F); 
 2013              		.loc 1 484 0
 2014 03a6 3F20     		movs	r0, #63
 2015 03a8 FFF7FEFF 		bl	LCD_WR_DATA
 2016              	.LVL263:
 485:Src/bsp_tftlcd.c **** 		LCD_WR_REG(0x2B); 
 2017              		.loc 1 485 0
 2018 03ac 0F20     		movs	r0, #15
 2019 03ae FFF7FEFF 		bl	LCD_WR_DATA
 2020              	.LVL264:
 486:Src/bsp_tftlcd.c **** 		LCD_WR_DATA(0x00);
 2021              		.loc 1 486 0
 2022 03b2 2B20     		movs	r0, #43
 2023 03b4 FFF7FEFF 		bl	LCD_WR_REG
ARM GAS  /tmp/cco7znPM.s 			page 67


 2024              	.LVL265:
 487:Src/bsp_tftlcd.c **** 		LCD_WR_DATA(0x00);
 2025              		.loc 1 487 0
 2026 03b8 0020     		movs	r0, #0
 2027 03ba FFF7FEFF 		bl	LCD_WR_DATA
 2028              	.LVL266:
 488:Src/bsp_tftlcd.c **** 		LCD_WR_DATA(0x01);
 2029              		.loc 1 488 0
 2030 03be 0020     		movs	r0, #0
 2031 03c0 FFF7FEFF 		bl	LCD_WR_DATA
 2032              	.LVL267:
 489:Src/bsp_tftlcd.c **** 		LCD_WR_DATA(0x3f);
 2033              		.loc 1 489 0
 2034 03c4 0120     		movs	r0, #1
 2035 03c6 FFF7FEFF 		bl	LCD_WR_DATA
 2036              	.LVL268:
 490:Src/bsp_tftlcd.c **** 		LCD_WR_REG(0x2A); 
 2037              		.loc 1 490 0
 2038 03ca 3F20     		movs	r0, #63
 2039 03cc FFF7FEFF 		bl	LCD_WR_DATA
 2040              	.LVL269:
 491:Src/bsp_tftlcd.c **** 		LCD_WR_DATA(0x00);
 2041              		.loc 1 491 0
 2042 03d0 2A20     		movs	r0, #42
 2043 03d2 FFF7FEFF 		bl	LCD_WR_REG
 2044              	.LVL270:
 492:Src/bsp_tftlcd.c **** 		LCD_WR_DATA(0x00);
 2045              		.loc 1 492 0
 2046 03d6 0020     		movs	r0, #0
 2047 03d8 FFF7FEFF 		bl	LCD_WR_DATA
 2048              	.LVL271:
 493:Src/bsp_tftlcd.c **** 		LCD_WR_DATA(0x00);
 2049              		.loc 1 493 0
 2050 03dc 0020     		movs	r0, #0
 2051 03de FFF7FEFF 		bl	LCD_WR_DATA
 2052              	.LVL272:
 494:Src/bsp_tftlcd.c **** 		LCD_WR_DATA(0xef);	 
 2053              		.loc 1 494 0
 2054 03e2 0020     		movs	r0, #0
 2055 03e4 FFF7FEFF 		bl	LCD_WR_DATA
 2056              	.LVL273:
 495:Src/bsp_tftlcd.c **** 		LCD_WR_REG(0x11); //Exit Sleep
 2057              		.loc 1 495 0
 2058 03e8 EF20     		movs	r0, #239
 2059 03ea FFF7FEFF 		bl	LCD_WR_DATA
 2060              	.LVL274:
 496:Src/bsp_tftlcd.c **** 		HAL_Delay(120);
 2061              		.loc 1 496 0
 2062 03ee 1120     		movs	r0, #17
 2063 03f0 FFF7FEFF 		bl	LCD_WR_REG
 2064              	.LVL275:
 497:Src/bsp_tftlcd.c **** 		LCD_WR_REG(0x29); //display on	
 2065              		.loc 1 497 0
 2066 03f4 7820     		movs	r0, #120
 2067 03f6 FFF7FEFF 		bl	HAL_Delay
 2068              	.LVL276:
 498:Src/bsp_tftlcd.c **** 	}else if(lcddev.id==0x5310)
ARM GAS  /tmp/cco7znPM.s 			page 68


 2069              		.loc 1 498 0
 2070 03fa 2920     		movs	r0, #41
 2071 03fc FFF7FEFF 		bl	LCD_WR_REG
 2072              	.LVL277:
 2073 0400 A7E6     		b	.L111
 2074              	.L119:
 501:Src/bsp_tftlcd.c **** 		LCD_WR_DATA(0x01);
 2075              		.loc 1 501 0
 2076 0402 ED20     		movs	r0, #237
 2077 0404 FFF7FEFF 		bl	LCD_WR_REG
 2078              	.LVL278:
 502:Src/bsp_tftlcd.c **** 		LCD_WR_DATA(0xFE);
 2079              		.loc 1 502 0
 2080 0408 0120     		movs	r0, #1
 2081 040a FFF7FEFF 		bl	LCD_WR_DATA
 2082              	.LVL279:
 503:Src/bsp_tftlcd.c **** 
 2083              		.loc 1 503 0
 2084 040e FE20     		movs	r0, #254
 2085 0410 FFF7FEFF 		bl	LCD_WR_DATA
 2086              	.LVL280:
 505:Src/bsp_tftlcd.c **** 		LCD_WR_DATA(0xDE);
 2087              		.loc 1 505 0
 2088 0414 EE20     		movs	r0, #238
 2089 0416 FFF7FEFF 		bl	LCD_WR_REG
 2090              	.LVL281:
 506:Src/bsp_tftlcd.c **** 		LCD_WR_DATA(0x21);
 2091              		.loc 1 506 0
 2092 041a DE20     		movs	r0, #222
 2093 041c FFF7FEFF 		bl	LCD_WR_DATA
 2094              	.LVL282:
 507:Src/bsp_tftlcd.c **** 
 2095              		.loc 1 507 0
 2096 0420 2120     		movs	r0, #33
 2097 0422 FFF7FEFF 		bl	LCD_WR_DATA
 2098              	.LVL283:
 509:Src/bsp_tftlcd.c **** 		LCD_WR_DATA(0x01);
 2099              		.loc 1 509 0
 2100 0426 F120     		movs	r0, #241
 2101 0428 FFF7FEFF 		bl	LCD_WR_REG
 2102              	.LVL284:
 510:Src/bsp_tftlcd.c **** 		LCD_WR_REG(0xDF);
 2103              		.loc 1 510 0
 2104 042c 0120     		movs	r0, #1
 2105 042e FFF7FEFF 		bl	LCD_WR_DATA
 2106              	.LVL285:
 511:Src/bsp_tftlcd.c **** 		LCD_WR_DATA(0x10);
 2107              		.loc 1 511 0
 2108 0432 DF20     		movs	r0, #223
 2109 0434 FFF7FEFF 		bl	LCD_WR_REG
 2110              	.LVL286:
 512:Src/bsp_tftlcd.c **** 
 2111              		.loc 1 512 0
 2112 0438 1020     		movs	r0, #16
 2113 043a FFF7FEFF 		bl	LCD_WR_DATA
 2114              	.LVL287:
 515:Src/bsp_tftlcd.c **** 		LCD_WR_DATA(0x8F);	  //5f
ARM GAS  /tmp/cco7znPM.s 			page 69


 2115              		.loc 1 515 0
 2116 043e C420     		movs	r0, #196
 2117 0440 FFF7FEFF 		bl	LCD_WR_REG
 2118              	.LVL288:
 516:Src/bsp_tftlcd.c **** 
 2119              		.loc 1 516 0
 2120 0444 8F20     		movs	r0, #143
 2121 0446 FFF7FEFF 		bl	LCD_WR_DATA
 2122              	.LVL289:
 518:Src/bsp_tftlcd.c **** 		LCD_WR_DATA(0x00);
 2123              		.loc 1 518 0
 2124 044a C620     		movs	r0, #198
 2125 044c FFF7FEFF 		bl	LCD_WR_REG
 2126              	.LVL290:
 519:Src/bsp_tftlcd.c **** 		LCD_WR_DATA(0xE2);
 2127              		.loc 1 519 0
 2128 0450 0020     		movs	r0, #0
 2129 0452 FFF7FEFF 		bl	LCD_WR_DATA
 2130              	.LVL291:
 520:Src/bsp_tftlcd.c **** 		LCD_WR_DATA(0xE2);
 2131              		.loc 1 520 0
 2132 0456 E220     		movs	r0, #226
 2133 0458 FFF7FEFF 		bl	LCD_WR_DATA
 2134              	.LVL292:
 521:Src/bsp_tftlcd.c **** 		LCD_WR_DATA(0xE2);
 2135              		.loc 1 521 0
 2136 045c E220     		movs	r0, #226
 2137 045e FFF7FEFF 		bl	LCD_WR_DATA
 2138              	.LVL293:
 522:Src/bsp_tftlcd.c **** 		LCD_WR_REG(0xBF);
 2139              		.loc 1 522 0
 2140 0462 E220     		movs	r0, #226
 2141 0464 FFF7FEFF 		bl	LCD_WR_DATA
 2142              	.LVL294:
 523:Src/bsp_tftlcd.c **** 		LCD_WR_DATA(0xAA);
 2143              		.loc 1 523 0
 2144 0468 BF20     		movs	r0, #191
 2145 046a FFF7FEFF 		bl	LCD_WR_REG
 2146              	.LVL295:
 524:Src/bsp_tftlcd.c **** 
 2147              		.loc 1 524 0
 2148 046e AA20     		movs	r0, #170
 2149 0470 FFF7FEFF 		bl	LCD_WR_DATA
 2150              	.LVL296:
 526:Src/bsp_tftlcd.c **** 		LCD_WR_DATA(0x0D);
 2151              		.loc 1 526 0
 2152 0474 B020     		movs	r0, #176
 2153 0476 FFF7FEFF 		bl	LCD_WR_REG
 2154              	.LVL297:
 527:Src/bsp_tftlcd.c **** 		LCD_WR_DATA(0x00);
 2155              		.loc 1 527 0
 2156 047a 0D20     		movs	r0, #13
 2157 047c FFF7FEFF 		bl	LCD_WR_DATA
 2158              	.LVL298:
 528:Src/bsp_tftlcd.c **** 		LCD_WR_DATA(0x0D);
 2159              		.loc 1 528 0
 2160 0480 0020     		movs	r0, #0
ARM GAS  /tmp/cco7znPM.s 			page 70


 2161 0482 FFF7FEFF 		bl	LCD_WR_DATA
 2162              	.LVL299:
 529:Src/bsp_tftlcd.c **** 		LCD_WR_DATA(0x00);
 2163              		.loc 1 529 0
 2164 0486 0D20     		movs	r0, #13
 2165 0488 FFF7FEFF 		bl	LCD_WR_DATA
 2166              	.LVL300:
 530:Src/bsp_tftlcd.c **** 		LCD_WR_DATA(0x11);
 2167              		.loc 1 530 0
 2168 048c 0020     		movs	r0, #0
 2169 048e FFF7FEFF 		bl	LCD_WR_DATA
 2170              	.LVL301:
 531:Src/bsp_tftlcd.c **** 		LCD_WR_DATA(0x00);
 2171              		.loc 1 531 0
 2172 0492 1120     		movs	r0, #17
 2173 0494 FFF7FEFF 		bl	LCD_WR_DATA
 2174              	.LVL302:
 532:Src/bsp_tftlcd.c **** 		LCD_WR_DATA(0x19);
 2175              		.loc 1 532 0
 2176 0498 0020     		movs	r0, #0
 2177 049a FFF7FEFF 		bl	LCD_WR_DATA
 2178              	.LVL303:
 533:Src/bsp_tftlcd.c **** 		LCD_WR_DATA(0x00);
 2179              		.loc 1 533 0
 2180 049e 1920     		movs	r0, #25
 2181 04a0 FFF7FEFF 		bl	LCD_WR_DATA
 2182              	.LVL304:
 534:Src/bsp_tftlcd.c **** 		LCD_WR_DATA(0x21);
 2183              		.loc 1 534 0
 2184 04a4 0020     		movs	r0, #0
 2185 04a6 FFF7FEFF 		bl	LCD_WR_DATA
 2186              	.LVL305:
 535:Src/bsp_tftlcd.c **** 		LCD_WR_DATA(0x00);
 2187              		.loc 1 535 0
 2188 04aa 2120     		movs	r0, #33
 2189 04ac FFF7FEFF 		bl	LCD_WR_DATA
 2190              	.LVL306:
 536:Src/bsp_tftlcd.c **** 		LCD_WR_DATA(0x2D);
 2191              		.loc 1 536 0
 2192 04b0 0020     		movs	r0, #0
 2193 04b2 FFF7FEFF 		bl	LCD_WR_DATA
 2194              	.LVL307:
 537:Src/bsp_tftlcd.c **** 		LCD_WR_DATA(0x00);
 2195              		.loc 1 537 0
 2196 04b6 2D20     		movs	r0, #45
 2197 04b8 FFF7FEFF 		bl	LCD_WR_DATA
 2198              	.LVL308:
 538:Src/bsp_tftlcd.c **** 		LCD_WR_DATA(0x3D);
 2199              		.loc 1 538 0
 2200 04bc 0020     		movs	r0, #0
 2201 04be FFF7FEFF 		bl	LCD_WR_DATA
 2202              	.LVL309:
 539:Src/bsp_tftlcd.c **** 		LCD_WR_DATA(0x00);
 2203              		.loc 1 539 0
 2204 04c2 3D20     		movs	r0, #61
 2205 04c4 FFF7FEFF 		bl	LCD_WR_DATA
 2206              	.LVL310:
ARM GAS  /tmp/cco7znPM.s 			page 71


 540:Src/bsp_tftlcd.c **** 		LCD_WR_DATA(0x5D);
 2207              		.loc 1 540 0
 2208 04c8 0020     		movs	r0, #0
 2209 04ca FFF7FEFF 		bl	LCD_WR_DATA
 2210              	.LVL311:
 541:Src/bsp_tftlcd.c **** 		LCD_WR_DATA(0x00);
 2211              		.loc 1 541 0
 2212 04ce 5D20     		movs	r0, #93
 2213 04d0 FFF7FEFF 		bl	LCD_WR_DATA
 2214              	.LVL312:
 542:Src/bsp_tftlcd.c **** 		LCD_WR_DATA(0x5D);
 2215              		.loc 1 542 0
 2216 04d4 0020     		movs	r0, #0
 2217 04d6 FFF7FEFF 		bl	LCD_WR_DATA
 2218              	.LVL313:
 543:Src/bsp_tftlcd.c **** 		LCD_WR_DATA(0x00);
 2219              		.loc 1 543 0
 2220 04da 5D20     		movs	r0, #93
 2221 04dc FFF7FEFF 		bl	LCD_WR_DATA
 2222              	.LVL314:
 544:Src/bsp_tftlcd.c **** 
 2223              		.loc 1 544 0
 2224 04e0 0020     		movs	r0, #0
 2225 04e2 FFF7FEFF 		bl	LCD_WR_DATA
 2226              	.LVL315:
 546:Src/bsp_tftlcd.c **** 		LCD_WR_DATA(0x80);
 2227              		.loc 1 546 0
 2228 04e6 B120     		movs	r0, #177
 2229 04e8 FFF7FEFF 		bl	LCD_WR_REG
 2230              	.LVL316:
 547:Src/bsp_tftlcd.c **** 		LCD_WR_DATA(0x00);
 2231              		.loc 1 547 0
 2232 04ec 8020     		movs	r0, #128
 2233 04ee FFF7FEFF 		bl	LCD_WR_DATA
 2234              	.LVL317:
 548:Src/bsp_tftlcd.c **** 		LCD_WR_DATA(0x8B);
 2235              		.loc 1 548 0
 2236 04f2 0020     		movs	r0, #0
 2237 04f4 FFF7FEFF 		bl	LCD_WR_DATA
 2238              	.LVL318:
 549:Src/bsp_tftlcd.c **** 		LCD_WR_DATA(0x00);
 2239              		.loc 1 549 0
 2240 04f8 8B20     		movs	r0, #139
 2241 04fa FFF7FEFF 		bl	LCD_WR_DATA
 2242              	.LVL319:
 550:Src/bsp_tftlcd.c **** 		LCD_WR_DATA(0x96);
 2243              		.loc 1 550 0
 2244 04fe 0020     		movs	r0, #0
 2245 0500 FFF7FEFF 		bl	LCD_WR_DATA
 2246              	.LVL320:
 551:Src/bsp_tftlcd.c **** 		LCD_WR_DATA(0x00);
 2247              		.loc 1 551 0
 2248 0504 9620     		movs	r0, #150
 2249 0506 FFF7FEFF 		bl	LCD_WR_DATA
 2250              	.LVL321:
 552:Src/bsp_tftlcd.c **** 
 2251              		.loc 1 552 0
ARM GAS  /tmp/cco7znPM.s 			page 72


 2252 050a 0020     		movs	r0, #0
 2253 050c FFF7FEFF 		bl	LCD_WR_DATA
 2254              	.LVL322:
 554:Src/bsp_tftlcd.c **** 		LCD_WR_DATA(0x00);
 2255              		.loc 1 554 0
 2256 0510 B220     		movs	r0, #178
 2257 0512 FFF7FEFF 		bl	LCD_WR_REG
 2258              	.LVL323:
 555:Src/bsp_tftlcd.c **** 		LCD_WR_DATA(0x00);
 2259              		.loc 1 555 0
 2260 0516 0020     		movs	r0, #0
 2261 0518 FFF7FEFF 		bl	LCD_WR_DATA
 2262              	.LVL324:
 556:Src/bsp_tftlcd.c **** 		LCD_WR_DATA(0x02);
 2263              		.loc 1 556 0
 2264 051c 0020     		movs	r0, #0
 2265 051e FFF7FEFF 		bl	LCD_WR_DATA
 2266              	.LVL325:
 557:Src/bsp_tftlcd.c **** 		LCD_WR_DATA(0x00);
 2267              		.loc 1 557 0
 2268 0522 0220     		movs	r0, #2
 2269 0524 FFF7FEFF 		bl	LCD_WR_DATA
 2270              	.LVL326:
 558:Src/bsp_tftlcd.c **** 		LCD_WR_DATA(0x03);
 2271              		.loc 1 558 0
 2272 0528 0020     		movs	r0, #0
 2273 052a FFF7FEFF 		bl	LCD_WR_DATA
 2274              	.LVL327:
 559:Src/bsp_tftlcd.c **** 		LCD_WR_DATA(0x00);
 2275              		.loc 1 559 0
 2276 052e 0320     		movs	r0, #3
 2277 0530 FFF7FEFF 		bl	LCD_WR_DATA
 2278              	.LVL328:
 560:Src/bsp_tftlcd.c **** 
 2279              		.loc 1 560 0
 2280 0534 0020     		movs	r0, #0
 2281 0536 FFF7FEFF 		bl	LCD_WR_DATA
 2282              	.LVL329:
 562:Src/bsp_tftlcd.c **** 		LCD_WR_DATA(0x00);
 2283              		.loc 1 562 0
 2284 053a B320     		movs	r0, #179
 2285 053c FFF7FEFF 		bl	LCD_WR_REG
 2286              	.LVL330:
 563:Src/bsp_tftlcd.c **** 		LCD_WR_DATA(0x00);
 2287              		.loc 1 563 0
 2288 0540 0020     		movs	r0, #0
 2289 0542 FFF7FEFF 		bl	LCD_WR_DATA
 2290              	.LVL331:
 564:Src/bsp_tftlcd.c **** 		LCD_WR_DATA(0x00);
 2291              		.loc 1 564 0
 2292 0546 0020     		movs	r0, #0
 2293 0548 FFF7FEFF 		bl	LCD_WR_DATA
 2294              	.LVL332:
 565:Src/bsp_tftlcd.c **** 		LCD_WR_DATA(0x00);
 2295              		.loc 1 565 0
 2296 054c 0020     		movs	r0, #0
 2297 054e FFF7FEFF 		bl	LCD_WR_DATA
ARM GAS  /tmp/cco7znPM.s 			page 73


 2298              	.LVL333:
 566:Src/bsp_tftlcd.c **** 		LCD_WR_DATA(0x00);
 2299              		.loc 1 566 0
 2300 0552 0020     		movs	r0, #0
 2301 0554 FFF7FEFF 		bl	LCD_WR_DATA
 2302              	.LVL334:
 567:Src/bsp_tftlcd.c **** 		LCD_WR_DATA(0x00);
 2303              		.loc 1 567 0
 2304 0558 0020     		movs	r0, #0
 2305 055a FFF7FEFF 		bl	LCD_WR_DATA
 2306              	.LVL335:
 568:Src/bsp_tftlcd.c **** 		LCD_WR_DATA(0x00);
 2307              		.loc 1 568 0
 2308 055e 0020     		movs	r0, #0
 2309 0560 FFF7FEFF 		bl	LCD_WR_DATA
 2310              	.LVL336:
 569:Src/bsp_tftlcd.c **** 		LCD_WR_DATA(0x00);
 2311              		.loc 1 569 0
 2312 0564 0020     		movs	r0, #0
 2313 0566 FFF7FEFF 		bl	LCD_WR_DATA
 2314              	.LVL337:
 570:Src/bsp_tftlcd.c **** 		LCD_WR_DATA(0x00);
 2315              		.loc 1 570 0
 2316 056a 0020     		movs	r0, #0
 2317 056c FFF7FEFF 		bl	LCD_WR_DATA
 2318              	.LVL338:
 571:Src/bsp_tftlcd.c **** 		LCD_WR_DATA(0x00);
 2319              		.loc 1 571 0
 2320 0570 0020     		movs	r0, #0
 2321 0572 FFF7FEFF 		bl	LCD_WR_DATA
 2322              	.LVL339:
 572:Src/bsp_tftlcd.c **** 		LCD_WR_DATA(0x00);
 2323              		.loc 1 572 0
 2324 0576 0020     		movs	r0, #0
 2325 0578 FFF7FEFF 		bl	LCD_WR_DATA
 2326              	.LVL340:
 573:Src/bsp_tftlcd.c **** 		LCD_WR_DATA(0x00);
 2327              		.loc 1 573 0
 2328 057c 0020     		movs	r0, #0
 2329 057e FFF7FEFF 		bl	LCD_WR_DATA
 2330              	.LVL341:
 574:Src/bsp_tftlcd.c **** 		LCD_WR_DATA(0x00);
 2331              		.loc 1 574 0
 2332 0582 0020     		movs	r0, #0
 2333 0584 FFF7FEFF 		bl	LCD_WR_DATA
 2334              	.LVL342:
 575:Src/bsp_tftlcd.c **** 		LCD_WR_DATA(0x00);
 2335              		.loc 1 575 0
 2336 0588 0020     		movs	r0, #0
 2337 058a FFF7FEFF 		bl	LCD_WR_DATA
 2338              	.LVL343:
 576:Src/bsp_tftlcd.c **** 		LCD_WR_DATA(0x00);
 2339              		.loc 1 576 0
 2340 058e 0020     		movs	r0, #0
 2341 0590 FFF7FEFF 		bl	LCD_WR_DATA
 2342              	.LVL344:
 577:Src/bsp_tftlcd.c **** 		LCD_WR_DATA(0x00);
ARM GAS  /tmp/cco7znPM.s 			page 74


 2343              		.loc 1 577 0
 2344 0594 0020     		movs	r0, #0
 2345 0596 FFF7FEFF 		bl	LCD_WR_DATA
 2346              	.LVL345:
 578:Src/bsp_tftlcd.c **** 		LCD_WR_DATA(0x00);
 2347              		.loc 1 578 0
 2348 059a 0020     		movs	r0, #0
 2349 059c FFF7FEFF 		bl	LCD_WR_DATA
 2350              	.LVL346:
 579:Src/bsp_tftlcd.c **** 		LCD_WR_DATA(0x00);
 2351              		.loc 1 579 0
 2352 05a0 0020     		movs	r0, #0
 2353 05a2 FFF7FEFF 		bl	LCD_WR_DATA
 2354              	.LVL347:
 580:Src/bsp_tftlcd.c **** 		LCD_WR_DATA(0x00);
 2355              		.loc 1 580 0
 2356 05a6 0020     		movs	r0, #0
 2357 05a8 FFF7FEFF 		bl	LCD_WR_DATA
 2358              	.LVL348:
 581:Src/bsp_tftlcd.c **** 		LCD_WR_DATA(0x00);
 2359              		.loc 1 581 0
 2360 05ac 0020     		movs	r0, #0
 2361 05ae FFF7FEFF 		bl	LCD_WR_DATA
 2362              	.LVL349:
 582:Src/bsp_tftlcd.c **** 		LCD_WR_DATA(0x00);
 2363              		.loc 1 582 0
 2364 05b2 0020     		movs	r0, #0
 2365 05b4 FFF7FEFF 		bl	LCD_WR_DATA
 2366              	.LVL350:
 583:Src/bsp_tftlcd.c **** 		LCD_WR_DATA(0x00);
 2367              		.loc 1 583 0
 2368 05b8 0020     		movs	r0, #0
 2369 05ba FFF7FEFF 		bl	LCD_WR_DATA
 2370              	.LVL351:
 584:Src/bsp_tftlcd.c **** 		LCD_WR_DATA(0x00);
 2371              		.loc 1 584 0
 2372 05be 0020     		movs	r0, #0
 2373 05c0 FFF7FEFF 		bl	LCD_WR_DATA
 2374              	.LVL352:
 585:Src/bsp_tftlcd.c **** 		LCD_WR_DATA(0x00);
 2375              		.loc 1 585 0
 2376 05c4 0020     		movs	r0, #0
 2377 05c6 FFF7FEFF 		bl	LCD_WR_DATA
 2378              	.LVL353:
 586:Src/bsp_tftlcd.c **** 
 2379              		.loc 1 586 0
 2380 05ca 0020     		movs	r0, #0
 2381 05cc FFF7FEFF 		bl	LCD_WR_DATA
 2382              	.LVL354:
 588:Src/bsp_tftlcd.c **** 		LCD_WR_DATA(0x8B);
 2383              		.loc 1 588 0
 2384 05d0 B420     		movs	r0, #180
 2385 05d2 FFF7FEFF 		bl	LCD_WR_REG
 2386              	.LVL355:
 589:Src/bsp_tftlcd.c **** 		LCD_WR_DATA(0x00);
 2387              		.loc 1 589 0
 2388 05d6 8B20     		movs	r0, #139
ARM GAS  /tmp/cco7znPM.s 			page 75


 2389 05d8 FFF7FEFF 		bl	LCD_WR_DATA
 2390              	.LVL356:
 590:Src/bsp_tftlcd.c **** 		LCD_WR_DATA(0x96);
 2391              		.loc 1 590 0
 2392 05dc 0020     		movs	r0, #0
 2393 05de FFF7FEFF 		bl	LCD_WR_DATA
 2394              	.LVL357:
 591:Src/bsp_tftlcd.c **** 		LCD_WR_DATA(0x00);
 2395              		.loc 1 591 0
 2396 05e2 9620     		movs	r0, #150
 2397 05e4 FFF7FEFF 		bl	LCD_WR_DATA
 2398              	.LVL358:
 592:Src/bsp_tftlcd.c **** 		LCD_WR_DATA(0xA1);
 2399              		.loc 1 592 0
 2400 05e8 0020     		movs	r0, #0
 2401 05ea FFF7FEFF 		bl	LCD_WR_DATA
 2402              	.LVL359:
 593:Src/bsp_tftlcd.c **** 		LCD_WR_DATA(0x00);
 2403              		.loc 1 593 0
 2404 05ee A120     		movs	r0, #161
 2405 05f0 FFF7FEFF 		bl	LCD_WR_DATA
 2406              	.LVL360:
 594:Src/bsp_tftlcd.c **** 
 2407              		.loc 1 594 0
 2408 05f4 0020     		movs	r0, #0
 2409 05f6 FFF7FEFF 		bl	LCD_WR_DATA
 2410              	.LVL361:
 596:Src/bsp_tftlcd.c **** 		LCD_WR_DATA(0x02);
 2411              		.loc 1 596 0
 2412 05fa B520     		movs	r0, #181
 2413 05fc FFF7FEFF 		bl	LCD_WR_REG
 2414              	.LVL362:
 597:Src/bsp_tftlcd.c **** 		LCD_WR_DATA(0x00);
 2415              		.loc 1 597 0
 2416 0600 0220     		movs	r0, #2
 2417 0602 FFF7FEFF 		bl	LCD_WR_DATA
 2418              	.LVL363:
 598:Src/bsp_tftlcd.c **** 		LCD_WR_DATA(0x03);
 2419              		.loc 1 598 0
 2420 0606 0020     		movs	r0, #0
 2421 0608 FFF7FEFF 		bl	LCD_WR_DATA
 2422              	.LVL364:
 599:Src/bsp_tftlcd.c **** 		LCD_WR_DATA(0x00);
 2423              		.loc 1 599 0
 2424 060c 0320     		movs	r0, #3
 2425 060e FFF7FEFF 		bl	LCD_WR_DATA
 2426              	.LVL365:
 600:Src/bsp_tftlcd.c **** 		LCD_WR_DATA(0x04);
 2427              		.loc 1 600 0
 2428 0612 0020     		movs	r0, #0
 2429 0614 FFF7FEFF 		bl	LCD_WR_DATA
 2430              	.LVL366:
 601:Src/bsp_tftlcd.c **** 		LCD_WR_DATA(0x00);
 2431              		.loc 1 601 0
 2432 0618 0420     		movs	r0, #4
 2433 061a FFF7FEFF 		bl	LCD_WR_DATA
 2434              	.LVL367:
ARM GAS  /tmp/cco7znPM.s 			page 76


 602:Src/bsp_tftlcd.c **** 
 2435              		.loc 1 602 0
 2436 061e 0020     		movs	r0, #0
 2437 0620 FFF7FEFF 		bl	LCD_WR_DATA
 2438              	.LVL368:
 604:Src/bsp_tftlcd.c **** 		LCD_WR_DATA(0x00);
 2439              		.loc 1 604 0
 2440 0624 B620     		movs	r0, #182
 2441 0626 FFF7FEFF 		bl	LCD_WR_REG
 2442              	.LVL369:
 605:Src/bsp_tftlcd.c **** 		LCD_WR_DATA(0x00);
 2443              		.loc 1 605 0
 2444 062a 0020     		movs	r0, #0
 2445 062c FFF7FEFF 		bl	LCD_WR_DATA
 2446              	.LVL370:
 606:Src/bsp_tftlcd.c **** 
 2447              		.loc 1 606 0
 2448 0630 0020     		movs	r0, #0
 2449 0632 FFF7FEFF 		bl	LCD_WR_DATA
 2450              	.LVL371:
 608:Src/bsp_tftlcd.c **** 		LCD_WR_DATA(0x00);
 2451              		.loc 1 608 0
 2452 0636 B720     		movs	r0, #183
 2453 0638 FFF7FEFF 		bl	LCD_WR_REG
 2454              	.LVL372:
 609:Src/bsp_tftlcd.c **** 		LCD_WR_DATA(0x00);
 2455              		.loc 1 609 0
 2456 063c 0020     		movs	r0, #0
 2457 063e FFF7FEFF 		bl	LCD_WR_DATA
 2458              	.LVL373:
 610:Src/bsp_tftlcd.c **** 		LCD_WR_DATA(0x3F);
 2459              		.loc 1 610 0
 2460 0642 0020     		movs	r0, #0
 2461 0644 FFF7FEFF 		bl	LCD_WR_DATA
 2462              	.LVL374:
 611:Src/bsp_tftlcd.c **** 		LCD_WR_DATA(0x00);
 2463              		.loc 1 611 0
 2464 0648 3F20     		movs	r0, #63
 2465 064a FFF7FEFF 		bl	LCD_WR_DATA
 2466              	.LVL375:
 612:Src/bsp_tftlcd.c **** 		LCD_WR_DATA(0x5E);
 2467              		.loc 1 612 0
 2468 064e 0020     		movs	r0, #0
 2469 0650 FFF7FEFF 		bl	LCD_WR_DATA
 2470              	.LVL376:
 613:Src/bsp_tftlcd.c **** 		LCD_WR_DATA(0x00);
 2471              		.loc 1 613 0
 2472 0654 5E20     		movs	r0, #94
 2473 0656 FFF7FEFF 		bl	LCD_WR_DATA
 2474              	.LVL377:
 614:Src/bsp_tftlcd.c **** 		LCD_WR_DATA(0x64);
 2475              		.loc 1 614 0
 2476 065a 0020     		movs	r0, #0
 2477 065c FFF7FEFF 		bl	LCD_WR_DATA
 2478              	.LVL378:
 615:Src/bsp_tftlcd.c **** 		LCD_WR_DATA(0x00);
 2479              		.loc 1 615 0
ARM GAS  /tmp/cco7znPM.s 			page 77


 2480 0660 6420     		movs	r0, #100
 2481 0662 FFF7FEFF 		bl	LCD_WR_DATA
 2482              	.LVL379:
 616:Src/bsp_tftlcd.c **** 		LCD_WR_DATA(0x8C);
 2483              		.loc 1 616 0
 2484 0666 0020     		movs	r0, #0
 2485 0668 FFF7FEFF 		bl	LCD_WR_DATA
 2486              	.LVL380:
 617:Src/bsp_tftlcd.c **** 		LCD_WR_DATA(0x00);
 2487              		.loc 1 617 0
 2488 066c 8C20     		movs	r0, #140
 2489 066e FFF7FEFF 		bl	LCD_WR_DATA
 2490              	.LVL381:
 618:Src/bsp_tftlcd.c **** 		LCD_WR_DATA(0xAC);
 2491              		.loc 1 618 0
 2492 0672 0020     		movs	r0, #0
 2493 0674 FFF7FEFF 		bl	LCD_WR_DATA
 2494              	.LVL382:
 619:Src/bsp_tftlcd.c **** 		LCD_WR_DATA(0x00);
 2495              		.loc 1 619 0
 2496 0678 AC20     		movs	r0, #172
 2497 067a FFF7FEFF 		bl	LCD_WR_DATA
 2498              	.LVL383:
 620:Src/bsp_tftlcd.c **** 		LCD_WR_DATA(0xDC);
 2499              		.loc 1 620 0
 2500 067e 0020     		movs	r0, #0
 2501 0680 FFF7FEFF 		bl	LCD_WR_DATA
 2502              	.LVL384:
 621:Src/bsp_tftlcd.c **** 		LCD_WR_DATA(0x00);
 2503              		.loc 1 621 0
 2504 0684 DC20     		movs	r0, #220
 2505 0686 FFF7FEFF 		bl	LCD_WR_DATA
 2506              	.LVL385:
 622:Src/bsp_tftlcd.c **** 		LCD_WR_DATA(0x70);
 2507              		.loc 1 622 0
 2508 068a 0020     		movs	r0, #0
 2509 068c FFF7FEFF 		bl	LCD_WR_DATA
 2510              	.LVL386:
 623:Src/bsp_tftlcd.c **** 		LCD_WR_DATA(0x00);
 2511              		.loc 1 623 0
 2512 0690 7020     		movs	r0, #112
 2513 0692 FFF7FEFF 		bl	LCD_WR_DATA
 2514              	.LVL387:
 624:Src/bsp_tftlcd.c **** 		LCD_WR_DATA(0x90);
 2515              		.loc 1 624 0
 2516 0696 0020     		movs	r0, #0
 2517 0698 FFF7FEFF 		bl	LCD_WR_DATA
 2518              	.LVL388:
 625:Src/bsp_tftlcd.c **** 		LCD_WR_DATA(0x00);
 2519              		.loc 1 625 0
 2520 069c 9020     		movs	r0, #144
 2521 069e FFF7FEFF 		bl	LCD_WR_DATA
 2522              	.LVL389:
 626:Src/bsp_tftlcd.c **** 		LCD_WR_DATA(0xEB);
 2523              		.loc 1 626 0
 2524 06a2 0020     		movs	r0, #0
 2525 06a4 FFF7FEFF 		bl	LCD_WR_DATA
ARM GAS  /tmp/cco7znPM.s 			page 78


 2526              	.LVL390:
 627:Src/bsp_tftlcd.c **** 		LCD_WR_DATA(0x00);
 2527              		.loc 1 627 0
 2528 06a8 EB20     		movs	r0, #235
 2529 06aa FFF7FEFF 		bl	LCD_WR_DATA
 2530              	.LVL391:
 628:Src/bsp_tftlcd.c **** 		LCD_WR_DATA(0xDC);
 2531              		.loc 1 628 0
 2532 06ae 0020     		movs	r0, #0
 2533 06b0 FFF7FEFF 		bl	LCD_WR_DATA
 2534              	.LVL392:
 629:Src/bsp_tftlcd.c **** 		LCD_WR_DATA(0x00);
 2535              		.loc 1 629 0
 2536 06b4 DC20     		movs	r0, #220
 2537 06b6 FFF7FEFF 		bl	LCD_WR_DATA
 2538              	.LVL393:
 630:Src/bsp_tftlcd.c **** 
 2539              		.loc 1 630 0
 2540 06ba 0020     		movs	r0, #0
 2541 06bc FFF7FEFF 		bl	LCD_WR_DATA
 2542              	.LVL394:
 632:Src/bsp_tftlcd.c **** 		LCD_WR_DATA(0x00);
 2543              		.loc 1 632 0
 2544 06c0 B820     		movs	r0, #184
 2545 06c2 FFF7FEFF 		bl	LCD_WR_REG
 2546              	.LVL395:
 633:Src/bsp_tftlcd.c **** 		LCD_WR_DATA(0x00);
 2547              		.loc 1 633 0
 2548 06c6 0020     		movs	r0, #0
 2549 06c8 FFF7FEFF 		bl	LCD_WR_DATA
 2550              	.LVL396:
 634:Src/bsp_tftlcd.c **** 		LCD_WR_DATA(0x00);
 2551              		.loc 1 634 0
 2552 06cc 0020     		movs	r0, #0
 2553 06ce FFF7FEFF 		bl	LCD_WR_DATA
 2554              	.LVL397:
 635:Src/bsp_tftlcd.c **** 		LCD_WR_DATA(0x00);
 2555              		.loc 1 635 0
 2556 06d2 0020     		movs	r0, #0
 2557 06d4 FFF7FEFF 		bl	LCD_WR_DATA
 2558              	.LVL398:
 636:Src/bsp_tftlcd.c **** 		LCD_WR_DATA(0x00);
 2559              		.loc 1 636 0
 2560 06d8 0020     		movs	r0, #0
 2561 06da FFF7FEFF 		bl	LCD_WR_DATA
 2562              	.LVL399:
 637:Src/bsp_tftlcd.c **** 		LCD_WR_DATA(0x00);
 2563              		.loc 1 637 0
 2564 06de 0020     		movs	r0, #0
 2565 06e0 FFF7FEFF 		bl	LCD_WR_DATA
 2566              	.LVL400:
 638:Src/bsp_tftlcd.c **** 		LCD_WR_DATA(0x00);
 2567              		.loc 1 638 0
 2568 06e4 0020     		movs	r0, #0
 2569 06e6 FFF7FEFF 		bl	LCD_WR_DATA
 2570              	.LVL401:
 639:Src/bsp_tftlcd.c **** 		LCD_WR_DATA(0x00);
ARM GAS  /tmp/cco7znPM.s 			page 79


 2571              		.loc 1 639 0
 2572 06ea 0020     		movs	r0, #0
 2573 06ec FFF7FEFF 		bl	LCD_WR_DATA
 2574              	.LVL402:
 640:Src/bsp_tftlcd.c **** 
 2575              		.loc 1 640 0
 2576 06f0 0020     		movs	r0, #0
 2577 06f2 FFF7FEFF 		bl	LCD_WR_DATA
 2578              	.LVL403:
 642:Src/bsp_tftlcd.c **** 		LCD_WR_DATA(0x24);
 2579              		.loc 1 642 0
 2580 06f6 BA20     		movs	r0, #186
 2581 06f8 FFF7FEFF 		bl	LCD_WR_REG
 2582              	.LVL404:
 643:Src/bsp_tftlcd.c **** 		LCD_WR_DATA(0x00);
 2583              		.loc 1 643 0
 2584 06fc 2420     		movs	r0, #36
 2585 06fe FFF7FEFF 		bl	LCD_WR_DATA
 2586              	.LVL405:
 644:Src/bsp_tftlcd.c **** 		LCD_WR_DATA(0x00);
 2587              		.loc 1 644 0
 2588 0702 0020     		movs	r0, #0
 2589 0704 FFF7FEFF 		bl	LCD_WR_DATA
 2590              	.LVL406:
 645:Src/bsp_tftlcd.c **** 		LCD_WR_DATA(0x00);
 2591              		.loc 1 645 0
 2592 0708 0020     		movs	r0, #0
 2593 070a FFF7FEFF 		bl	LCD_WR_DATA
 2594              	.LVL407:
 646:Src/bsp_tftlcd.c **** 
 2595              		.loc 1 646 0
 2596 070e 0020     		movs	r0, #0
 2597 0710 FFF7FEFF 		bl	LCD_WR_DATA
 2598              	.LVL408:
 648:Src/bsp_tftlcd.c **** 		LCD_WR_DATA(0x20);
 2599              		.loc 1 648 0
 2600 0714 C120     		movs	r0, #193
 2601 0716 FFF7FEFF 		bl	LCD_WR_REG
 2602              	.LVL409:
 649:Src/bsp_tftlcd.c **** 		LCD_WR_DATA(0x00);
 2603              		.loc 1 649 0
 2604 071a 2020     		movs	r0, #32
 2605 071c FFF7FEFF 		bl	LCD_WR_DATA
 2606              	.LVL410:
 650:Src/bsp_tftlcd.c **** 		LCD_WR_DATA(0x54);
 2607              		.loc 1 650 0
 2608 0720 0020     		movs	r0, #0
 2609 0722 FFF7FEFF 		bl	LCD_WR_DATA
 2610              	.LVL411:
 651:Src/bsp_tftlcd.c **** 		LCD_WR_DATA(0x00);
 2611              		.loc 1 651 0
 2612 0726 5420     		movs	r0, #84
 2613 0728 FFF7FEFF 		bl	LCD_WR_DATA
 2614              	.LVL412:
 652:Src/bsp_tftlcd.c **** 		LCD_WR_DATA(0xFF);
 2615              		.loc 1 652 0
 2616 072c 0020     		movs	r0, #0
ARM GAS  /tmp/cco7znPM.s 			page 80


 2617 072e FFF7FEFF 		bl	LCD_WR_DATA
 2618              	.LVL413:
 653:Src/bsp_tftlcd.c **** 		LCD_WR_DATA(0x00);
 2619              		.loc 1 653 0
 2620 0732 FF20     		movs	r0, #255
 2621 0734 FFF7FEFF 		bl	LCD_WR_DATA
 2622              	.LVL414:
 654:Src/bsp_tftlcd.c **** 
 2623              		.loc 1 654 0
 2624 0738 0020     		movs	r0, #0
 2625 073a FFF7FEFF 		bl	LCD_WR_DATA
 2626              	.LVL415:
 656:Src/bsp_tftlcd.c **** 		LCD_WR_DATA(0x0A);
 2627              		.loc 1 656 0
 2628 073e C220     		movs	r0, #194
 2629 0740 FFF7FEFF 		bl	LCD_WR_REG
 2630              	.LVL416:
 657:Src/bsp_tftlcd.c **** 		LCD_WR_DATA(0x00);
 2631              		.loc 1 657 0
 2632 0744 0A20     		movs	r0, #10
 2633 0746 FFF7FEFF 		bl	LCD_WR_DATA
 2634              	.LVL417:
 658:Src/bsp_tftlcd.c **** 		LCD_WR_DATA(0x04);
 2635              		.loc 1 658 0
 2636 074a 0020     		movs	r0, #0
 2637 074c FFF7FEFF 		bl	LCD_WR_DATA
 2638              	.LVL418:
 659:Src/bsp_tftlcd.c **** 		LCD_WR_DATA(0x00);
 2639              		.loc 1 659 0
 2640 0750 0420     		movs	r0, #4
 2641 0752 FFF7FEFF 		bl	LCD_WR_DATA
 2642              	.LVL419:
 660:Src/bsp_tftlcd.c **** 
 2643              		.loc 1 660 0
 2644 0756 0020     		movs	r0, #0
 2645 0758 FFF7FEFF 		bl	LCD_WR_DATA
 2646              	.LVL420:
 662:Src/bsp_tftlcd.c **** 		LCD_WR_DATA(0x3C);
 2647              		.loc 1 662 0
 2648 075c C320     		movs	r0, #195
 2649 075e FFF7FEFF 		bl	LCD_WR_REG
 2650              	.LVL421:
 663:Src/bsp_tftlcd.c **** 		LCD_WR_DATA(0x00);
 2651              		.loc 1 663 0
 2652 0762 3C20     		movs	r0, #60
 2653 0764 FFF7FEFF 		bl	LCD_WR_DATA
 2654              	.LVL422:
 664:Src/bsp_tftlcd.c **** 		LCD_WR_DATA(0x3A);
 2655              		.loc 1 664 0
 2656 0768 0020     		movs	r0, #0
 2657 076a FFF7FEFF 		bl	LCD_WR_DATA
 2658              	.LVL423:
 665:Src/bsp_tftlcd.c **** 		LCD_WR_DATA(0x00);
 2659              		.loc 1 665 0
 2660 076e 3A20     		movs	r0, #58
 2661 0770 FFF7FEFF 		bl	LCD_WR_DATA
 2662              	.LVL424:
ARM GAS  /tmp/cco7znPM.s 			page 81


 666:Src/bsp_tftlcd.c **** 		LCD_WR_DATA(0x39);
 2663              		.loc 1 666 0
 2664 0774 0020     		movs	r0, #0
 2665 0776 FFF7FEFF 		bl	LCD_WR_DATA
 2666              	.LVL425:
 667:Src/bsp_tftlcd.c **** 		LCD_WR_DATA(0x00);
 2667              		.loc 1 667 0
 2668 077a 3920     		movs	r0, #57
 2669 077c FFF7FEFF 		bl	LCD_WR_DATA
 2670              	.LVL426:
 668:Src/bsp_tftlcd.c **** 		LCD_WR_DATA(0x37);
 2671              		.loc 1 668 0
 2672 0780 0020     		movs	r0, #0
 2673 0782 FFF7FEFF 		bl	LCD_WR_DATA
 2674              	.LVL427:
 669:Src/bsp_tftlcd.c **** 		LCD_WR_DATA(0x00);
 2675              		.loc 1 669 0
 2676 0786 3720     		movs	r0, #55
 2677 0788 FFF7FEFF 		bl	LCD_WR_DATA
 2678              	.LVL428:
 670:Src/bsp_tftlcd.c **** 		LCD_WR_DATA(0x3C);
 2679              		.loc 1 670 0
 2680 078c 0020     		movs	r0, #0
 2681 078e FFF7FEFF 		bl	LCD_WR_DATA
 2682              	.LVL429:
 671:Src/bsp_tftlcd.c **** 		LCD_WR_DATA(0x00);
 2683              		.loc 1 671 0
 2684 0792 3C20     		movs	r0, #60
 2685 0794 FFF7FEFF 		bl	LCD_WR_DATA
 2686              	.LVL430:
 672:Src/bsp_tftlcd.c **** 		LCD_WR_DATA(0x36);
 2687              		.loc 1 672 0
 2688 0798 0020     		movs	r0, #0
 2689 079a FFF7FEFF 		bl	LCD_WR_DATA
 2690              	.LVL431:
 673:Src/bsp_tftlcd.c **** 		LCD_WR_DATA(0x00);
 2691              		.loc 1 673 0
 2692 079e 3620     		movs	r0, #54
 2693 07a0 FFF7FEFF 		bl	LCD_WR_DATA
 2694              	.LVL432:
 674:Src/bsp_tftlcd.c **** 		LCD_WR_DATA(0x32);
 2695              		.loc 1 674 0
 2696 07a4 0020     		movs	r0, #0
 2697 07a6 FFF7FEFF 		bl	LCD_WR_DATA
 2698              	.LVL433:
 675:Src/bsp_tftlcd.c **** 		LCD_WR_DATA(0x00);
 2699              		.loc 1 675 0
 2700 07aa 3220     		movs	r0, #50
 2701 07ac FFF7FEFF 		bl	LCD_WR_DATA
 2702              	.LVL434:
 676:Src/bsp_tftlcd.c **** 		LCD_WR_DATA(0x2F);
 2703              		.loc 1 676 0
 2704 07b0 0020     		movs	r0, #0
 2705 07b2 FFF7FEFF 		bl	LCD_WR_DATA
 2706              	.LVL435:
 677:Src/bsp_tftlcd.c **** 		LCD_WR_DATA(0x00);
 2707              		.loc 1 677 0
ARM GAS  /tmp/cco7znPM.s 			page 82


 2708 07b6 2F20     		movs	r0, #47
 2709 07b8 FFF7FEFF 		bl	LCD_WR_DATA
 2710              	.LVL436:
 678:Src/bsp_tftlcd.c **** 		LCD_WR_DATA(0x2C);
 2711              		.loc 1 678 0
 2712 07bc 0020     		movs	r0, #0
 2713 07be FFF7FEFF 		bl	LCD_WR_DATA
 2714              	.LVL437:
 679:Src/bsp_tftlcd.c **** 		LCD_WR_DATA(0x00);
 2715              		.loc 1 679 0
 2716 07c2 2C20     		movs	r0, #44
 2717 07c4 FFF7FEFF 		bl	LCD_WR_DATA
 2718              	.LVL438:
 680:Src/bsp_tftlcd.c **** 		LCD_WR_DATA(0x29);
 2719              		.loc 1 680 0
 2720 07c8 0020     		movs	r0, #0
 2721 07ca FFF7FEFF 		bl	LCD_WR_DATA
 2722              	.LVL439:
 681:Src/bsp_tftlcd.c **** 		LCD_WR_DATA(0x00);
 2723              		.loc 1 681 0
 2724 07ce 2920     		movs	r0, #41
 2725 07d0 FFF7FEFF 		bl	LCD_WR_DATA
 2726              	.LVL440:
 682:Src/bsp_tftlcd.c **** 		LCD_WR_DATA(0x26);
 2727              		.loc 1 682 0
 2728 07d4 0020     		movs	r0, #0
 2729 07d6 FFF7FEFF 		bl	LCD_WR_DATA
 2730              	.LVL441:
 683:Src/bsp_tftlcd.c **** 		LCD_WR_DATA(0x00);
 2731              		.loc 1 683 0
 2732 07da 2620     		movs	r0, #38
 2733 07dc FFF7FEFF 		bl	LCD_WR_DATA
 2734              	.LVL442:
 684:Src/bsp_tftlcd.c **** 		LCD_WR_DATA(0x24);
 2735              		.loc 1 684 0
 2736 07e0 0020     		movs	r0, #0
 2737 07e2 FFF7FEFF 		bl	LCD_WR_DATA
 2738              	.LVL443:
 685:Src/bsp_tftlcd.c **** 		LCD_WR_DATA(0x00);
 2739              		.loc 1 685 0
 2740 07e6 2420     		movs	r0, #36
 2741 07e8 FFF7FEFF 		bl	LCD_WR_DATA
 2742              	.LVL444:
 686:Src/bsp_tftlcd.c **** 		LCD_WR_DATA(0x24);
 2743              		.loc 1 686 0
 2744 07ec 0020     		movs	r0, #0
 2745 07ee FFF7FEFF 		bl	LCD_WR_DATA
 2746              	.LVL445:
 687:Src/bsp_tftlcd.c **** 		LCD_WR_DATA(0x00);
 2747              		.loc 1 687 0
 2748 07f2 2420     		movs	r0, #36
 2749 07f4 FFF7FEFF 		bl	LCD_WR_DATA
 2750              	.LVL446:
 688:Src/bsp_tftlcd.c **** 		LCD_WR_DATA(0x23);
 2751              		.loc 1 688 0
 2752 07f8 0020     		movs	r0, #0
 2753 07fa FFF7FEFF 		bl	LCD_WR_DATA
ARM GAS  /tmp/cco7znPM.s 			page 83


 2754              	.LVL447:
 689:Src/bsp_tftlcd.c **** 		LCD_WR_DATA(0x00);
 2755              		.loc 1 689 0
 2756 07fe 2320     		movs	r0, #35
 2757 0800 FFF7FEFF 		bl	LCD_WR_DATA
 2758              	.LVL448:
 690:Src/bsp_tftlcd.c **** 		LCD_WR_DATA(0x3C);
 2759              		.loc 1 690 0
 2760 0804 0020     		movs	r0, #0
 2761 0806 FFF7FEFF 		bl	LCD_WR_DATA
 2762              	.LVL449:
 691:Src/bsp_tftlcd.c **** 		LCD_WR_DATA(0x00);
 2763              		.loc 1 691 0
 2764 080a 3C20     		movs	r0, #60
 2765 080c FFF7FEFF 		bl	LCD_WR_DATA
 2766              	.LVL450:
 692:Src/bsp_tftlcd.c **** 		LCD_WR_DATA(0x36);
 2767              		.loc 1 692 0
 2768 0810 0020     		movs	r0, #0
 2769 0812 FFF7FEFF 		bl	LCD_WR_DATA
 2770              	.LVL451:
 693:Src/bsp_tftlcd.c **** 		LCD_WR_DATA(0x00);
 2771              		.loc 1 693 0
 2772 0816 3620     		movs	r0, #54
 2773 0818 FFF7FEFF 		bl	LCD_WR_DATA
 2774              	.LVL452:
 694:Src/bsp_tftlcd.c **** 		LCD_WR_DATA(0x32);
 2775              		.loc 1 694 0
 2776 081c 0020     		movs	r0, #0
 2777 081e FFF7FEFF 		bl	LCD_WR_DATA
 2778              	.LVL453:
 695:Src/bsp_tftlcd.c **** 		LCD_WR_DATA(0x00);
 2779              		.loc 1 695 0
 2780 0822 3220     		movs	r0, #50
 2781 0824 FFF7FEFF 		bl	LCD_WR_DATA
 2782              	.LVL454:
 696:Src/bsp_tftlcd.c **** 		LCD_WR_DATA(0x2F);
 2783              		.loc 1 696 0
 2784 0828 0020     		movs	r0, #0
 2785 082a FFF7FEFF 		bl	LCD_WR_DATA
 2786              	.LVL455:
 697:Src/bsp_tftlcd.c **** 		LCD_WR_DATA(0x00);
 2787              		.loc 1 697 0
 2788 082e 2F20     		movs	r0, #47
 2789 0830 FFF7FEFF 		bl	LCD_WR_DATA
 2790              	.LVL456:
 698:Src/bsp_tftlcd.c **** 		LCD_WR_DATA(0x2C);
 2791              		.loc 1 698 0
 2792 0834 0020     		movs	r0, #0
 2793 0836 FFF7FEFF 		bl	LCD_WR_DATA
 2794              	.LVL457:
 699:Src/bsp_tftlcd.c **** 		LCD_WR_DATA(0x00);
 2795              		.loc 1 699 0
 2796 083a 2C20     		movs	r0, #44
 2797 083c FFF7FEFF 		bl	LCD_WR_DATA
 2798              	.LVL458:
 700:Src/bsp_tftlcd.c **** 		LCD_WR_DATA(0x29);
ARM GAS  /tmp/cco7znPM.s 			page 84


 2799              		.loc 1 700 0
 2800 0840 0020     		movs	r0, #0
 2801 0842 FFF7FEFF 		bl	LCD_WR_DATA
 2802              	.LVL459:
 701:Src/bsp_tftlcd.c **** 		LCD_WR_DATA(0x00);
 2803              		.loc 1 701 0
 2804 0846 2920     		movs	r0, #41
 2805 0848 FFF7FEFF 		bl	LCD_WR_DATA
 2806              	.LVL460:
 702:Src/bsp_tftlcd.c **** 		LCD_WR_DATA(0x26);
 2807              		.loc 1 702 0
 2808 084c 0020     		movs	r0, #0
 2809 084e FFF7FEFF 		bl	LCD_WR_DATA
 2810              	.LVL461:
 703:Src/bsp_tftlcd.c **** 		LCD_WR_DATA(0x00);
 2811              		.loc 1 703 0
 2812 0852 2620     		movs	r0, #38
 2813 0854 FFF7FEFF 		bl	LCD_WR_DATA
 2814              	.LVL462:
 704:Src/bsp_tftlcd.c **** 		LCD_WR_DATA(0x24);
 2815              		.loc 1 704 0
 2816 0858 0020     		movs	r0, #0
 2817 085a FFF7FEFF 		bl	LCD_WR_DATA
 2818              	.LVL463:
 705:Src/bsp_tftlcd.c **** 		LCD_WR_DATA(0x00);
 2819              		.loc 1 705 0
 2820 085e 2420     		movs	r0, #36
 2821 0860 FFF7FEFF 		bl	LCD_WR_DATA
 2822              	.LVL464:
 706:Src/bsp_tftlcd.c **** 		LCD_WR_DATA(0x24);
 2823              		.loc 1 706 0
 2824 0864 0020     		movs	r0, #0
 2825 0866 FFF7FEFF 		bl	LCD_WR_DATA
 2826              	.LVL465:
 707:Src/bsp_tftlcd.c **** 		LCD_WR_DATA(0x00);
 2827              		.loc 1 707 0
 2828 086a 2420     		movs	r0, #36
 2829 086c FFF7FEFF 		bl	LCD_WR_DATA
 2830              	.LVL466:
 708:Src/bsp_tftlcd.c **** 		LCD_WR_DATA(0x23);
 2831              		.loc 1 708 0
 2832 0870 0020     		movs	r0, #0
 2833 0872 FFF7FEFF 		bl	LCD_WR_DATA
 2834              	.LVL467:
 709:Src/bsp_tftlcd.c **** 		LCD_WR_DATA(0x00);
 2835              		.loc 1 709 0
 2836 0876 2320     		movs	r0, #35
 2837 0878 FFF7FEFF 		bl	LCD_WR_DATA
 2838              	.LVL468:
 710:Src/bsp_tftlcd.c **** 
 2839              		.loc 1 710 0
 2840 087c 0020     		movs	r0, #0
 2841 087e FFF7FEFF 		bl	LCD_WR_DATA
 2842              	.LVL469:
 712:Src/bsp_tftlcd.c **** 		LCD_WR_DATA(0x62);
 2843              		.loc 1 712 0
 2844 0882 C420     		movs	r0, #196
ARM GAS  /tmp/cco7znPM.s 			page 85


 2845 0884 FFF7FEFF 		bl	LCD_WR_REG
 2846              	.LVL470:
 713:Src/bsp_tftlcd.c **** 		LCD_WR_DATA(0x00);
 2847              		.loc 1 713 0
 2848 0888 6220     		movs	r0, #98
 2849 088a FFF7FEFF 		bl	LCD_WR_DATA
 2850              	.LVL471:
 714:Src/bsp_tftlcd.c **** 		LCD_WR_DATA(0x05);
 2851              		.loc 1 714 0
 2852 088e 0020     		movs	r0, #0
 2853 0890 FFF7FEFF 		bl	LCD_WR_DATA
 2854              	.LVL472:
 715:Src/bsp_tftlcd.c **** 		LCD_WR_DATA(0x00);
 2855              		.loc 1 715 0
 2856 0894 0520     		movs	r0, #5
 2857 0896 FFF7FEFF 		bl	LCD_WR_DATA
 2858              	.LVL473:
 716:Src/bsp_tftlcd.c **** 		LCD_WR_DATA(0x84);
 2859              		.loc 1 716 0
 2860 089a 0020     		movs	r0, #0
 2861 089c FFF7FEFF 		bl	LCD_WR_DATA
 2862              	.LVL474:
 717:Src/bsp_tftlcd.c **** 		LCD_WR_DATA(0x00);
 2863              		.loc 1 717 0
 2864 08a0 8420     		movs	r0, #132
 2865 08a2 FFF7FEFF 		bl	LCD_WR_DATA
 2866              	.LVL475:
 718:Src/bsp_tftlcd.c **** 		LCD_WR_DATA(0xF0);
 2867              		.loc 1 718 0
 2868 08a6 0020     		movs	r0, #0
 2869 08a8 FFF7FEFF 		bl	LCD_WR_DATA
 2870              	.LVL476:
 719:Src/bsp_tftlcd.c **** 		LCD_WR_DATA(0x00);
 2871              		.loc 1 719 0
 2872 08ac F020     		movs	r0, #240
 2873 08ae FFF7FEFF 		bl	LCD_WR_DATA
 2874              	.LVL477:
 720:Src/bsp_tftlcd.c **** 		LCD_WR_DATA(0x18);
 2875              		.loc 1 720 0
 2876 08b2 0020     		movs	r0, #0
 2877 08b4 FFF7FEFF 		bl	LCD_WR_DATA
 2878              	.LVL478:
 721:Src/bsp_tftlcd.c **** 		LCD_WR_DATA(0x00);
 2879              		.loc 1 721 0
 2880 08b8 1820     		movs	r0, #24
 2881 08ba FFF7FEFF 		bl	LCD_WR_DATA
 2882              	.LVL479:
 722:Src/bsp_tftlcd.c **** 		LCD_WR_DATA(0xA4);
 2883              		.loc 1 722 0
 2884 08be 0020     		movs	r0, #0
 2885 08c0 FFF7FEFF 		bl	LCD_WR_DATA
 2886              	.LVL480:
 723:Src/bsp_tftlcd.c **** 		LCD_WR_DATA(0x00);
 2887              		.loc 1 723 0
 2888 08c4 A420     		movs	r0, #164
 2889 08c6 FFF7FEFF 		bl	LCD_WR_DATA
 2890              	.LVL481:
ARM GAS  /tmp/cco7znPM.s 			page 86


 724:Src/bsp_tftlcd.c **** 		LCD_WR_DATA(0x18);
 2891              		.loc 1 724 0
 2892 08ca 0020     		movs	r0, #0
 2893 08cc FFF7FEFF 		bl	LCD_WR_DATA
 2894              	.LVL482:
 725:Src/bsp_tftlcd.c **** 		LCD_WR_DATA(0x00);
 2895              		.loc 1 725 0
 2896 08d0 1820     		movs	r0, #24
 2897 08d2 FFF7FEFF 		bl	LCD_WR_DATA
 2898              	.LVL483:
 726:Src/bsp_tftlcd.c **** 		LCD_WR_DATA(0x50);
 2899              		.loc 1 726 0
 2900 08d6 0020     		movs	r0, #0
 2901 08d8 FFF7FEFF 		bl	LCD_WR_DATA
 2902              	.LVL484:
 727:Src/bsp_tftlcd.c **** 		LCD_WR_DATA(0x00);
 2903              		.loc 1 727 0
 2904 08dc 5020     		movs	r0, #80
 2905 08de FFF7FEFF 		bl	LCD_WR_DATA
 2906              	.LVL485:
 728:Src/bsp_tftlcd.c **** 		LCD_WR_DATA(0x0C);
 2907              		.loc 1 728 0
 2908 08e2 0020     		movs	r0, #0
 2909 08e4 FFF7FEFF 		bl	LCD_WR_DATA
 2910              	.LVL486:
 729:Src/bsp_tftlcd.c **** 		LCD_WR_DATA(0x00);
 2911              		.loc 1 729 0
 2912 08e8 0C20     		movs	r0, #12
 2913 08ea FFF7FEFF 		bl	LCD_WR_DATA
 2914              	.LVL487:
 730:Src/bsp_tftlcd.c **** 		LCD_WR_DATA(0x17);
 2915              		.loc 1 730 0
 2916 08ee 0020     		movs	r0, #0
 2917 08f0 FFF7FEFF 		bl	LCD_WR_DATA
 2918              	.LVL488:
 731:Src/bsp_tftlcd.c **** 		LCD_WR_DATA(0x00);
 2919              		.loc 1 731 0
 2920 08f4 1720     		movs	r0, #23
 2921 08f6 FFF7FEFF 		bl	LCD_WR_DATA
 2922              	.LVL489:
 732:Src/bsp_tftlcd.c **** 		LCD_WR_DATA(0x95);
 2923              		.loc 1 732 0
 2924 08fa 0020     		movs	r0, #0
 2925 08fc FFF7FEFF 		bl	LCD_WR_DATA
 2926              	.LVL490:
 733:Src/bsp_tftlcd.c **** 		LCD_WR_DATA(0x00);
 2927              		.loc 1 733 0
 2928 0900 9520     		movs	r0, #149
 2929 0902 FFF7FEFF 		bl	LCD_WR_DATA
 2930              	.LVL491:
 734:Src/bsp_tftlcd.c **** 		LCD_WR_DATA(0xF3);
 2931              		.loc 1 734 0
 2932 0906 0020     		movs	r0, #0
 2933 0908 FFF7FEFF 		bl	LCD_WR_DATA
 2934              	.LVL492:
 735:Src/bsp_tftlcd.c **** 		LCD_WR_DATA(0x00);
 2935              		.loc 1 735 0
ARM GAS  /tmp/cco7znPM.s 			page 87


 2936 090c F320     		movs	r0, #243
 2937 090e FFF7FEFF 		bl	LCD_WR_DATA
 2938              	.LVL493:
 736:Src/bsp_tftlcd.c **** 		LCD_WR_DATA(0xE6);
 2939              		.loc 1 736 0
 2940 0912 0020     		movs	r0, #0
 2941 0914 FFF7FEFF 		bl	LCD_WR_DATA
 2942              	.LVL494:
 737:Src/bsp_tftlcd.c **** 		LCD_WR_DATA(0x00);
 2943              		.loc 1 737 0
 2944 0918 E620     		movs	r0, #230
 2945 091a FFF7FEFF 		bl	LCD_WR_DATA
 2946              	.LVL495:
 738:Src/bsp_tftlcd.c **** 
 2947              		.loc 1 738 0
 2948 091e 0020     		movs	r0, #0
 2949 0920 FFF7FEFF 		bl	LCD_WR_DATA
 2950              	.LVL496:
 740:Src/bsp_tftlcd.c **** 		LCD_WR_DATA(0x32);
 2951              		.loc 1 740 0
 2952 0924 C520     		movs	r0, #197
 2953 0926 FFF7FEFF 		bl	LCD_WR_REG
 2954              	.LVL497:
 741:Src/bsp_tftlcd.c **** 		LCD_WR_DATA(0x00);
 2955              		.loc 1 741 0
 2956 092a 3220     		movs	r0, #50
 2957 092c FFF7FEFF 		bl	LCD_WR_DATA
 2958              	.LVL498:
 742:Src/bsp_tftlcd.c **** 		LCD_WR_DATA(0x44);
 2959              		.loc 1 742 0
 2960 0930 0020     		movs	r0, #0
 2961 0932 FFF7FEFF 		bl	LCD_WR_DATA
 2962              	.LVL499:
 743:Src/bsp_tftlcd.c **** 		LCD_WR_DATA(0x00);
 2963              		.loc 1 743 0
 2964 0936 4420     		movs	r0, #68
 2965 0938 FFF7FEFF 		bl	LCD_WR_DATA
 2966              	.LVL500:
 744:Src/bsp_tftlcd.c **** 		LCD_WR_DATA(0x65);
 2967              		.loc 1 744 0
 2968 093c 0020     		movs	r0, #0
 2969 093e FFF7FEFF 		bl	LCD_WR_DATA
 2970              	.LVL501:
 745:Src/bsp_tftlcd.c **** 		LCD_WR_DATA(0x00);
 2971              		.loc 1 745 0
 2972 0942 6520     		movs	r0, #101
 2973 0944 FFF7FEFF 		bl	LCD_WR_DATA
 2974              	.LVL502:
 746:Src/bsp_tftlcd.c **** 		LCD_WR_DATA(0x76);
 2975              		.loc 1 746 0
 2976 0948 0020     		movs	r0, #0
 2977 094a FFF7FEFF 		bl	LCD_WR_DATA
 2978              	.LVL503:
 747:Src/bsp_tftlcd.c **** 		LCD_WR_DATA(0x00);
 2979              		.loc 1 747 0
 2980 094e 7620     		movs	r0, #118
 2981 0950 FFF7FEFF 		bl	LCD_WR_DATA
ARM GAS  /tmp/cco7znPM.s 			page 88


 2982              	.LVL504:
 748:Src/bsp_tftlcd.c **** 		LCD_WR_DATA(0x88);
 2983              		.loc 1 748 0
 2984 0954 0020     		movs	r0, #0
 2985 0956 FFF7FEFF 		bl	LCD_WR_DATA
 2986              	.LVL505:
 749:Src/bsp_tftlcd.c **** 		LCD_WR_DATA(0x00);
 2987              		.loc 1 749 0
 2988 095a 8820     		movs	r0, #136
 2989 095c FFF7FEFF 		bl	LCD_WR_DATA
 2990              	.LVL506:
 750:Src/bsp_tftlcd.c **** 
 2991              		.loc 1 750 0
 2992 0960 0020     		movs	r0, #0
 2993 0962 FFF7FEFF 		bl	LCD_WR_DATA
 2994              	.LVL507:
 752:Src/bsp_tftlcd.c **** 		LCD_WR_DATA(0x20);
 2995              		.loc 1 752 0
 2996 0966 C620     		movs	r0, #198
 2997 0968 FFF7FEFF 		bl	LCD_WR_REG
 2998              	.LVL508:
 753:Src/bsp_tftlcd.c **** 		LCD_WR_DATA(0x00);
 2999              		.loc 1 753 0
 3000 096c 2020     		movs	r0, #32
 3001 096e FFF7FEFF 		bl	LCD_WR_DATA
 3002              	.LVL509:
 754:Src/bsp_tftlcd.c **** 		LCD_WR_DATA(0x17);
 3003              		.loc 1 754 0
 3004 0972 0020     		movs	r0, #0
 3005 0974 FFF7FEFF 		bl	LCD_WR_DATA
 3006              	.LVL510:
 755:Src/bsp_tftlcd.c **** 		LCD_WR_DATA(0x00);
 3007              		.loc 1 755 0
 3008 0978 1720     		movs	r0, #23
 3009 097a FFF7FEFF 		bl	LCD_WR_DATA
 3010              	.LVL511:
 756:Src/bsp_tftlcd.c **** 		LCD_WR_DATA(0x01);
 3011              		.loc 1 756 0
 3012 097e 0020     		movs	r0, #0
 3013 0980 FFF7FEFF 		bl	LCD_WR_DATA
 3014              	.LVL512:
 757:Src/bsp_tftlcd.c **** 		LCD_WR_DATA(0x00);
 3015              		.loc 1 757 0
 3016 0984 0120     		movs	r0, #1
 3017 0986 FFF7FEFF 		bl	LCD_WR_DATA
 3018              	.LVL513:
 758:Src/bsp_tftlcd.c **** 
 3019              		.loc 1 758 0
 3020 098a 0020     		movs	r0, #0
 3021 098c FFF7FEFF 		bl	LCD_WR_DATA
 3022              	.LVL514:
 760:Src/bsp_tftlcd.c **** 		LCD_WR_DATA(0x00);
 3023              		.loc 1 760 0
 3024 0990 C720     		movs	r0, #199
 3025 0992 FFF7FEFF 		bl	LCD_WR_REG
 3026              	.LVL515:
 761:Src/bsp_tftlcd.c **** 		LCD_WR_DATA(0x00);
ARM GAS  /tmp/cco7znPM.s 			page 89


 3027              		.loc 1 761 0
 3028 0996 0020     		movs	r0, #0
 3029 0998 FFF7FEFF 		bl	LCD_WR_DATA
 3030              	.LVL516:
 762:Src/bsp_tftlcd.c **** 		LCD_WR_DATA(0x00);
 3031              		.loc 1 762 0
 3032 099c 0020     		movs	r0, #0
 3033 099e FFF7FEFF 		bl	LCD_WR_DATA
 3034              	.LVL517:
 763:Src/bsp_tftlcd.c **** 		LCD_WR_DATA(0x00);
 3035              		.loc 1 763 0
 3036 09a2 0020     		movs	r0, #0
 3037 09a4 FFF7FEFF 		bl	LCD_WR_DATA
 3038              	.LVL518:
 764:Src/bsp_tftlcd.c **** 
 3039              		.loc 1 764 0
 3040 09a8 0020     		movs	r0, #0
 3041 09aa FFF7FEFF 		bl	LCD_WR_DATA
 3042              	.LVL519:
 766:Src/bsp_tftlcd.c **** 		LCD_WR_DATA(0x00);
 3043              		.loc 1 766 0
 3044 09ae C820     		movs	r0, #200
 3045 09b0 FFF7FEFF 		bl	LCD_WR_REG
 3046              	.LVL520:
 767:Src/bsp_tftlcd.c **** 		LCD_WR_DATA(0x00);
 3047              		.loc 1 767 0
 3048 09b4 0020     		movs	r0, #0
 3049 09b6 FFF7FEFF 		bl	LCD_WR_DATA
 3050              	.LVL521:
 768:Src/bsp_tftlcd.c **** 		LCD_WR_DATA(0x00);
 3051              		.loc 1 768 0
 3052 09ba 0020     		movs	r0, #0
 3053 09bc FFF7FEFF 		bl	LCD_WR_DATA
 3054              	.LVL522:
 769:Src/bsp_tftlcd.c **** 		LCD_WR_DATA(0x00);
 3055              		.loc 1 769 0
 3056 09c0 0020     		movs	r0, #0
 3057 09c2 FFF7FEFF 		bl	LCD_WR_DATA
 3058              	.LVL523:
 770:Src/bsp_tftlcd.c **** 
 3059              		.loc 1 770 0
 3060 09c6 0020     		movs	r0, #0
 3061 09c8 FFF7FEFF 		bl	LCD_WR_DATA
 3062              	.LVL524:
 772:Src/bsp_tftlcd.c **** 		LCD_WR_DATA(0x00);
 3063              		.loc 1 772 0
 3064 09cc C920     		movs	r0, #201
 3065 09ce FFF7FEFF 		bl	LCD_WR_REG
 3066              	.LVL525:
 773:Src/bsp_tftlcd.c **** 		LCD_WR_DATA(0x00);
 3067              		.loc 1 773 0
 3068 09d2 0020     		movs	r0, #0
 3069 09d4 FFF7FEFF 		bl	LCD_WR_DATA
 3070              	.LVL526:
 774:Src/bsp_tftlcd.c **** 		LCD_WR_DATA(0x00);
 3071              		.loc 1 774 0
 3072 09d8 0020     		movs	r0, #0
ARM GAS  /tmp/cco7znPM.s 			page 90


 3073 09da FFF7FEFF 		bl	LCD_WR_DATA
 3074              	.LVL527:
 775:Src/bsp_tftlcd.c **** 		LCD_WR_DATA(0x00);
 3075              		.loc 1 775 0
 3076 09de 0020     		movs	r0, #0
 3077 09e0 FFF7FEFF 		bl	LCD_WR_DATA
 3078              	.LVL528:
 776:Src/bsp_tftlcd.c **** 		LCD_WR_DATA(0x00);
 3079              		.loc 1 776 0
 3080 09e4 0020     		movs	r0, #0
 3081 09e6 FFF7FEFF 		bl	LCD_WR_DATA
 3082              	.LVL529:
 777:Src/bsp_tftlcd.c **** 		LCD_WR_DATA(0x00);
 3083              		.loc 1 777 0
 3084 09ea 0020     		movs	r0, #0
 3085 09ec FFF7FEFF 		bl	LCD_WR_DATA
 3086              	.LVL530:
 778:Src/bsp_tftlcd.c **** 		LCD_WR_DATA(0x00);
 3087              		.loc 1 778 0
 3088 09f0 0020     		movs	r0, #0
 3089 09f2 FFF7FEFF 		bl	LCD_WR_DATA
 3090              	.LVL531:
 779:Src/bsp_tftlcd.c **** 		LCD_WR_DATA(0x00);
 3091              		.loc 1 779 0
 3092 09f6 0020     		movs	r0, #0
 3093 09f8 FFF7FEFF 		bl	LCD_WR_DATA
 3094              	.LVL532:
 780:Src/bsp_tftlcd.c **** 		LCD_WR_DATA(0x00);
 3095              		.loc 1 780 0
 3096 09fc 0020     		movs	r0, #0
 3097 09fe FFF7FEFF 		bl	LCD_WR_DATA
 3098              	.LVL533:
 781:Src/bsp_tftlcd.c **** 		LCD_WR_DATA(0x00);
 3099              		.loc 1 781 0
 3100 0a02 0020     		movs	r0, #0
 3101 0a04 FFF7FEFF 		bl	LCD_WR_DATA
 3102              	.LVL534:
 782:Src/bsp_tftlcd.c **** 		LCD_WR_DATA(0x00);
 3103              		.loc 1 782 0
 3104 0a08 0020     		movs	r0, #0
 3105 0a0a FFF7FEFF 		bl	LCD_WR_DATA
 3106              	.LVL535:
 783:Src/bsp_tftlcd.c **** 		LCD_WR_DATA(0x00);
 3107              		.loc 1 783 0
 3108 0a0e 0020     		movs	r0, #0
 3109 0a10 FFF7FEFF 		bl	LCD_WR_DATA
 3110              	.LVL536:
 784:Src/bsp_tftlcd.c **** 		LCD_WR_DATA(0x00);
 3111              		.loc 1 784 0
 3112 0a14 0020     		movs	r0, #0
 3113 0a16 FFF7FEFF 		bl	LCD_WR_DATA
 3114              	.LVL537:
 785:Src/bsp_tftlcd.c **** 		LCD_WR_DATA(0x00);
 3115              		.loc 1 785 0
 3116 0a1a 0020     		movs	r0, #0
 3117 0a1c FFF7FEFF 		bl	LCD_WR_DATA
 3118              	.LVL538:
ARM GAS  /tmp/cco7znPM.s 			page 91


 786:Src/bsp_tftlcd.c **** 		LCD_WR_DATA(0x00);
 3119              		.loc 1 786 0
 3120 0a20 0020     		movs	r0, #0
 3121 0a22 FFF7FEFF 		bl	LCD_WR_DATA
 3122              	.LVL539:
 787:Src/bsp_tftlcd.c **** 		LCD_WR_DATA(0x00);
 3123              		.loc 1 787 0
 3124 0a26 0020     		movs	r0, #0
 3125 0a28 FFF7FEFF 		bl	LCD_WR_DATA
 3126              	.LVL540:
 788:Src/bsp_tftlcd.c **** 
 3127              		.loc 1 788 0
 3128 0a2c 0020     		movs	r0, #0
 3129 0a2e FFF7FEFF 		bl	LCD_WR_DATA
 3130              	.LVL541:
 790:Src/bsp_tftlcd.c **** 		LCD_WR_DATA(0x16);
 3131              		.loc 1 790 0
 3132 0a32 E020     		movs	r0, #224
 3133 0a34 FFF7FEFF 		bl	LCD_WR_REG
 3134              	.LVL542:
 791:Src/bsp_tftlcd.c **** 		LCD_WR_DATA(0x00);
 3135              		.loc 1 791 0
 3136 0a38 1620     		movs	r0, #22
 3137 0a3a FFF7FEFF 		bl	LCD_WR_DATA
 3138              	.LVL543:
 792:Src/bsp_tftlcd.c **** 		LCD_WR_DATA(0x1C);
 3139              		.loc 1 792 0
 3140 0a3e 0020     		movs	r0, #0
 3141 0a40 FFF7FEFF 		bl	LCD_WR_DATA
 3142              	.LVL544:
 793:Src/bsp_tftlcd.c **** 		LCD_WR_DATA(0x00);
 3143              		.loc 1 793 0
 3144 0a44 1C20     		movs	r0, #28
 3145 0a46 FFF7FEFF 		bl	LCD_WR_DATA
 3146              	.LVL545:
 794:Src/bsp_tftlcd.c **** 		LCD_WR_DATA(0x21);
 3147              		.loc 1 794 0
 3148 0a4a 0020     		movs	r0, #0
 3149 0a4c FFF7FEFF 		bl	LCD_WR_DATA
 3150              	.LVL546:
 795:Src/bsp_tftlcd.c **** 		LCD_WR_DATA(0x00);
 3151              		.loc 1 795 0
 3152 0a50 2120     		movs	r0, #33
 3153 0a52 FFF7FEFF 		bl	LCD_WR_DATA
 3154              	.LVL547:
 796:Src/bsp_tftlcd.c **** 		LCD_WR_DATA(0x36);
 3155              		.loc 1 796 0
 3156 0a56 0020     		movs	r0, #0
 3157 0a58 FFF7FEFF 		bl	LCD_WR_DATA
 3158              	.LVL548:
 797:Src/bsp_tftlcd.c **** 		LCD_WR_DATA(0x00);
 3159              		.loc 1 797 0
 3160 0a5c 3620     		movs	r0, #54
 3161 0a5e FFF7FEFF 		bl	LCD_WR_DATA
 3162              	.LVL549:
 798:Src/bsp_tftlcd.c **** 		LCD_WR_DATA(0x46);
 3163              		.loc 1 798 0
ARM GAS  /tmp/cco7znPM.s 			page 92


 3164 0a62 0020     		movs	r0, #0
 3165 0a64 FFF7FEFF 		bl	LCD_WR_DATA
 3166              	.LVL550:
 799:Src/bsp_tftlcd.c **** 		LCD_WR_DATA(0x00);
 3167              		.loc 1 799 0
 3168 0a68 4620     		movs	r0, #70
 3169 0a6a FFF7FEFF 		bl	LCD_WR_DATA
 3170              	.LVL551:
 800:Src/bsp_tftlcd.c **** 		LCD_WR_DATA(0x52);
 3171              		.loc 1 800 0
 3172 0a6e 0020     		movs	r0, #0
 3173 0a70 FFF7FEFF 		bl	LCD_WR_DATA
 3174              	.LVL552:
 801:Src/bsp_tftlcd.c **** 		LCD_WR_DATA(0x00);
 3175              		.loc 1 801 0
 3176 0a74 5220     		movs	r0, #82
 3177 0a76 FFF7FEFF 		bl	LCD_WR_DATA
 3178              	.LVL553:
 802:Src/bsp_tftlcd.c **** 		LCD_WR_DATA(0x64);
 3179              		.loc 1 802 0
 3180 0a7a 0020     		movs	r0, #0
 3181 0a7c FFF7FEFF 		bl	LCD_WR_DATA
 3182              	.LVL554:
 803:Src/bsp_tftlcd.c **** 		LCD_WR_DATA(0x00);
 3183              		.loc 1 803 0
 3184 0a80 6420     		movs	r0, #100
 3185 0a82 FFF7FEFF 		bl	LCD_WR_DATA
 3186              	.LVL555:
 804:Src/bsp_tftlcd.c **** 		LCD_WR_DATA(0x7A);
 3187              		.loc 1 804 0
 3188 0a86 0020     		movs	r0, #0
 3189 0a88 FFF7FEFF 		bl	LCD_WR_DATA
 3190              	.LVL556:
 805:Src/bsp_tftlcd.c **** 		LCD_WR_DATA(0x00);
 3191              		.loc 1 805 0
 3192 0a8c 7A20     		movs	r0, #122
 3193 0a8e FFF7FEFF 		bl	LCD_WR_DATA
 3194              	.LVL557:
 806:Src/bsp_tftlcd.c **** 		LCD_WR_DATA(0x8B);
 3195              		.loc 1 806 0
 3196 0a92 0020     		movs	r0, #0
 3197 0a94 FFF7FEFF 		bl	LCD_WR_DATA
 3198              	.LVL558:
 807:Src/bsp_tftlcd.c **** 		LCD_WR_DATA(0x00);
 3199              		.loc 1 807 0
 3200 0a98 8B20     		movs	r0, #139
 3201 0a9a FFF7FEFF 		bl	LCD_WR_DATA
 3202              	.LVL559:
 808:Src/bsp_tftlcd.c **** 		LCD_WR_DATA(0x99);
 3203              		.loc 1 808 0
 3204 0a9e 0020     		movs	r0, #0
 3205 0aa0 FFF7FEFF 		bl	LCD_WR_DATA
 3206              	.LVL560:
 809:Src/bsp_tftlcd.c **** 		LCD_WR_DATA(0x00);
 3207              		.loc 1 809 0
 3208 0aa4 9920     		movs	r0, #153
 3209 0aa6 FFF7FEFF 		bl	LCD_WR_DATA
ARM GAS  /tmp/cco7znPM.s 			page 93


 3210              	.LVL561:
 810:Src/bsp_tftlcd.c **** 		LCD_WR_DATA(0xA8);
 3211              		.loc 1 810 0
 3212 0aaa 0020     		movs	r0, #0
 3213 0aac FFF7FEFF 		bl	LCD_WR_DATA
 3214              	.LVL562:
 811:Src/bsp_tftlcd.c **** 		LCD_WR_DATA(0x00);
 3215              		.loc 1 811 0
 3216 0ab0 A820     		movs	r0, #168
 3217 0ab2 FFF7FEFF 		bl	LCD_WR_DATA
 3218              	.LVL563:
 812:Src/bsp_tftlcd.c **** 		LCD_WR_DATA(0xB9);
 3219              		.loc 1 812 0
 3220 0ab6 0020     		movs	r0, #0
 3221 0ab8 FFF7FEFF 		bl	LCD_WR_DATA
 3222              	.LVL564:
 813:Src/bsp_tftlcd.c **** 		LCD_WR_DATA(0x00);
 3223              		.loc 1 813 0
 3224 0abc B920     		movs	r0, #185
 3225 0abe FFF7FEFF 		bl	LCD_WR_DATA
 3226              	.LVL565:
 814:Src/bsp_tftlcd.c **** 		LCD_WR_DATA(0xC4);
 3227              		.loc 1 814 0
 3228 0ac2 0020     		movs	r0, #0
 3229 0ac4 FFF7FEFF 		bl	LCD_WR_DATA
 3230              	.LVL566:
 815:Src/bsp_tftlcd.c **** 		LCD_WR_DATA(0x00);
 3231              		.loc 1 815 0
 3232 0ac8 C420     		movs	r0, #196
 3233 0aca FFF7FEFF 		bl	LCD_WR_DATA
 3234              	.LVL567:
 816:Src/bsp_tftlcd.c **** 		LCD_WR_DATA(0xCA);
 3235              		.loc 1 816 0
 3236 0ace 0020     		movs	r0, #0
 3237 0ad0 FFF7FEFF 		bl	LCD_WR_DATA
 3238              	.LVL568:
 817:Src/bsp_tftlcd.c **** 		LCD_WR_DATA(0x00);
 3239              		.loc 1 817 0
 3240 0ad4 CA20     		movs	r0, #202
 3241 0ad6 FFF7FEFF 		bl	LCD_WR_DATA
 3242              	.LVL569:
 818:Src/bsp_tftlcd.c **** 		LCD_WR_DATA(0xD2);
 3243              		.loc 1 818 0
 3244 0ada 0020     		movs	r0, #0
 3245 0adc FFF7FEFF 		bl	LCD_WR_DATA
 3246              	.LVL570:
 819:Src/bsp_tftlcd.c **** 		LCD_WR_DATA(0x00);
 3247              		.loc 1 819 0
 3248 0ae0 D220     		movs	r0, #210
 3249 0ae2 FFF7FEFF 		bl	LCD_WR_DATA
 3250              	.LVL571:
 820:Src/bsp_tftlcd.c **** 		LCD_WR_DATA(0xD9);
 3251              		.loc 1 820 0
 3252 0ae6 0020     		movs	r0, #0
 3253 0ae8 FFF7FEFF 		bl	LCD_WR_DATA
 3254              	.LVL572:
 821:Src/bsp_tftlcd.c **** 		LCD_WR_DATA(0x00);
ARM GAS  /tmp/cco7znPM.s 			page 94


 3255              		.loc 1 821 0
 3256 0aec D920     		movs	r0, #217
 3257 0aee FFF7FEFF 		bl	LCD_WR_DATA
 3258              	.LVL573:
 822:Src/bsp_tftlcd.c **** 		LCD_WR_DATA(0xE0);
 3259              		.loc 1 822 0
 3260 0af2 0020     		movs	r0, #0
 3261 0af4 FFF7FEFF 		bl	LCD_WR_DATA
 3262              	.LVL574:
 823:Src/bsp_tftlcd.c **** 		LCD_WR_DATA(0x00);
 3263              		.loc 1 823 0
 3264 0af8 E020     		movs	r0, #224
 3265 0afa FFF7FEFF 		bl	LCD_WR_DATA
 3266              	.LVL575:
 824:Src/bsp_tftlcd.c **** 		LCD_WR_DATA(0xF3);
 3267              		.loc 1 824 0
 3268 0afe 0020     		movs	r0, #0
 3269 0b00 FFF7FEFF 		bl	LCD_WR_DATA
 3270              	.LVL576:
 825:Src/bsp_tftlcd.c **** 		LCD_WR_DATA(0x00);
 3271              		.loc 1 825 0
 3272 0b04 F320     		movs	r0, #243
 3273 0b06 FFF7FEFF 		bl	LCD_WR_DATA
 3274              	.LVL577:
 826:Src/bsp_tftlcd.c **** 
 3275              		.loc 1 826 0
 3276 0b0a 0020     		movs	r0, #0
 3277 0b0c FFF7FEFF 		bl	LCD_WR_DATA
 3278              	.LVL578:
 828:Src/bsp_tftlcd.c **** 		LCD_WR_DATA(0x16);
 3279              		.loc 1 828 0
 3280 0b10 E120     		movs	r0, #225
 3281 0b12 FFF7FEFF 		bl	LCD_WR_REG
 3282              	.LVL579:
 829:Src/bsp_tftlcd.c **** 		LCD_WR_DATA(0x00);
 3283              		.loc 1 829 0
 3284 0b16 1620     		movs	r0, #22
 3285 0b18 FFF7FEFF 		bl	LCD_WR_DATA
 3286              	.LVL580:
 830:Src/bsp_tftlcd.c **** 		LCD_WR_DATA(0x1C);
 3287              		.loc 1 830 0
 3288 0b1c 0020     		movs	r0, #0
 3289 0b1e FFF7FEFF 		bl	LCD_WR_DATA
 3290              	.LVL581:
 831:Src/bsp_tftlcd.c **** 		LCD_WR_DATA(0x00);
 3291              		.loc 1 831 0
 3292 0b22 1C20     		movs	r0, #28
 3293 0b24 FFF7FEFF 		bl	LCD_WR_DATA
 3294              	.LVL582:
 832:Src/bsp_tftlcd.c **** 		LCD_WR_DATA(0x22);
 3295              		.loc 1 832 0
 3296 0b28 0020     		movs	r0, #0
 3297 0b2a FFF7FEFF 		bl	LCD_WR_DATA
 3298              	.LVL583:
 833:Src/bsp_tftlcd.c **** 		LCD_WR_DATA(0x00);
 3299              		.loc 1 833 0
 3300 0b2e 2220     		movs	r0, #34
ARM GAS  /tmp/cco7znPM.s 			page 95


 3301 0b30 FFF7FEFF 		bl	LCD_WR_DATA
 3302              	.LVL584:
 834:Src/bsp_tftlcd.c **** 		LCD_WR_DATA(0x36);
 3303              		.loc 1 834 0
 3304 0b34 0020     		movs	r0, #0
 3305 0b36 FFF7FEFF 		bl	LCD_WR_DATA
 3306              	.LVL585:
 835:Src/bsp_tftlcd.c **** 		LCD_WR_DATA(0x00);
 3307              		.loc 1 835 0
 3308 0b3a 3620     		movs	r0, #54
 3309 0b3c FFF7FEFF 		bl	LCD_WR_DATA
 3310              	.LVL586:
 836:Src/bsp_tftlcd.c **** 		LCD_WR_DATA(0x45);
 3311              		.loc 1 836 0
 3312 0b40 0020     		movs	r0, #0
 3313 0b42 FFF7FEFF 		bl	LCD_WR_DATA
 3314              	.LVL587:
 837:Src/bsp_tftlcd.c **** 		LCD_WR_DATA(0x00);
 3315              		.loc 1 837 0
 3316 0b46 4520     		movs	r0, #69
 3317 0b48 FFF7FEFF 		bl	LCD_WR_DATA
 3318              	.LVL588:
 838:Src/bsp_tftlcd.c **** 		LCD_WR_DATA(0x52);
 3319              		.loc 1 838 0
 3320 0b4c 0020     		movs	r0, #0
 3321 0b4e FFF7FEFF 		bl	LCD_WR_DATA
 3322              	.LVL589:
 839:Src/bsp_tftlcd.c **** 		LCD_WR_DATA(0x00);
 3323              		.loc 1 839 0
 3324 0b52 5220     		movs	r0, #82
 3325 0b54 FFF7FEFF 		bl	LCD_WR_DATA
 3326              	.LVL590:
 840:Src/bsp_tftlcd.c **** 		LCD_WR_DATA(0x64);
 3327              		.loc 1 840 0
 3328 0b58 0020     		movs	r0, #0
 3329 0b5a FFF7FEFF 		bl	LCD_WR_DATA
 3330              	.LVL591:
 841:Src/bsp_tftlcd.c **** 		LCD_WR_DATA(0x00);
 3331              		.loc 1 841 0
 3332 0b5e 6420     		movs	r0, #100
 3333 0b60 FFF7FEFF 		bl	LCD_WR_DATA
 3334              	.LVL592:
 842:Src/bsp_tftlcd.c **** 		LCD_WR_DATA(0x7A);
 3335              		.loc 1 842 0
 3336 0b64 0020     		movs	r0, #0
 3337 0b66 FFF7FEFF 		bl	LCD_WR_DATA
 3338              	.LVL593:
 843:Src/bsp_tftlcd.c **** 		LCD_WR_DATA(0x00);
 3339              		.loc 1 843 0
 3340 0b6a 7A20     		movs	r0, #122
 3341 0b6c FFF7FEFF 		bl	LCD_WR_DATA
 3342              	.LVL594:
 844:Src/bsp_tftlcd.c **** 		LCD_WR_DATA(0x8B);
 3343              		.loc 1 844 0
 3344 0b70 0020     		movs	r0, #0
 3345 0b72 FFF7FEFF 		bl	LCD_WR_DATA
 3346              	.LVL595:
ARM GAS  /tmp/cco7znPM.s 			page 96


 845:Src/bsp_tftlcd.c **** 		LCD_WR_DATA(0x00);
 3347              		.loc 1 845 0
 3348 0b76 8B20     		movs	r0, #139
 3349 0b78 FFF7FEFF 		bl	LCD_WR_DATA
 3350              	.LVL596:
 846:Src/bsp_tftlcd.c **** 		LCD_WR_DATA(0x99);
 3351              		.loc 1 846 0
 3352 0b7c 0020     		movs	r0, #0
 3353 0b7e FFF7FEFF 		bl	LCD_WR_DATA
 3354              	.LVL597:
 847:Src/bsp_tftlcd.c **** 		LCD_WR_DATA(0x00);
 3355              		.loc 1 847 0
 3356 0b82 9920     		movs	r0, #153
 3357 0b84 FFF7FEFF 		bl	LCD_WR_DATA
 3358              	.LVL598:
 848:Src/bsp_tftlcd.c **** 		LCD_WR_DATA(0xA8);
 3359              		.loc 1 848 0
 3360 0b88 0020     		movs	r0, #0
 3361 0b8a FFF7FEFF 		bl	LCD_WR_DATA
 3362              	.LVL599:
 849:Src/bsp_tftlcd.c **** 		LCD_WR_DATA(0x00);
 3363              		.loc 1 849 0
 3364 0b8e A820     		movs	r0, #168
 3365 0b90 FFF7FEFF 		bl	LCD_WR_DATA
 3366              	.LVL600:
 850:Src/bsp_tftlcd.c **** 		LCD_WR_DATA(0xB9);
 3367              		.loc 1 850 0
 3368 0b94 0020     		movs	r0, #0
 3369 0b96 FFF7FEFF 		bl	LCD_WR_DATA
 3370              	.LVL601:
 851:Src/bsp_tftlcd.c **** 		LCD_WR_DATA(0x00);
 3371              		.loc 1 851 0
 3372 0b9a B920     		movs	r0, #185
 3373 0b9c FFF7FEFF 		bl	LCD_WR_DATA
 3374              	.LVL602:
 852:Src/bsp_tftlcd.c **** 		LCD_WR_DATA(0xC4);
 3375              		.loc 1 852 0
 3376 0ba0 0020     		movs	r0, #0
 3377 0ba2 FFF7FEFF 		bl	LCD_WR_DATA
 3378              	.LVL603:
 853:Src/bsp_tftlcd.c **** 		LCD_WR_DATA(0x00);
 3379              		.loc 1 853 0
 3380 0ba6 C420     		movs	r0, #196
 3381 0ba8 FFF7FEFF 		bl	LCD_WR_DATA
 3382              	.LVL604:
 854:Src/bsp_tftlcd.c **** 		LCD_WR_DATA(0xCA);
 3383              		.loc 1 854 0
 3384 0bac 0020     		movs	r0, #0
 3385 0bae FFF7FEFF 		bl	LCD_WR_DATA
 3386              	.LVL605:
 855:Src/bsp_tftlcd.c **** 		LCD_WR_DATA(0x00);
 3387              		.loc 1 855 0
 3388 0bb2 CA20     		movs	r0, #202
 3389 0bb4 FFF7FEFF 		bl	LCD_WR_DATA
 3390              	.LVL606:
 856:Src/bsp_tftlcd.c **** 		LCD_WR_DATA(0xD2);
 3391              		.loc 1 856 0
ARM GAS  /tmp/cco7znPM.s 			page 97


 3392 0bb8 0020     		movs	r0, #0
 3393 0bba FFF7FEFF 		bl	LCD_WR_DATA
 3394              	.LVL607:
 857:Src/bsp_tftlcd.c **** 		LCD_WR_DATA(0x00);
 3395              		.loc 1 857 0
 3396 0bbe D220     		movs	r0, #210
 3397 0bc0 FFF7FEFF 		bl	LCD_WR_DATA
 3398              	.LVL608:
 858:Src/bsp_tftlcd.c **** 		LCD_WR_DATA(0xD8);
 3399              		.loc 1 858 0
 3400 0bc4 0020     		movs	r0, #0
 3401 0bc6 FFF7FEFF 		bl	LCD_WR_DATA
 3402              	.LVL609:
 859:Src/bsp_tftlcd.c **** 		LCD_WR_DATA(0x00);
 3403              		.loc 1 859 0
 3404 0bca D820     		movs	r0, #216
 3405 0bcc FFF7FEFF 		bl	LCD_WR_DATA
 3406              	.LVL610:
 860:Src/bsp_tftlcd.c **** 		LCD_WR_DATA(0xE0);
 3407              		.loc 1 860 0
 3408 0bd0 0020     		movs	r0, #0
 3409 0bd2 FFF7FEFF 		bl	LCD_WR_DATA
 3410              	.LVL611:
 861:Src/bsp_tftlcd.c **** 		LCD_WR_DATA(0x00);
 3411              		.loc 1 861 0
 3412 0bd6 E020     		movs	r0, #224
 3413 0bd8 FFF7FEFF 		bl	LCD_WR_DATA
 3414              	.LVL612:
 862:Src/bsp_tftlcd.c **** 		LCD_WR_DATA(0xF3);
 3415              		.loc 1 862 0
 3416 0bdc 0020     		movs	r0, #0
 3417 0bde FFF7FEFF 		bl	LCD_WR_DATA
 3418              	.LVL613:
 863:Src/bsp_tftlcd.c **** 		LCD_WR_DATA(0x00);
 3419              		.loc 1 863 0
 3420 0be2 F320     		movs	r0, #243
 3421 0be4 FFF7FEFF 		bl	LCD_WR_DATA
 3422              	.LVL614:
 864:Src/bsp_tftlcd.c **** 
 3423              		.loc 1 864 0
 3424 0be8 0020     		movs	r0, #0
 3425 0bea FFF7FEFF 		bl	LCD_WR_DATA
 3426              	.LVL615:
 866:Src/bsp_tftlcd.c **** 		LCD_WR_DATA(0x05);
 3427              		.loc 1 866 0
 3428 0bee E220     		movs	r0, #226
 3429 0bf0 FFF7FEFF 		bl	LCD_WR_REG
 3430              	.LVL616:
 867:Src/bsp_tftlcd.c **** 		LCD_WR_DATA(0x00);
 3431              		.loc 1 867 0
 3432 0bf4 0520     		movs	r0, #5
 3433 0bf6 FFF7FEFF 		bl	LCD_WR_DATA
 3434              	.LVL617:
 868:Src/bsp_tftlcd.c **** 		LCD_WR_DATA(0x0B);
 3435              		.loc 1 868 0
 3436 0bfa 0020     		movs	r0, #0
 3437 0bfc FFF7FEFF 		bl	LCD_WR_DATA
ARM GAS  /tmp/cco7znPM.s 			page 98


 3438              	.LVL618:
 869:Src/bsp_tftlcd.c **** 		LCD_WR_DATA(0x00);
 3439              		.loc 1 869 0
 3440 0c00 0B20     		movs	r0, #11
 3441 0c02 FFF7FEFF 		bl	LCD_WR_DATA
 3442              	.LVL619:
 870:Src/bsp_tftlcd.c **** 		LCD_WR_DATA(0x1B);
 3443              		.loc 1 870 0
 3444 0c06 0020     		movs	r0, #0
 3445 0c08 FFF7FEFF 		bl	LCD_WR_DATA
 3446              	.LVL620:
 871:Src/bsp_tftlcd.c **** 		LCD_WR_DATA(0x00);
 3447              		.loc 1 871 0
 3448 0c0c 1B20     		movs	r0, #27
 3449 0c0e FFF7FEFF 		bl	LCD_WR_DATA
 3450              	.LVL621:
 872:Src/bsp_tftlcd.c **** 		LCD_WR_DATA(0x34);
 3451              		.loc 1 872 0
 3452 0c12 0020     		movs	r0, #0
 3453 0c14 FFF7FEFF 		bl	LCD_WR_DATA
 3454              	.LVL622:
 873:Src/bsp_tftlcd.c **** 		LCD_WR_DATA(0x00);
 3455              		.loc 1 873 0
 3456 0c18 3420     		movs	r0, #52
 3457 0c1a FFF7FEFF 		bl	LCD_WR_DATA
 3458              	.LVL623:
 874:Src/bsp_tftlcd.c **** 		LCD_WR_DATA(0x44);
 3459              		.loc 1 874 0
 3460 0c1e 0020     		movs	r0, #0
 3461 0c20 FFF7FEFF 		bl	LCD_WR_DATA
 3462              	.LVL624:
 875:Src/bsp_tftlcd.c **** 		LCD_WR_DATA(0x00);
 3463              		.loc 1 875 0
 3464 0c24 4420     		movs	r0, #68
 3465 0c26 FFF7FEFF 		bl	LCD_WR_DATA
 3466              	.LVL625:
 876:Src/bsp_tftlcd.c **** 		LCD_WR_DATA(0x4F);
 3467              		.loc 1 876 0
 3468 0c2a 0020     		movs	r0, #0
 3469 0c2c FFF7FEFF 		bl	LCD_WR_DATA
 3470              	.LVL626:
 877:Src/bsp_tftlcd.c **** 		LCD_WR_DATA(0x00);
 3471              		.loc 1 877 0
 3472 0c30 4F20     		movs	r0, #79
 3473 0c32 FFF7FEFF 		bl	LCD_WR_DATA
 3474              	.LVL627:
 878:Src/bsp_tftlcd.c **** 		LCD_WR_DATA(0x61);
 3475              		.loc 1 878 0
 3476 0c36 0020     		movs	r0, #0
 3477 0c38 FFF7FEFF 		bl	LCD_WR_DATA
 3478              	.LVL628:
 879:Src/bsp_tftlcd.c **** 		LCD_WR_DATA(0x00);
 3479              		.loc 1 879 0
 3480 0c3c 6120     		movs	r0, #97
 3481 0c3e FFF7FEFF 		bl	LCD_WR_DATA
 3482              	.LVL629:
 880:Src/bsp_tftlcd.c **** 		LCD_WR_DATA(0x79);
ARM GAS  /tmp/cco7znPM.s 			page 99


 3483              		.loc 1 880 0
 3484 0c42 0020     		movs	r0, #0
 3485 0c44 FFF7FEFF 		bl	LCD_WR_DATA
 3486              	.LVL630:
 881:Src/bsp_tftlcd.c **** 		LCD_WR_DATA(0x00);
 3487              		.loc 1 881 0
 3488 0c48 7920     		movs	r0, #121
 3489 0c4a FFF7FEFF 		bl	LCD_WR_DATA
 3490              	.LVL631:
 882:Src/bsp_tftlcd.c **** 		LCD_WR_DATA(0x88);
 3491              		.loc 1 882 0
 3492 0c4e 0020     		movs	r0, #0
 3493 0c50 FFF7FEFF 		bl	LCD_WR_DATA
 3494              	.LVL632:
 883:Src/bsp_tftlcd.c **** 		LCD_WR_DATA(0x00);
 3495              		.loc 1 883 0
 3496 0c54 8820     		movs	r0, #136
 3497 0c56 FFF7FEFF 		bl	LCD_WR_DATA
 3498              	.LVL633:
 884:Src/bsp_tftlcd.c **** 		LCD_WR_DATA(0x97);
 3499              		.loc 1 884 0
 3500 0c5a 0020     		movs	r0, #0
 3501 0c5c FFF7FEFF 		bl	LCD_WR_DATA
 3502              	.LVL634:
 885:Src/bsp_tftlcd.c **** 		LCD_WR_DATA(0x00);
 3503              		.loc 1 885 0
 3504 0c60 9720     		movs	r0, #151
 3505 0c62 FFF7FEFF 		bl	LCD_WR_DATA
 3506              	.LVL635:
 886:Src/bsp_tftlcd.c **** 		LCD_WR_DATA(0xA6);
 3507              		.loc 1 886 0
 3508 0c66 0020     		movs	r0, #0
 3509 0c68 FFF7FEFF 		bl	LCD_WR_DATA
 3510              	.LVL636:
 887:Src/bsp_tftlcd.c **** 		LCD_WR_DATA(0x00);
 3511              		.loc 1 887 0
 3512 0c6c A620     		movs	r0, #166
 3513 0c6e FFF7FEFF 		bl	LCD_WR_DATA
 3514              	.LVL637:
 888:Src/bsp_tftlcd.c **** 		LCD_WR_DATA(0xB7);
 3515              		.loc 1 888 0
 3516 0c72 0020     		movs	r0, #0
 3517 0c74 FFF7FEFF 		bl	LCD_WR_DATA
 3518              	.LVL638:
 889:Src/bsp_tftlcd.c **** 		LCD_WR_DATA(0x00);
 3519              		.loc 1 889 0
 3520 0c78 B720     		movs	r0, #183
 3521 0c7a FFF7FEFF 		bl	LCD_WR_DATA
 3522              	.LVL639:
 890:Src/bsp_tftlcd.c **** 		LCD_WR_DATA(0xC2);
 3523              		.loc 1 890 0
 3524 0c7e 0020     		movs	r0, #0
 3525 0c80 FFF7FEFF 		bl	LCD_WR_DATA
 3526              	.LVL640:
 891:Src/bsp_tftlcd.c **** 		LCD_WR_DATA(0x00);
 3527              		.loc 1 891 0
 3528 0c84 C220     		movs	r0, #194
ARM GAS  /tmp/cco7znPM.s 			page 100


 3529 0c86 FFF7FEFF 		bl	LCD_WR_DATA
 3530              	.LVL641:
 892:Src/bsp_tftlcd.c **** 		LCD_WR_DATA(0xC7);
 3531              		.loc 1 892 0
 3532 0c8a 0020     		movs	r0, #0
 3533 0c8c FFF7FEFF 		bl	LCD_WR_DATA
 3534              	.LVL642:
 893:Src/bsp_tftlcd.c **** 		LCD_WR_DATA(0x00);
 3535              		.loc 1 893 0
 3536 0c90 C720     		movs	r0, #199
 3537 0c92 FFF7FEFF 		bl	LCD_WR_DATA
 3538              	.LVL643:
 894:Src/bsp_tftlcd.c **** 		LCD_WR_DATA(0xD1);
 3539              		.loc 1 894 0
 3540 0c96 0020     		movs	r0, #0
 3541 0c98 FFF7FEFF 		bl	LCD_WR_DATA
 3542              	.LVL644:
 895:Src/bsp_tftlcd.c **** 		LCD_WR_DATA(0x00);
 3543              		.loc 1 895 0
 3544 0c9c D120     		movs	r0, #209
 3545 0c9e FFF7FEFF 		bl	LCD_WR_DATA
 3546              	.LVL645:
 896:Src/bsp_tftlcd.c **** 		LCD_WR_DATA(0xD6);
 3547              		.loc 1 896 0
 3548 0ca2 0020     		movs	r0, #0
 3549 0ca4 FFF7FEFF 		bl	LCD_WR_DATA
 3550              	.LVL646:
 897:Src/bsp_tftlcd.c **** 		LCD_WR_DATA(0x00);
 3551              		.loc 1 897 0
 3552 0ca8 D620     		movs	r0, #214
 3553 0caa FFF7FEFF 		bl	LCD_WR_DATA
 3554              	.LVL647:
 898:Src/bsp_tftlcd.c **** 		LCD_WR_DATA(0xDD);
 3555              		.loc 1 898 0
 3556 0cae 0020     		movs	r0, #0
 3557 0cb0 FFF7FEFF 		bl	LCD_WR_DATA
 3558              	.LVL648:
 899:Src/bsp_tftlcd.c **** 		LCD_WR_DATA(0x00);
 3559              		.loc 1 899 0
 3560 0cb4 DD20     		movs	r0, #221
 3561 0cb6 FFF7FEFF 		bl	LCD_WR_DATA
 3562              	.LVL649:
 900:Src/bsp_tftlcd.c **** 		LCD_WR_DATA(0xF3);
 3563              		.loc 1 900 0
 3564 0cba 0020     		movs	r0, #0
 3565 0cbc FFF7FEFF 		bl	LCD_WR_DATA
 3566              	.LVL650:
 901:Src/bsp_tftlcd.c **** 		LCD_WR_DATA(0x00);
 3567              		.loc 1 901 0
 3568 0cc0 F320     		movs	r0, #243
 3569 0cc2 FFF7FEFF 		bl	LCD_WR_DATA
 3570              	.LVL651:
 902:Src/bsp_tftlcd.c **** 		LCD_WR_REG(0xE3);
 3571              		.loc 1 902 0
 3572 0cc6 0020     		movs	r0, #0
 3573 0cc8 FFF7FEFF 		bl	LCD_WR_DATA
 3574              	.LVL652:
ARM GAS  /tmp/cco7znPM.s 			page 101


 903:Src/bsp_tftlcd.c **** 		LCD_WR_DATA(0x05);
 3575              		.loc 1 903 0
 3576 0ccc E320     		movs	r0, #227
 3577 0cce FFF7FEFF 		bl	LCD_WR_REG
 3578              	.LVL653:
 904:Src/bsp_tftlcd.c **** 		LCD_WR_DATA(0x00);
 3579              		.loc 1 904 0
 3580 0cd2 0520     		movs	r0, #5
 3581 0cd4 FFF7FEFF 		bl	LCD_WR_DATA
 3582              	.LVL654:
 905:Src/bsp_tftlcd.c **** 		LCD_WR_DATA(0xA);
 3583              		.loc 1 905 0
 3584 0cd8 0020     		movs	r0, #0
 3585 0cda FFF7FEFF 		bl	LCD_WR_DATA
 3586              	.LVL655:
 906:Src/bsp_tftlcd.c **** 		LCD_WR_DATA(0x00);
 3587              		.loc 1 906 0
 3588 0cde 0A20     		movs	r0, #10
 3589 0ce0 FFF7FEFF 		bl	LCD_WR_DATA
 3590              	.LVL656:
 907:Src/bsp_tftlcd.c **** 		LCD_WR_DATA(0x1C);
 3591              		.loc 1 907 0
 3592 0ce4 0020     		movs	r0, #0
 3593 0ce6 FFF7FEFF 		bl	LCD_WR_DATA
 3594              	.LVL657:
 908:Src/bsp_tftlcd.c **** 		LCD_WR_DATA(0x00);
 3595              		.loc 1 908 0
 3596 0cea 1C20     		movs	r0, #28
 3597 0cec FFF7FEFF 		bl	LCD_WR_DATA
 3598              	.LVL658:
 909:Src/bsp_tftlcd.c **** 		LCD_WR_DATA(0x33);
 3599              		.loc 1 909 0
 3600 0cf0 0020     		movs	r0, #0
 3601 0cf2 FFF7FEFF 		bl	LCD_WR_DATA
 3602              	.LVL659:
 910:Src/bsp_tftlcd.c **** 		LCD_WR_DATA(0x00);
 3603              		.loc 1 910 0
 3604 0cf6 3320     		movs	r0, #51
 3605 0cf8 FFF7FEFF 		bl	LCD_WR_DATA
 3606              	.LVL660:
 911:Src/bsp_tftlcd.c **** 		LCD_WR_DATA(0x44);
 3607              		.loc 1 911 0
 3608 0cfc 0020     		movs	r0, #0
 3609 0cfe FFF7FEFF 		bl	LCD_WR_DATA
 3610              	.LVL661:
 912:Src/bsp_tftlcd.c **** 		LCD_WR_DATA(0x00);
 3611              		.loc 1 912 0
 3612 0d02 4420     		movs	r0, #68
 3613 0d04 FFF7FEFF 		bl	LCD_WR_DATA
 3614              	.LVL662:
 913:Src/bsp_tftlcd.c **** 		LCD_WR_DATA(0x50);
 3615              		.loc 1 913 0
 3616 0d08 0020     		movs	r0, #0
 3617 0d0a FFF7FEFF 		bl	LCD_WR_DATA
 3618              	.LVL663:
 914:Src/bsp_tftlcd.c **** 		LCD_WR_DATA(0x00);
 3619              		.loc 1 914 0
ARM GAS  /tmp/cco7znPM.s 			page 102


 3620 0d0e 5020     		movs	r0, #80
 3621 0d10 FFF7FEFF 		bl	LCD_WR_DATA
 3622              	.LVL664:
 915:Src/bsp_tftlcd.c **** 		LCD_WR_DATA(0x62);
 3623              		.loc 1 915 0
 3624 0d14 0020     		movs	r0, #0
 3625 0d16 FFF7FEFF 		bl	LCD_WR_DATA
 3626              	.LVL665:
 916:Src/bsp_tftlcd.c **** 		LCD_WR_DATA(0x00);
 3627              		.loc 1 916 0
 3628 0d1a 6220     		movs	r0, #98
 3629 0d1c FFF7FEFF 		bl	LCD_WR_DATA
 3630              	.LVL666:
 917:Src/bsp_tftlcd.c **** 		LCD_WR_DATA(0x78);
 3631              		.loc 1 917 0
 3632 0d20 0020     		movs	r0, #0
 3633 0d22 FFF7FEFF 		bl	LCD_WR_DATA
 3634              	.LVL667:
 918:Src/bsp_tftlcd.c **** 		LCD_WR_DATA(0x00);
 3635              		.loc 1 918 0
 3636 0d26 7820     		movs	r0, #120
 3637 0d28 FFF7FEFF 		bl	LCD_WR_DATA
 3638              	.LVL668:
 919:Src/bsp_tftlcd.c **** 		LCD_WR_DATA(0x88);
 3639              		.loc 1 919 0
 3640 0d2c 0020     		movs	r0, #0
 3641 0d2e FFF7FEFF 		bl	LCD_WR_DATA
 3642              	.LVL669:
 920:Src/bsp_tftlcd.c **** 		LCD_WR_DATA(0x00);
 3643              		.loc 1 920 0
 3644 0d32 8820     		movs	r0, #136
 3645 0d34 FFF7FEFF 		bl	LCD_WR_DATA
 3646              	.LVL670:
 921:Src/bsp_tftlcd.c **** 		LCD_WR_DATA(0x97);
 3647              		.loc 1 921 0
 3648 0d38 0020     		movs	r0, #0
 3649 0d3a FFF7FEFF 		bl	LCD_WR_DATA
 3650              	.LVL671:
 922:Src/bsp_tftlcd.c **** 		LCD_WR_DATA(0x00);
 3651              		.loc 1 922 0
 3652 0d3e 9720     		movs	r0, #151
 3653 0d40 FFF7FEFF 		bl	LCD_WR_DATA
 3654              	.LVL672:
 923:Src/bsp_tftlcd.c **** 		LCD_WR_DATA(0xA6);
 3655              		.loc 1 923 0
 3656 0d44 0020     		movs	r0, #0
 3657 0d46 FFF7FEFF 		bl	LCD_WR_DATA
 3658              	.LVL673:
 924:Src/bsp_tftlcd.c **** 		LCD_WR_DATA(0x00);
 3659              		.loc 1 924 0
 3660 0d4a A620     		movs	r0, #166
 3661 0d4c FFF7FEFF 		bl	LCD_WR_DATA
 3662              	.LVL674:
 925:Src/bsp_tftlcd.c **** 		LCD_WR_DATA(0xB7);
 3663              		.loc 1 925 0
 3664 0d50 0020     		movs	r0, #0
 3665 0d52 FFF7FEFF 		bl	LCD_WR_DATA
ARM GAS  /tmp/cco7znPM.s 			page 103


 3666              	.LVL675:
 926:Src/bsp_tftlcd.c **** 		LCD_WR_DATA(0x00);
 3667              		.loc 1 926 0
 3668 0d56 B720     		movs	r0, #183
 3669 0d58 FFF7FEFF 		bl	LCD_WR_DATA
 3670              	.LVL676:
 927:Src/bsp_tftlcd.c **** 		LCD_WR_DATA(0xC2);
 3671              		.loc 1 927 0
 3672 0d5c 0020     		movs	r0, #0
 3673 0d5e FFF7FEFF 		bl	LCD_WR_DATA
 3674              	.LVL677:
 928:Src/bsp_tftlcd.c **** 		LCD_WR_DATA(0x00);
 3675              		.loc 1 928 0
 3676 0d62 C220     		movs	r0, #194
 3677 0d64 FFF7FEFF 		bl	LCD_WR_DATA
 3678              	.LVL678:
 929:Src/bsp_tftlcd.c **** 		LCD_WR_DATA(0xC7);
 3679              		.loc 1 929 0
 3680 0d68 0020     		movs	r0, #0
 3681 0d6a FFF7FEFF 		bl	LCD_WR_DATA
 3682              	.LVL679:
 930:Src/bsp_tftlcd.c **** 		LCD_WR_DATA(0x00);
 3683              		.loc 1 930 0
 3684 0d6e C720     		movs	r0, #199
 3685 0d70 FFF7FEFF 		bl	LCD_WR_DATA
 3686              	.LVL680:
 931:Src/bsp_tftlcd.c **** 		LCD_WR_DATA(0xD1);
 3687              		.loc 1 931 0
 3688 0d74 0020     		movs	r0, #0
 3689 0d76 FFF7FEFF 		bl	LCD_WR_DATA
 3690              	.LVL681:
 932:Src/bsp_tftlcd.c **** 		LCD_WR_DATA(0x00);
 3691              		.loc 1 932 0
 3692 0d7a D120     		movs	r0, #209
 3693 0d7c FFF7FEFF 		bl	LCD_WR_DATA
 3694              	.LVL682:
 933:Src/bsp_tftlcd.c **** 		LCD_WR_DATA(0xD5);
 3695              		.loc 1 933 0
 3696 0d80 0020     		movs	r0, #0
 3697 0d82 FFF7FEFF 		bl	LCD_WR_DATA
 3698              	.LVL683:
 934:Src/bsp_tftlcd.c **** 		LCD_WR_DATA(0x00);
 3699              		.loc 1 934 0
 3700 0d86 D520     		movs	r0, #213
 3701 0d88 FFF7FEFF 		bl	LCD_WR_DATA
 3702              	.LVL684:
 935:Src/bsp_tftlcd.c **** 		LCD_WR_DATA(0xDD);
 3703              		.loc 1 935 0
 3704 0d8c 0020     		movs	r0, #0
 3705 0d8e FFF7FEFF 		bl	LCD_WR_DATA
 3706              	.LVL685:
 936:Src/bsp_tftlcd.c **** 		LCD_WR_DATA(0x00);
 3707              		.loc 1 936 0
 3708 0d92 DD20     		movs	r0, #221
 3709 0d94 FFF7FEFF 		bl	LCD_WR_DATA
 3710              	.LVL686:
 937:Src/bsp_tftlcd.c **** 		LCD_WR_DATA(0xF3);
ARM GAS  /tmp/cco7znPM.s 			page 104


 3711              		.loc 1 937 0
 3712 0d98 0020     		movs	r0, #0
 3713 0d9a FFF7FEFF 		bl	LCD_WR_DATA
 3714              	.LVL687:
 938:Src/bsp_tftlcd.c **** 		LCD_WR_DATA(0x00);
 3715              		.loc 1 938 0
 3716 0d9e F320     		movs	r0, #243
 3717 0da0 FFF7FEFF 		bl	LCD_WR_DATA
 3718              	.LVL688:
 939:Src/bsp_tftlcd.c **** 
 3719              		.loc 1 939 0
 3720 0da4 0020     		movs	r0, #0
 3721 0da6 FFF7FEFF 		bl	LCD_WR_DATA
 3722              	.LVL689:
 941:Src/bsp_tftlcd.c **** 		LCD_WR_DATA(0x01);
 3723              		.loc 1 941 0
 3724 0daa E420     		movs	r0, #228
 3725 0dac FFF7FEFF 		bl	LCD_WR_REG
 3726              	.LVL690:
 942:Src/bsp_tftlcd.c **** 		LCD_WR_DATA(0x00);
 3727              		.loc 1 942 0
 3728 0db0 0120     		movs	r0, #1
 3729 0db2 FFF7FEFF 		bl	LCD_WR_DATA
 3730              	.LVL691:
 943:Src/bsp_tftlcd.c **** 		LCD_WR_DATA(0x01);
 3731              		.loc 1 943 0
 3732 0db6 0020     		movs	r0, #0
 3733 0db8 FFF7FEFF 		bl	LCD_WR_DATA
 3734              	.LVL692:
 944:Src/bsp_tftlcd.c **** 		LCD_WR_DATA(0x00);
 3735              		.loc 1 944 0
 3736 0dbc 0120     		movs	r0, #1
 3737 0dbe FFF7FEFF 		bl	LCD_WR_DATA
 3738              	.LVL693:
 945:Src/bsp_tftlcd.c **** 		LCD_WR_DATA(0x02);
 3739              		.loc 1 945 0
 3740 0dc2 0020     		movs	r0, #0
 3741 0dc4 FFF7FEFF 		bl	LCD_WR_DATA
 3742              	.LVL694:
 946:Src/bsp_tftlcd.c **** 		LCD_WR_DATA(0x00);
 3743              		.loc 1 946 0
 3744 0dc8 0220     		movs	r0, #2
 3745 0dca FFF7FEFF 		bl	LCD_WR_DATA
 3746              	.LVL695:
 947:Src/bsp_tftlcd.c **** 		LCD_WR_DATA(0x2A);
 3747              		.loc 1 947 0
 3748 0dce 0020     		movs	r0, #0
 3749 0dd0 FFF7FEFF 		bl	LCD_WR_DATA
 3750              	.LVL696:
 948:Src/bsp_tftlcd.c **** 		LCD_WR_DATA(0x00);
 3751              		.loc 1 948 0
 3752 0dd4 2A20     		movs	r0, #42
 3753 0dd6 FFF7FEFF 		bl	LCD_WR_DATA
 3754              	.LVL697:
 949:Src/bsp_tftlcd.c **** 		LCD_WR_DATA(0x3C);
 3755              		.loc 1 949 0
 3756 0dda 0020     		movs	r0, #0
ARM GAS  /tmp/cco7znPM.s 			page 105


 3757 0ddc FFF7FEFF 		bl	LCD_WR_DATA
 3758              	.LVL698:
 950:Src/bsp_tftlcd.c **** 		LCD_WR_DATA(0x00);
 3759              		.loc 1 950 0
 3760 0de0 3C20     		movs	r0, #60
 3761 0de2 FFF7FEFF 		bl	LCD_WR_DATA
 3762              	.LVL699:
 951:Src/bsp_tftlcd.c **** 		LCD_WR_DATA(0x4B);
 3763              		.loc 1 951 0
 3764 0de6 0020     		movs	r0, #0
 3765 0de8 FFF7FEFF 		bl	LCD_WR_DATA
 3766              	.LVL700:
 952:Src/bsp_tftlcd.c **** 		LCD_WR_DATA(0x00);
 3767              		.loc 1 952 0
 3768 0dec 4B20     		movs	r0, #75
 3769 0dee FFF7FEFF 		bl	LCD_WR_DATA
 3770              	.LVL701:
 953:Src/bsp_tftlcd.c **** 		LCD_WR_DATA(0x5D);
 3771              		.loc 1 953 0
 3772 0df2 0020     		movs	r0, #0
 3773 0df4 FFF7FEFF 		bl	LCD_WR_DATA
 3774              	.LVL702:
 954:Src/bsp_tftlcd.c **** 		LCD_WR_DATA(0x00);
 3775              		.loc 1 954 0
 3776 0df8 5D20     		movs	r0, #93
 3777 0dfa FFF7FEFF 		bl	LCD_WR_DATA
 3778              	.LVL703:
 955:Src/bsp_tftlcd.c **** 		LCD_WR_DATA(0x74);
 3779              		.loc 1 955 0
 3780 0dfe 0020     		movs	r0, #0
 3781 0e00 FFF7FEFF 		bl	LCD_WR_DATA
 3782              	.LVL704:
 956:Src/bsp_tftlcd.c **** 		LCD_WR_DATA(0x00);
 3783              		.loc 1 956 0
 3784 0e04 7420     		movs	r0, #116
 3785 0e06 FFF7FEFF 		bl	LCD_WR_DATA
 3786              	.LVL705:
 957:Src/bsp_tftlcd.c **** 		LCD_WR_DATA(0x84);
 3787              		.loc 1 957 0
 3788 0e0a 0020     		movs	r0, #0
 3789 0e0c FFF7FEFF 		bl	LCD_WR_DATA
 3790              	.LVL706:
 958:Src/bsp_tftlcd.c **** 		LCD_WR_DATA(0x00);
 3791              		.loc 1 958 0
 3792 0e10 8420     		movs	r0, #132
 3793 0e12 FFF7FEFF 		bl	LCD_WR_DATA
 3794              	.LVL707:
 959:Src/bsp_tftlcd.c **** 		LCD_WR_DATA(0x93);
 3795              		.loc 1 959 0
 3796 0e16 0020     		movs	r0, #0
 3797 0e18 FFF7FEFF 		bl	LCD_WR_DATA
 3798              	.LVL708:
 960:Src/bsp_tftlcd.c **** 		LCD_WR_DATA(0x00);
 3799              		.loc 1 960 0
 3800 0e1c 9320     		movs	r0, #147
 3801 0e1e FFF7FEFF 		bl	LCD_WR_DATA
 3802              	.LVL709:
ARM GAS  /tmp/cco7znPM.s 			page 106


 961:Src/bsp_tftlcd.c **** 		LCD_WR_DATA(0xA2);
 3803              		.loc 1 961 0
 3804 0e22 0020     		movs	r0, #0
 3805 0e24 FFF7FEFF 		bl	LCD_WR_DATA
 3806              	.LVL710:
 962:Src/bsp_tftlcd.c **** 		LCD_WR_DATA(0x00);
 3807              		.loc 1 962 0
 3808 0e28 A220     		movs	r0, #162
 3809 0e2a FFF7FEFF 		bl	LCD_WR_DATA
 3810              	.LVL711:
 963:Src/bsp_tftlcd.c **** 		LCD_WR_DATA(0xB3);
 3811              		.loc 1 963 0
 3812 0e2e 0020     		movs	r0, #0
 3813 0e30 FFF7FEFF 		bl	LCD_WR_DATA
 3814              	.LVL712:
 964:Src/bsp_tftlcd.c **** 		LCD_WR_DATA(0x00);
 3815              		.loc 1 964 0
 3816 0e34 B320     		movs	r0, #179
 3817 0e36 FFF7FEFF 		bl	LCD_WR_DATA
 3818              	.LVL713:
 965:Src/bsp_tftlcd.c **** 		LCD_WR_DATA(0xBE);
 3819              		.loc 1 965 0
 3820 0e3a 0020     		movs	r0, #0
 3821 0e3c FFF7FEFF 		bl	LCD_WR_DATA
 3822              	.LVL714:
 966:Src/bsp_tftlcd.c **** 		LCD_WR_DATA(0x00);
 3823              		.loc 1 966 0
 3824 0e40 BE20     		movs	r0, #190
 3825 0e42 FFF7FEFF 		bl	LCD_WR_DATA
 3826              	.LVL715:
 967:Src/bsp_tftlcd.c **** 		LCD_WR_DATA(0xC4);
 3827              		.loc 1 967 0
 3828 0e46 0020     		movs	r0, #0
 3829 0e48 FFF7FEFF 		bl	LCD_WR_DATA
 3830              	.LVL716:
 968:Src/bsp_tftlcd.c **** 		LCD_WR_DATA(0x00);
 3831              		.loc 1 968 0
 3832 0e4c C420     		movs	r0, #196
 3833 0e4e FFF7FEFF 		bl	LCD_WR_DATA
 3834              	.LVL717:
 969:Src/bsp_tftlcd.c **** 		LCD_WR_DATA(0xCD);
 3835              		.loc 1 969 0
 3836 0e52 0020     		movs	r0, #0
 3837 0e54 FFF7FEFF 		bl	LCD_WR_DATA
 3838              	.LVL718:
 970:Src/bsp_tftlcd.c **** 		LCD_WR_DATA(0x00);
 3839              		.loc 1 970 0
 3840 0e58 CD20     		movs	r0, #205
 3841 0e5a FFF7FEFF 		bl	LCD_WR_DATA
 3842              	.LVL719:
 971:Src/bsp_tftlcd.c **** 		LCD_WR_DATA(0xD3);
 3843              		.loc 1 971 0
 3844 0e5e 0020     		movs	r0, #0
 3845 0e60 FFF7FEFF 		bl	LCD_WR_DATA
 3846              	.LVL720:
 972:Src/bsp_tftlcd.c **** 		LCD_WR_DATA(0x00);
 3847              		.loc 1 972 0
ARM GAS  /tmp/cco7znPM.s 			page 107


 3848 0e64 D320     		movs	r0, #211
 3849 0e66 FFF7FEFF 		bl	LCD_WR_DATA
 3850              	.LVL721:
 973:Src/bsp_tftlcd.c **** 		LCD_WR_DATA(0xDD);
 3851              		.loc 1 973 0
 3852 0e6a 0020     		movs	r0, #0
 3853 0e6c FFF7FEFF 		bl	LCD_WR_DATA
 3854              	.LVL722:
 974:Src/bsp_tftlcd.c **** 		LCD_WR_DATA(0x00);
 3855              		.loc 1 974 0
 3856 0e70 DD20     		movs	r0, #221
 3857 0e72 FFF7FEFF 		bl	LCD_WR_DATA
 3858              	.LVL723:
 975:Src/bsp_tftlcd.c **** 		LCD_WR_DATA(0xF3);
 3859              		.loc 1 975 0
 3860 0e76 0020     		movs	r0, #0
 3861 0e78 FFF7FEFF 		bl	LCD_WR_DATA
 3862              	.LVL724:
 976:Src/bsp_tftlcd.c **** 		LCD_WR_DATA(0x00);
 3863              		.loc 1 976 0
 3864 0e7c F320     		movs	r0, #243
 3865 0e7e FFF7FEFF 		bl	LCD_WR_DATA
 3866              	.LVL725:
 977:Src/bsp_tftlcd.c **** 		LCD_WR_REG(0xE5);
 3867              		.loc 1 977 0
 3868 0e82 0020     		movs	r0, #0
 3869 0e84 FFF7FEFF 		bl	LCD_WR_DATA
 3870              	.LVL726:
 978:Src/bsp_tftlcd.c **** 		LCD_WR_DATA(0x00);
 3871              		.loc 1 978 0
 3872 0e88 E520     		movs	r0, #229
 3873 0e8a FFF7FEFF 		bl	LCD_WR_REG
 3874              	.LVL727:
 979:Src/bsp_tftlcd.c **** 		LCD_WR_DATA(0x00);
 3875              		.loc 1 979 0
 3876 0e8e 0020     		movs	r0, #0
 3877 0e90 FFF7FEFF 		bl	LCD_WR_DATA
 3878              	.LVL728:
 980:Src/bsp_tftlcd.c **** 		LCD_WR_DATA(0x00);
 3879              		.loc 1 980 0
 3880 0e94 0020     		movs	r0, #0
 3881 0e96 FFF7FEFF 		bl	LCD_WR_DATA
 3882              	.LVL729:
 981:Src/bsp_tftlcd.c **** 		LCD_WR_DATA(0x00);
 3883              		.loc 1 981 0
 3884 0e9a 0020     		movs	r0, #0
 3885 0e9c FFF7FEFF 		bl	LCD_WR_DATA
 3886              	.LVL730:
 982:Src/bsp_tftlcd.c **** 		LCD_WR_DATA(0x02);
 3887              		.loc 1 982 0
 3888 0ea0 0020     		movs	r0, #0
 3889 0ea2 FFF7FEFF 		bl	LCD_WR_DATA
 3890              	.LVL731:
 983:Src/bsp_tftlcd.c **** 		LCD_WR_DATA(0x00);
 3891              		.loc 1 983 0
 3892 0ea6 0220     		movs	r0, #2
 3893 0ea8 FFF7FEFF 		bl	LCD_WR_DATA
ARM GAS  /tmp/cco7znPM.s 			page 108


 3894              	.LVL732:
 984:Src/bsp_tftlcd.c **** 		LCD_WR_DATA(0x29);
 3895              		.loc 1 984 0
 3896 0eac 0020     		movs	r0, #0
 3897 0eae FFF7FEFF 		bl	LCD_WR_DATA
 3898              	.LVL733:
 985:Src/bsp_tftlcd.c **** 		LCD_WR_DATA(0x00);
 3899              		.loc 1 985 0
 3900 0eb2 2920     		movs	r0, #41
 3901 0eb4 FFF7FEFF 		bl	LCD_WR_DATA
 3902              	.LVL734:
 986:Src/bsp_tftlcd.c **** 		LCD_WR_DATA(0x3C);
 3903              		.loc 1 986 0
 3904 0eb8 0020     		movs	r0, #0
 3905 0eba FFF7FEFF 		bl	LCD_WR_DATA
 3906              	.LVL735:
 987:Src/bsp_tftlcd.c **** 		LCD_WR_DATA(0x00);
 3907              		.loc 1 987 0
 3908 0ebe 3C20     		movs	r0, #60
 3909 0ec0 FFF7FEFF 		bl	LCD_WR_DATA
 3910              	.LVL736:
 988:Src/bsp_tftlcd.c **** 		LCD_WR_DATA(0x4B);
 3911              		.loc 1 988 0
 3912 0ec4 0020     		movs	r0, #0
 3913 0ec6 FFF7FEFF 		bl	LCD_WR_DATA
 3914              	.LVL737:
 989:Src/bsp_tftlcd.c **** 		LCD_WR_DATA(0x00);
 3915              		.loc 1 989 0
 3916 0eca 4B20     		movs	r0, #75
 3917 0ecc FFF7FEFF 		bl	LCD_WR_DATA
 3918              	.LVL738:
 990:Src/bsp_tftlcd.c **** 		LCD_WR_DATA(0x5D);
 3919              		.loc 1 990 0
 3920 0ed0 0020     		movs	r0, #0
 3921 0ed2 FFF7FEFF 		bl	LCD_WR_DATA
 3922              	.LVL739:
 991:Src/bsp_tftlcd.c **** 		LCD_WR_DATA(0x00);
 3923              		.loc 1 991 0
 3924 0ed6 5D20     		movs	r0, #93
 3925 0ed8 FFF7FEFF 		bl	LCD_WR_DATA
 3926              	.LVL740:
 992:Src/bsp_tftlcd.c **** 		LCD_WR_DATA(0x74);
 3927              		.loc 1 992 0
 3928 0edc 0020     		movs	r0, #0
 3929 0ede FFF7FEFF 		bl	LCD_WR_DATA
 3930              	.LVL741:
 993:Src/bsp_tftlcd.c **** 		LCD_WR_DATA(0x00);
 3931              		.loc 1 993 0
 3932 0ee2 7420     		movs	r0, #116
 3933 0ee4 FFF7FEFF 		bl	LCD_WR_DATA
 3934              	.LVL742:
 994:Src/bsp_tftlcd.c **** 		LCD_WR_DATA(0x84);
 3935              		.loc 1 994 0
 3936 0ee8 0020     		movs	r0, #0
 3937 0eea FFF7FEFF 		bl	LCD_WR_DATA
 3938              	.LVL743:
 995:Src/bsp_tftlcd.c **** 		LCD_WR_DATA(0x00);
ARM GAS  /tmp/cco7znPM.s 			page 109


 3939              		.loc 1 995 0
 3940 0eee 8420     		movs	r0, #132
 3941 0ef0 FFF7FEFF 		bl	LCD_WR_DATA
 3942              	.LVL744:
 996:Src/bsp_tftlcd.c **** 		LCD_WR_DATA(0x93);
 3943              		.loc 1 996 0
 3944 0ef4 0020     		movs	r0, #0
 3945 0ef6 FFF7FEFF 		bl	LCD_WR_DATA
 3946              	.LVL745:
 997:Src/bsp_tftlcd.c **** 		LCD_WR_DATA(0x00);
 3947              		.loc 1 997 0
 3948 0efa 9320     		movs	r0, #147
 3949 0efc FFF7FEFF 		bl	LCD_WR_DATA
 3950              	.LVL746:
 998:Src/bsp_tftlcd.c **** 		LCD_WR_DATA(0xA2);
 3951              		.loc 1 998 0
 3952 0f00 0020     		movs	r0, #0
 3953 0f02 FFF7FEFF 		bl	LCD_WR_DATA
 3954              	.LVL747:
 999:Src/bsp_tftlcd.c **** 		LCD_WR_DATA(0x00);
 3955              		.loc 1 999 0
 3956 0f06 A220     		movs	r0, #162
 3957 0f08 FFF7FEFF 		bl	LCD_WR_DATA
 3958              	.LVL748:
1000:Src/bsp_tftlcd.c **** 		LCD_WR_DATA(0xB3);
 3959              		.loc 1 1000 0
 3960 0f0c 0020     		movs	r0, #0
 3961 0f0e FFF7FEFF 		bl	LCD_WR_DATA
 3962              	.LVL749:
1001:Src/bsp_tftlcd.c **** 		LCD_WR_DATA(0x00);
 3963              		.loc 1 1001 0
 3964 0f12 B320     		movs	r0, #179
 3965 0f14 FFF7FEFF 		bl	LCD_WR_DATA
 3966              	.LVL750:
1002:Src/bsp_tftlcd.c **** 		LCD_WR_DATA(0xBE);
 3967              		.loc 1 1002 0
 3968 0f18 0020     		movs	r0, #0
 3969 0f1a FFF7FEFF 		bl	LCD_WR_DATA
 3970              	.LVL751:
1003:Src/bsp_tftlcd.c **** 		LCD_WR_DATA(0x00);
 3971              		.loc 1 1003 0
 3972 0f1e BE20     		movs	r0, #190
 3973 0f20 FFF7FEFF 		bl	LCD_WR_DATA
 3974              	.LVL752:
1004:Src/bsp_tftlcd.c **** 		LCD_WR_DATA(0xC4);
 3975              		.loc 1 1004 0
 3976 0f24 0020     		movs	r0, #0
 3977 0f26 FFF7FEFF 		bl	LCD_WR_DATA
 3978              	.LVL753:
1005:Src/bsp_tftlcd.c **** 		LCD_WR_DATA(0x00);
 3979              		.loc 1 1005 0
 3980 0f2a C420     		movs	r0, #196
 3981 0f2c FFF7FEFF 		bl	LCD_WR_DATA
 3982              	.LVL754:
1006:Src/bsp_tftlcd.c **** 		LCD_WR_DATA(0xCD);
 3983              		.loc 1 1006 0
 3984 0f30 0020     		movs	r0, #0
ARM GAS  /tmp/cco7znPM.s 			page 110


 3985 0f32 FFF7FEFF 		bl	LCD_WR_DATA
 3986              	.LVL755:
1007:Src/bsp_tftlcd.c **** 		LCD_WR_DATA(0x00);
 3987              		.loc 1 1007 0
 3988 0f36 CD20     		movs	r0, #205
 3989 0f38 FFF7FEFF 		bl	LCD_WR_DATA
 3990              	.LVL756:
1008:Src/bsp_tftlcd.c **** 		LCD_WR_DATA(0xD3);
 3991              		.loc 1 1008 0
 3992 0f3c 0020     		movs	r0, #0
 3993 0f3e FFF7FEFF 		bl	LCD_WR_DATA
 3994              	.LVL757:
1009:Src/bsp_tftlcd.c **** 		LCD_WR_DATA(0x00);
 3995              		.loc 1 1009 0
 3996 0f42 D320     		movs	r0, #211
 3997 0f44 FFF7FEFF 		bl	LCD_WR_DATA
 3998              	.LVL758:
1010:Src/bsp_tftlcd.c **** 		LCD_WR_DATA(0xDC);
 3999              		.loc 1 1010 0
 4000 0f48 0020     		movs	r0, #0
 4001 0f4a FFF7FEFF 		bl	LCD_WR_DATA
 4002              	.LVL759:
1011:Src/bsp_tftlcd.c **** 		LCD_WR_DATA(0x00);
 4003              		.loc 1 1011 0
 4004 0f4e DC20     		movs	r0, #220
 4005 0f50 FFF7FEFF 		bl	LCD_WR_DATA
 4006              	.LVL760:
1012:Src/bsp_tftlcd.c **** 		LCD_WR_DATA(0xF3);
 4007              		.loc 1 1012 0
 4008 0f54 0020     		movs	r0, #0
 4009 0f56 FFF7FEFF 		bl	LCD_WR_DATA
 4010              	.LVL761:
1013:Src/bsp_tftlcd.c **** 		LCD_WR_DATA(0x00);
 4011              		.loc 1 1013 0
 4012 0f5a F320     		movs	r0, #243
 4013 0f5c FFF7FEFF 		bl	LCD_WR_DATA
 4014              	.LVL762:
1014:Src/bsp_tftlcd.c **** 
 4015              		.loc 1 1014 0
 4016 0f60 0020     		movs	r0, #0
 4017 0f62 FFF7FEFF 		bl	LCD_WR_DATA
 4018              	.LVL763:
1016:Src/bsp_tftlcd.c **** 		LCD_WR_DATA(0x11);
 4019              		.loc 1 1016 0
 4020 0f66 E620     		movs	r0, #230
 4021 0f68 FFF7FEFF 		bl	LCD_WR_REG
 4022              	.LVL764:
1017:Src/bsp_tftlcd.c **** 		LCD_WR_DATA(0x00);
 4023              		.loc 1 1017 0
 4024 0f6c 1120     		movs	r0, #17
 4025 0f6e FFF7FEFF 		bl	LCD_WR_DATA
 4026              	.LVL765:
1018:Src/bsp_tftlcd.c **** 		LCD_WR_DATA(0x34);
 4027              		.loc 1 1018 0
 4028 0f72 0020     		movs	r0, #0
 4029 0f74 FFF7FEFF 		bl	LCD_WR_DATA
 4030              	.LVL766:
ARM GAS  /tmp/cco7znPM.s 			page 111


1019:Src/bsp_tftlcd.c **** 		LCD_WR_DATA(0x00);
 4031              		.loc 1 1019 0
 4032 0f78 3420     		movs	r0, #52
 4033 0f7a FFF7FEFF 		bl	LCD_WR_DATA
 4034              	.LVL767:
1020:Src/bsp_tftlcd.c **** 		LCD_WR_DATA(0x56);
 4035              		.loc 1 1020 0
 4036 0f7e 0020     		movs	r0, #0
 4037 0f80 FFF7FEFF 		bl	LCD_WR_DATA
 4038              	.LVL768:
1021:Src/bsp_tftlcd.c **** 		LCD_WR_DATA(0x00);
 4039              		.loc 1 1021 0
 4040 0f84 5620     		movs	r0, #86
 4041 0f86 FFF7FEFF 		bl	LCD_WR_DATA
 4042              	.LVL769:
1022:Src/bsp_tftlcd.c **** 		LCD_WR_DATA(0x76);
 4043              		.loc 1 1022 0
 4044 0f8a 0020     		movs	r0, #0
 4045 0f8c FFF7FEFF 		bl	LCD_WR_DATA
 4046              	.LVL770:
1023:Src/bsp_tftlcd.c **** 		LCD_WR_DATA(0x00);
 4047              		.loc 1 1023 0
 4048 0f90 7620     		movs	r0, #118
 4049 0f92 FFF7FEFF 		bl	LCD_WR_DATA
 4050              	.LVL771:
1024:Src/bsp_tftlcd.c **** 		LCD_WR_DATA(0x77);
 4051              		.loc 1 1024 0
 4052 0f96 0020     		movs	r0, #0
 4053 0f98 FFF7FEFF 		bl	LCD_WR_DATA
 4054              	.LVL772:
1025:Src/bsp_tftlcd.c **** 		LCD_WR_DATA(0x00);
 4055              		.loc 1 1025 0
 4056 0f9c 7720     		movs	r0, #119
 4057 0f9e FFF7FEFF 		bl	LCD_WR_DATA
 4058              	.LVL773:
1026:Src/bsp_tftlcd.c **** 		LCD_WR_DATA(0x66);
 4059              		.loc 1 1026 0
 4060 0fa2 0020     		movs	r0, #0
 4061 0fa4 FFF7FEFF 		bl	LCD_WR_DATA
 4062              	.LVL774:
1027:Src/bsp_tftlcd.c **** 		LCD_WR_DATA(0x00);
 4063              		.loc 1 1027 0
 4064 0fa8 6620     		movs	r0, #102
 4065 0faa FFF7FEFF 		bl	LCD_WR_DATA
 4066              	.LVL775:
1028:Src/bsp_tftlcd.c **** 		LCD_WR_DATA(0x88);
 4067              		.loc 1 1028 0
 4068 0fae 0020     		movs	r0, #0
 4069 0fb0 FFF7FEFF 		bl	LCD_WR_DATA
 4070              	.LVL776:
1029:Src/bsp_tftlcd.c **** 		LCD_WR_DATA(0x00);
 4071              		.loc 1 1029 0
 4072 0fb4 8820     		movs	r0, #136
 4073 0fb6 FFF7FEFF 		bl	LCD_WR_DATA
 4074              	.LVL777:
1030:Src/bsp_tftlcd.c **** 		LCD_WR_DATA(0x99);
 4075              		.loc 1 1030 0
ARM GAS  /tmp/cco7znPM.s 			page 112


 4076 0fba 0020     		movs	r0, #0
 4077 0fbc FFF7FEFF 		bl	LCD_WR_DATA
 4078              	.LVL778:
1031:Src/bsp_tftlcd.c **** 		LCD_WR_DATA(0x00);
 4079              		.loc 1 1031 0
 4080 0fc0 9920     		movs	r0, #153
 4081 0fc2 FFF7FEFF 		bl	LCD_WR_DATA
 4082              	.LVL779:
1032:Src/bsp_tftlcd.c **** 		LCD_WR_DATA(0xBB);
 4083              		.loc 1 1032 0
 4084 0fc6 0020     		movs	r0, #0
 4085 0fc8 FFF7FEFF 		bl	LCD_WR_DATA
 4086              	.LVL780:
1033:Src/bsp_tftlcd.c **** 		LCD_WR_DATA(0x00);
 4087              		.loc 1 1033 0
 4088 0fcc BB20     		movs	r0, #187
 4089 0fce FFF7FEFF 		bl	LCD_WR_DATA
 4090              	.LVL781:
1034:Src/bsp_tftlcd.c **** 		LCD_WR_DATA(0x99);
 4091              		.loc 1 1034 0
 4092 0fd2 0020     		movs	r0, #0
 4093 0fd4 FFF7FEFF 		bl	LCD_WR_DATA
 4094              	.LVL782:
1035:Src/bsp_tftlcd.c **** 		LCD_WR_DATA(0x00);
 4095              		.loc 1 1035 0
 4096 0fd8 9920     		movs	r0, #153
 4097 0fda FFF7FEFF 		bl	LCD_WR_DATA
 4098              	.LVL783:
1036:Src/bsp_tftlcd.c **** 		LCD_WR_DATA(0x66);
 4099              		.loc 1 1036 0
 4100 0fde 0020     		movs	r0, #0
 4101 0fe0 FFF7FEFF 		bl	LCD_WR_DATA
 4102              	.LVL784:
1037:Src/bsp_tftlcd.c **** 		LCD_WR_DATA(0x00);
 4103              		.loc 1 1037 0
 4104 0fe4 6620     		movs	r0, #102
 4105 0fe6 FFF7FEFF 		bl	LCD_WR_DATA
 4106              	.LVL785:
1038:Src/bsp_tftlcd.c **** 		LCD_WR_DATA(0x55);
 4107              		.loc 1 1038 0
 4108 0fea 0020     		movs	r0, #0
 4109 0fec FFF7FEFF 		bl	LCD_WR_DATA
 4110              	.LVL786:
1039:Src/bsp_tftlcd.c **** 		LCD_WR_DATA(0x00);
 4111              		.loc 1 1039 0
 4112 0ff0 5520     		movs	r0, #85
 4113 0ff2 FFF7FEFF 		bl	LCD_WR_DATA
 4114              	.LVL787:
1040:Src/bsp_tftlcd.c **** 		LCD_WR_DATA(0x55);
 4115              		.loc 1 1040 0
 4116 0ff6 0020     		movs	r0, #0
 4117 0ff8 FFF7FEFF 		bl	LCD_WR_DATA
 4118              	.LVL788:
1041:Src/bsp_tftlcd.c **** 		LCD_WR_DATA(0x00);
 4119              		.loc 1 1041 0
 4120 0ffc 5520     		movs	r0, #85
 4121 0ffe FFF7FEFF 		bl	LCD_WR_DATA
ARM GAS  /tmp/cco7znPM.s 			page 113


 4122              	.LVL789:
1042:Src/bsp_tftlcd.c **** 		LCD_WR_DATA(0x45);
 4123              		.loc 1 1042 0
 4124 1002 0020     		movs	r0, #0
 4125 1004 FFF7FEFF 		bl	LCD_WR_DATA
 4126              	.LVL790:
1043:Src/bsp_tftlcd.c **** 		LCD_WR_DATA(0x00);
 4127              		.loc 1 1043 0
 4128 1008 4520     		movs	r0, #69
 4129 100a FFF7FEFF 		bl	LCD_WR_DATA
 4130              	.LVL791:
1044:Src/bsp_tftlcd.c **** 		LCD_WR_DATA(0x43);
 4131              		.loc 1 1044 0
 4132 100e 0020     		movs	r0, #0
 4133 1010 FFF7FEFF 		bl	LCD_WR_DATA
 4134              	.LVL792:
1045:Src/bsp_tftlcd.c **** 		LCD_WR_DATA(0x00);
 4135              		.loc 1 1045 0
 4136 1014 4320     		movs	r0, #67
 4137 1016 FFF7FEFF 		bl	LCD_WR_DATA
 4138              	.LVL793:
1046:Src/bsp_tftlcd.c **** 		LCD_WR_DATA(0x44);
 4139              		.loc 1 1046 0
 4140 101a 0020     		movs	r0, #0
 4141 101c FFF7FEFF 		bl	LCD_WR_DATA
 4142              	.LVL794:
1047:Src/bsp_tftlcd.c **** 		LCD_WR_DATA(0x00);
 4143              		.loc 1 1047 0
 4144 1020 4420     		movs	r0, #68
 4145 1022 FFF7FEFF 		bl	LCD_WR_DATA
 4146              	.LVL795:
1048:Src/bsp_tftlcd.c **** 
 4147              		.loc 1 1048 0
 4148 1026 0020     		movs	r0, #0
 4149 1028 FFF7FEFF 		bl	LCD_WR_DATA
 4150              	.LVL796:
1050:Src/bsp_tftlcd.c **** 		LCD_WR_DATA(0x32);
 4151              		.loc 1 1050 0
 4152 102c E720     		movs	r0, #231
 4153 102e FFF7FEFF 		bl	LCD_WR_REG
 4154              	.LVL797:
1051:Src/bsp_tftlcd.c **** 		LCD_WR_DATA(0x00);
 4155              		.loc 1 1051 0
 4156 1032 3220     		movs	r0, #50
 4157 1034 FFF7FEFF 		bl	LCD_WR_DATA
 4158              	.LVL798:
1052:Src/bsp_tftlcd.c **** 		LCD_WR_DATA(0x55);
 4159              		.loc 1 1052 0
 4160 1038 0020     		movs	r0, #0
 4161 103a FFF7FEFF 		bl	LCD_WR_DATA
 4162              	.LVL799:
1053:Src/bsp_tftlcd.c **** 		LCD_WR_DATA(0x00);
 4163              		.loc 1 1053 0
 4164 103e 5520     		movs	r0, #85
 4165 1040 FFF7FEFF 		bl	LCD_WR_DATA
 4166              	.LVL800:
1054:Src/bsp_tftlcd.c **** 		LCD_WR_DATA(0x76);
ARM GAS  /tmp/cco7znPM.s 			page 114


 4167              		.loc 1 1054 0
 4168 1044 0020     		movs	r0, #0
 4169 1046 FFF7FEFF 		bl	LCD_WR_DATA
 4170              	.LVL801:
1055:Src/bsp_tftlcd.c **** 		LCD_WR_DATA(0x00);
 4171              		.loc 1 1055 0
 4172 104a 7620     		movs	r0, #118
 4173 104c FFF7FEFF 		bl	LCD_WR_DATA
 4174              	.LVL802:
1056:Src/bsp_tftlcd.c **** 		LCD_WR_DATA(0x66);
 4175              		.loc 1 1056 0
 4176 1050 0020     		movs	r0, #0
 4177 1052 FFF7FEFF 		bl	LCD_WR_DATA
 4178              	.LVL803:
1057:Src/bsp_tftlcd.c **** 		LCD_WR_DATA(0x00);
 4179              		.loc 1 1057 0
 4180 1056 6620     		movs	r0, #102
 4181 1058 FFF7FEFF 		bl	LCD_WR_DATA
 4182              	.LVL804:
1058:Src/bsp_tftlcd.c **** 		LCD_WR_DATA(0x67);
 4183              		.loc 1 1058 0
 4184 105c 0020     		movs	r0, #0
 4185 105e FFF7FEFF 		bl	LCD_WR_DATA
 4186              	.LVL805:
1059:Src/bsp_tftlcd.c **** 		LCD_WR_DATA(0x00);
 4187              		.loc 1 1059 0
 4188 1062 6720     		movs	r0, #103
 4189 1064 FFF7FEFF 		bl	LCD_WR_DATA
 4190              	.LVL806:
1060:Src/bsp_tftlcd.c **** 		LCD_WR_DATA(0x67);
 4191              		.loc 1 1060 0
 4192 1068 0020     		movs	r0, #0
 4193 106a FFF7FEFF 		bl	LCD_WR_DATA
 4194              	.LVL807:
1061:Src/bsp_tftlcd.c **** 		LCD_WR_DATA(0x00);
 4195              		.loc 1 1061 0
 4196 106e 6720     		movs	r0, #103
 4197 1070 FFF7FEFF 		bl	LCD_WR_DATA
 4198              	.LVL808:
1062:Src/bsp_tftlcd.c **** 		LCD_WR_DATA(0x87);
 4199              		.loc 1 1062 0
 4200 1074 0020     		movs	r0, #0
 4201 1076 FFF7FEFF 		bl	LCD_WR_DATA
 4202              	.LVL809:
1063:Src/bsp_tftlcd.c **** 		LCD_WR_DATA(0x00);
 4203              		.loc 1 1063 0
 4204 107a 8720     		movs	r0, #135
 4205 107c FFF7FEFF 		bl	LCD_WR_DATA
 4206              	.LVL810:
1064:Src/bsp_tftlcd.c **** 		LCD_WR_DATA(0x99);
 4207              		.loc 1 1064 0
 4208 1080 0020     		movs	r0, #0
 4209 1082 FFF7FEFF 		bl	LCD_WR_DATA
 4210              	.LVL811:
1065:Src/bsp_tftlcd.c **** 		LCD_WR_DATA(0x00);
 4211              		.loc 1 1065 0
 4212 1086 9920     		movs	r0, #153
ARM GAS  /tmp/cco7znPM.s 			page 115


 4213 1088 FFF7FEFF 		bl	LCD_WR_DATA
 4214              	.LVL812:
1066:Src/bsp_tftlcd.c **** 		LCD_WR_DATA(0xBB);
 4215              		.loc 1 1066 0
 4216 108c 0020     		movs	r0, #0
 4217 108e FFF7FEFF 		bl	LCD_WR_DATA
 4218              	.LVL813:
1067:Src/bsp_tftlcd.c **** 		LCD_WR_DATA(0x00);
 4219              		.loc 1 1067 0
 4220 1092 BB20     		movs	r0, #187
 4221 1094 FFF7FEFF 		bl	LCD_WR_DATA
 4222              	.LVL814:
1068:Src/bsp_tftlcd.c **** 		LCD_WR_DATA(0x99);
 4223              		.loc 1 1068 0
 4224 1098 0020     		movs	r0, #0
 4225 109a FFF7FEFF 		bl	LCD_WR_DATA
 4226              	.LVL815:
1069:Src/bsp_tftlcd.c **** 		LCD_WR_DATA(0x00);
 4227              		.loc 1 1069 0
 4228 109e 9920     		movs	r0, #153
 4229 10a0 FFF7FEFF 		bl	LCD_WR_DATA
 4230              	.LVL816:
1070:Src/bsp_tftlcd.c **** 		LCD_WR_DATA(0x77);
 4231              		.loc 1 1070 0
 4232 10a4 0020     		movs	r0, #0
 4233 10a6 FFF7FEFF 		bl	LCD_WR_DATA
 4234              	.LVL817:
1071:Src/bsp_tftlcd.c **** 		LCD_WR_DATA(0x00);
 4235              		.loc 1 1071 0
 4236 10aa 7720     		movs	r0, #119
 4237 10ac FFF7FEFF 		bl	LCD_WR_DATA
 4238              	.LVL818:
1072:Src/bsp_tftlcd.c **** 		LCD_WR_DATA(0x44);
 4239              		.loc 1 1072 0
 4240 10b0 0020     		movs	r0, #0
 4241 10b2 FFF7FEFF 		bl	LCD_WR_DATA
 4242              	.LVL819:
1073:Src/bsp_tftlcd.c **** 		LCD_WR_DATA(0x00);
 4243              		.loc 1 1073 0
 4244 10b6 4420     		movs	r0, #68
 4245 10b8 FFF7FEFF 		bl	LCD_WR_DATA
 4246              	.LVL820:
1074:Src/bsp_tftlcd.c **** 		LCD_WR_DATA(0x56);
 4247              		.loc 1 1074 0
 4248 10bc 0020     		movs	r0, #0
 4249 10be FFF7FEFF 		bl	LCD_WR_DATA
 4250              	.LVL821:
1075:Src/bsp_tftlcd.c **** 		LCD_WR_DATA(0x00);
 4251              		.loc 1 1075 0
 4252 10c2 5620     		movs	r0, #86
 4253 10c4 FFF7FEFF 		bl	LCD_WR_DATA
 4254              	.LVL822:
1076:Src/bsp_tftlcd.c **** 		LCD_WR_DATA(0x23); 
 4255              		.loc 1 1076 0
 4256 10c8 0020     		movs	r0, #0
 4257 10ca FFF7FEFF 		bl	LCD_WR_DATA
 4258              	.LVL823:
ARM GAS  /tmp/cco7znPM.s 			page 116


1077:Src/bsp_tftlcd.c **** 		LCD_WR_DATA(0x00);
 4259              		.loc 1 1077 0
 4260 10ce 2320     		movs	r0, #35
 4261 10d0 FFF7FEFF 		bl	LCD_WR_DATA
 4262              	.LVL824:
1078:Src/bsp_tftlcd.c **** 		LCD_WR_DATA(0x33);
 4263              		.loc 1 1078 0
 4264 10d4 0020     		movs	r0, #0
 4265 10d6 FFF7FEFF 		bl	LCD_WR_DATA
 4266              	.LVL825:
1079:Src/bsp_tftlcd.c **** 		LCD_WR_DATA(0x00);
 4267              		.loc 1 1079 0
 4268 10da 3320     		movs	r0, #51
 4269 10dc FFF7FEFF 		bl	LCD_WR_DATA
 4270              	.LVL826:
1080:Src/bsp_tftlcd.c **** 		LCD_WR_DATA(0x45);
 4271              		.loc 1 1080 0
 4272 10e0 0020     		movs	r0, #0
 4273 10e2 FFF7FEFF 		bl	LCD_WR_DATA
 4274              	.LVL827:
1081:Src/bsp_tftlcd.c **** 		LCD_WR_DATA(0x00);
 4275              		.loc 1 1081 0
 4276 10e6 4520     		movs	r0, #69
 4277 10e8 FFF7FEFF 		bl	LCD_WR_DATA
 4278              	.LVL828:
1082:Src/bsp_tftlcd.c **** 
 4279              		.loc 1 1082 0
 4280 10ec 0020     		movs	r0, #0
 4281 10ee FFF7FEFF 		bl	LCD_WR_DATA
 4282              	.LVL829:
1084:Src/bsp_tftlcd.c **** 		LCD_WR_DATA(0x00);
 4283              		.loc 1 1084 0
 4284 10f2 E820     		movs	r0, #232
 4285 10f4 FFF7FEFF 		bl	LCD_WR_REG
 4286              	.LVL830:
1085:Src/bsp_tftlcd.c **** 		LCD_WR_DATA(0x00);
 4287              		.loc 1 1085 0
 4288 10f8 0020     		movs	r0, #0
 4289 10fa FFF7FEFF 		bl	LCD_WR_DATA
 4290              	.LVL831:
1086:Src/bsp_tftlcd.c **** 		LCD_WR_DATA(0x99);
 4291              		.loc 1 1086 0
 4292 10fe 0020     		movs	r0, #0
 4293 1100 FFF7FEFF 		bl	LCD_WR_DATA
 4294              	.LVL832:
1087:Src/bsp_tftlcd.c **** 		LCD_WR_DATA(0x00);
 4295              		.loc 1 1087 0
 4296 1104 9920     		movs	r0, #153
 4297 1106 FFF7FEFF 		bl	LCD_WR_DATA
 4298              	.LVL833:
1088:Src/bsp_tftlcd.c **** 		LCD_WR_DATA(0x87);
 4299              		.loc 1 1088 0
 4300 110a 0020     		movs	r0, #0
 4301 110c FFF7FEFF 		bl	LCD_WR_DATA
 4302              	.LVL834:
1089:Src/bsp_tftlcd.c **** 		LCD_WR_DATA(0x00);
 4303              		.loc 1 1089 0
ARM GAS  /tmp/cco7znPM.s 			page 117


 4304 1110 8720     		movs	r0, #135
 4305 1112 FFF7FEFF 		bl	LCD_WR_DATA
 4306              	.LVL835:
1090:Src/bsp_tftlcd.c **** 		LCD_WR_DATA(0x88);
 4307              		.loc 1 1090 0
 4308 1116 0020     		movs	r0, #0
 4309 1118 FFF7FEFF 		bl	LCD_WR_DATA
 4310              	.LVL836:
1091:Src/bsp_tftlcd.c **** 		LCD_WR_DATA(0x00);
 4311              		.loc 1 1091 0
 4312 111c 8820     		movs	r0, #136
 4313 111e FFF7FEFF 		bl	LCD_WR_DATA
 4314              	.LVL837:
1092:Src/bsp_tftlcd.c **** 		LCD_WR_DATA(0x77);
 4315              		.loc 1 1092 0
 4316 1122 0020     		movs	r0, #0
 4317 1124 FFF7FEFF 		bl	LCD_WR_DATA
 4318              	.LVL838:
1093:Src/bsp_tftlcd.c **** 		LCD_WR_DATA(0x00);
 4319              		.loc 1 1093 0
 4320 1128 7720     		movs	r0, #119
 4321 112a FFF7FEFF 		bl	LCD_WR_DATA
 4322              	.LVL839:
1094:Src/bsp_tftlcd.c **** 		LCD_WR_DATA(0x66);
 4323              		.loc 1 1094 0
 4324 112e 0020     		movs	r0, #0
 4325 1130 FFF7FEFF 		bl	LCD_WR_DATA
 4326              	.LVL840:
1095:Src/bsp_tftlcd.c **** 		LCD_WR_DATA(0x00);
 4327              		.loc 1 1095 0
 4328 1134 6620     		movs	r0, #102
 4329 1136 FFF7FEFF 		bl	LCD_WR_DATA
 4330              	.LVL841:
1096:Src/bsp_tftlcd.c **** 		LCD_WR_DATA(0x88);
 4331              		.loc 1 1096 0
 4332 113a 0020     		movs	r0, #0
 4333 113c FFF7FEFF 		bl	LCD_WR_DATA
 4334              	.LVL842:
1097:Src/bsp_tftlcd.c **** 		LCD_WR_DATA(0x00);
 4335              		.loc 1 1097 0
 4336 1140 8820     		movs	r0, #136
 4337 1142 FFF7FEFF 		bl	LCD_WR_DATA
 4338              	.LVL843:
1098:Src/bsp_tftlcd.c **** 		LCD_WR_DATA(0xAA);
 4339              		.loc 1 1098 0
 4340 1146 0020     		movs	r0, #0
 4341 1148 FFF7FEFF 		bl	LCD_WR_DATA
 4342              	.LVL844:
1099:Src/bsp_tftlcd.c **** 		LCD_WR_DATA(0x00);
 4343              		.loc 1 1099 0
 4344 114c AA20     		movs	r0, #170
 4345 114e FFF7FEFF 		bl	LCD_WR_DATA
 4346              	.LVL845:
1100:Src/bsp_tftlcd.c **** 		LCD_WR_DATA(0xBB);
 4347              		.loc 1 1100 0
 4348 1152 0020     		movs	r0, #0
 4349 1154 FFF7FEFF 		bl	LCD_WR_DATA
ARM GAS  /tmp/cco7znPM.s 			page 118


 4350              	.LVL846:
1101:Src/bsp_tftlcd.c **** 		LCD_WR_DATA(0x00);
 4351              		.loc 1 1101 0
 4352 1158 BB20     		movs	r0, #187
 4353 115a FFF7FEFF 		bl	LCD_WR_DATA
 4354              	.LVL847:
1102:Src/bsp_tftlcd.c **** 		LCD_WR_DATA(0x99);
 4355              		.loc 1 1102 0
 4356 115e 0020     		movs	r0, #0
 4357 1160 FFF7FEFF 		bl	LCD_WR_DATA
 4358              	.LVL848:
1103:Src/bsp_tftlcd.c **** 		LCD_WR_DATA(0x00);
 4359              		.loc 1 1103 0
 4360 1164 9920     		movs	r0, #153
 4361 1166 FFF7FEFF 		bl	LCD_WR_DATA
 4362              	.LVL849:
1104:Src/bsp_tftlcd.c **** 		LCD_WR_DATA(0x66);
 4363              		.loc 1 1104 0
 4364 116a 0020     		movs	r0, #0
 4365 116c FFF7FEFF 		bl	LCD_WR_DATA
 4366              	.LVL850:
1105:Src/bsp_tftlcd.c **** 		LCD_WR_DATA(0x00);
 4367              		.loc 1 1105 0
 4368 1170 6620     		movs	r0, #102
 4369 1172 FFF7FEFF 		bl	LCD_WR_DATA
 4370              	.LVL851:
1106:Src/bsp_tftlcd.c **** 		LCD_WR_DATA(0x55);
 4371              		.loc 1 1106 0
 4372 1176 0020     		movs	r0, #0
 4373 1178 FFF7FEFF 		bl	LCD_WR_DATA
 4374              	.LVL852:
1107:Src/bsp_tftlcd.c **** 		LCD_WR_DATA(0x00);
 4375              		.loc 1 1107 0
 4376 117c 5520     		movs	r0, #85
 4377 117e FFF7FEFF 		bl	LCD_WR_DATA
 4378              	.LVL853:
1108:Src/bsp_tftlcd.c **** 		LCD_WR_DATA(0x55);
 4379              		.loc 1 1108 0
 4380 1182 0020     		movs	r0, #0
 4381 1184 FFF7FEFF 		bl	LCD_WR_DATA
 4382              	.LVL854:
1109:Src/bsp_tftlcd.c **** 		LCD_WR_DATA(0x00);
 4383              		.loc 1 1109 0
 4384 1188 5520     		movs	r0, #85
 4385 118a FFF7FEFF 		bl	LCD_WR_DATA
 4386              	.LVL855:
1110:Src/bsp_tftlcd.c **** 		LCD_WR_DATA(0x44);
 4387              		.loc 1 1110 0
 4388 118e 0020     		movs	r0, #0
 4389 1190 FFF7FEFF 		bl	LCD_WR_DATA
 4390              	.LVL856:
1111:Src/bsp_tftlcd.c **** 		LCD_WR_DATA(0x00);
 4391              		.loc 1 1111 0
 4392 1194 4420     		movs	r0, #68
 4393 1196 FFF7FEFF 		bl	LCD_WR_DATA
 4394              	.LVL857:
1112:Src/bsp_tftlcd.c **** 		LCD_WR_DATA(0x44);
ARM GAS  /tmp/cco7znPM.s 			page 119


 4395              		.loc 1 1112 0
 4396 119a 0020     		movs	r0, #0
 4397 119c FFF7FEFF 		bl	LCD_WR_DATA
 4398              	.LVL858:
1113:Src/bsp_tftlcd.c **** 		LCD_WR_DATA(0x00);
 4399              		.loc 1 1113 0
 4400 11a0 4420     		movs	r0, #68
 4401 11a2 FFF7FEFF 		bl	LCD_WR_DATA
 4402              	.LVL859:
1114:Src/bsp_tftlcd.c **** 		LCD_WR_DATA(0x55);
 4403              		.loc 1 1114 0
 4404 11a6 0020     		movs	r0, #0
 4405 11a8 FFF7FEFF 		bl	LCD_WR_DATA
 4406              	.LVL860:
1115:Src/bsp_tftlcd.c **** 		LCD_WR_DATA(0x00);
 4407              		.loc 1 1115 0
 4408 11ac 5520     		movs	r0, #85
 4409 11ae FFF7FEFF 		bl	LCD_WR_DATA
 4410              	.LVL861:
1116:Src/bsp_tftlcd.c **** 
 4411              		.loc 1 1116 0
 4412 11b2 0020     		movs	r0, #0
 4413 11b4 FFF7FEFF 		bl	LCD_WR_DATA
 4414              	.LVL862:
1118:Src/bsp_tftlcd.c **** 		LCD_WR_DATA(0xAA);
 4415              		.loc 1 1118 0
 4416 11b8 E920     		movs	r0, #233
 4417 11ba FFF7FEFF 		bl	LCD_WR_REG
 4418              	.LVL863:
1119:Src/bsp_tftlcd.c **** 		LCD_WR_DATA(0x00);
 4419              		.loc 1 1119 0
 4420 11be AA20     		movs	r0, #170
 4421 11c0 FFF7FEFF 		bl	LCD_WR_DATA
 4422              	.LVL864:
1120:Src/bsp_tftlcd.c **** 		LCD_WR_DATA(0x00);
 4423              		.loc 1 1120 0
 4424 11c4 0020     		movs	r0, #0
 4425 11c6 FFF7FEFF 		bl	LCD_WR_DATA
 4426              	.LVL865:
1121:Src/bsp_tftlcd.c **** 		LCD_WR_DATA(0x00);
 4427              		.loc 1 1121 0
 4428 11ca 0020     		movs	r0, #0
 4429 11cc FFF7FEFF 		bl	LCD_WR_DATA
 4430              	.LVL866:
1122:Src/bsp_tftlcd.c **** 
 4431              		.loc 1 1122 0
 4432 11d0 0020     		movs	r0, #0
 4433 11d2 FFF7FEFF 		bl	LCD_WR_DATA
 4434              	.LVL867:
1124:Src/bsp_tftlcd.c **** 		LCD_WR_DATA(0xAA);
 4435              		.loc 1 1124 0
 4436 11d6 0020     		movs	r0, #0
 4437 11d8 FFF7FEFF 		bl	LCD_WR_REG
 4438              	.LVL868:
1125:Src/bsp_tftlcd.c **** 
 4439              		.loc 1 1125 0
 4440 11dc AA20     		movs	r0, #170
ARM GAS  /tmp/cco7znPM.s 			page 120


 4441 11de FFF7FEFF 		bl	LCD_WR_DATA
 4442              	.LVL869:
1127:Src/bsp_tftlcd.c **** 		LCD_WR_DATA(0x00);
 4443              		.loc 1 1127 0
 4444 11e2 CF20     		movs	r0, #207
 4445 11e4 FFF7FEFF 		bl	LCD_WR_REG
 4446              	.LVL870:
1128:Src/bsp_tftlcd.c **** 		LCD_WR_DATA(0x00);
 4447              		.loc 1 1128 0
 4448 11e8 0020     		movs	r0, #0
 4449 11ea FFF7FEFF 		bl	LCD_WR_DATA
 4450              	.LVL871:
1129:Src/bsp_tftlcd.c **** 		LCD_WR_DATA(0x00);
 4451              		.loc 1 1129 0
 4452 11ee 0020     		movs	r0, #0
 4453 11f0 FFF7FEFF 		bl	LCD_WR_DATA
 4454              	.LVL872:
1130:Src/bsp_tftlcd.c **** 		LCD_WR_DATA(0x00);
 4455              		.loc 1 1130 0
 4456 11f4 0020     		movs	r0, #0
 4457 11f6 FFF7FEFF 		bl	LCD_WR_DATA
 4458              	.LVL873:
1131:Src/bsp_tftlcd.c **** 		LCD_WR_DATA(0x00);
 4459              		.loc 1 1131 0
 4460 11fa 0020     		movs	r0, #0
 4461 11fc FFF7FEFF 		bl	LCD_WR_DATA
 4462              	.LVL874:
1132:Src/bsp_tftlcd.c **** 		LCD_WR_DATA(0x00);
 4463              		.loc 1 1132 0
 4464 1200 0020     		movs	r0, #0
 4465 1202 FFF7FEFF 		bl	LCD_WR_DATA
 4466              	.LVL875:
1133:Src/bsp_tftlcd.c **** 		LCD_WR_DATA(0x00);
 4467              		.loc 1 1133 0
 4468 1206 0020     		movs	r0, #0
 4469 1208 FFF7FEFF 		bl	LCD_WR_DATA
 4470              	.LVL876:
1134:Src/bsp_tftlcd.c **** 		LCD_WR_DATA(0x00);
 4471              		.loc 1 1134 0
 4472 120c 0020     		movs	r0, #0
 4473 120e FFF7FEFF 		bl	LCD_WR_DATA
 4474              	.LVL877:
1135:Src/bsp_tftlcd.c **** 		LCD_WR_DATA(0x00);
 4475              		.loc 1 1135 0
 4476 1212 0020     		movs	r0, #0
 4477 1214 FFF7FEFF 		bl	LCD_WR_DATA
 4478              	.LVL878:
1136:Src/bsp_tftlcd.c **** 		LCD_WR_DATA(0x00);
 4479              		.loc 1 1136 0
 4480 1218 0020     		movs	r0, #0
 4481 121a FFF7FEFF 		bl	LCD_WR_DATA
 4482              	.LVL879:
1137:Src/bsp_tftlcd.c **** 		LCD_WR_DATA(0x00);
 4483              		.loc 1 1137 0
 4484 121e 0020     		movs	r0, #0
 4485 1220 FFF7FEFF 		bl	LCD_WR_DATA
 4486              	.LVL880:
ARM GAS  /tmp/cco7znPM.s 			page 121


1138:Src/bsp_tftlcd.c **** 		LCD_WR_DATA(0x00);
 4487              		.loc 1 1138 0
 4488 1224 0020     		movs	r0, #0
 4489 1226 FFF7FEFF 		bl	LCD_WR_DATA
 4490              	.LVL881:
1139:Src/bsp_tftlcd.c **** 		LCD_WR_DATA(0x00);
 4491              		.loc 1 1139 0
 4492 122a 0020     		movs	r0, #0
 4493 122c FFF7FEFF 		bl	LCD_WR_DATA
 4494              	.LVL882:
1140:Src/bsp_tftlcd.c **** 		LCD_WR_DATA(0x00);
 4495              		.loc 1 1140 0
 4496 1230 0020     		movs	r0, #0
 4497 1232 FFF7FEFF 		bl	LCD_WR_DATA
 4498              	.LVL883:
1141:Src/bsp_tftlcd.c **** 		LCD_WR_DATA(0x00);
 4499              		.loc 1 1141 0
 4500 1236 0020     		movs	r0, #0
 4501 1238 FFF7FEFF 		bl	LCD_WR_DATA
 4502              	.LVL884:
1142:Src/bsp_tftlcd.c **** 		LCD_WR_DATA(0x00);
 4503              		.loc 1 1142 0
 4504 123c 0020     		movs	r0, #0
 4505 123e FFF7FEFF 		bl	LCD_WR_DATA
 4506              	.LVL885:
1143:Src/bsp_tftlcd.c **** 		LCD_WR_DATA(0x00);
 4507              		.loc 1 1143 0
 4508 1242 0020     		movs	r0, #0
 4509 1244 FFF7FEFF 		bl	LCD_WR_DATA
 4510              	.LVL886:
1144:Src/bsp_tftlcd.c **** 
 4511              		.loc 1 1144 0
 4512 1248 0020     		movs	r0, #0
 4513 124a FFF7FEFF 		bl	LCD_WR_DATA
 4514              	.LVL887:
1146:Src/bsp_tftlcd.c **** 		LCD_WR_DATA(0x00);
 4515              		.loc 1 1146 0
 4516 124e F020     		movs	r0, #240
 4517 1250 FFF7FEFF 		bl	LCD_WR_REG
 4518              	.LVL888:
1147:Src/bsp_tftlcd.c **** 		LCD_WR_DATA(0x50);
 4519              		.loc 1 1147 0
 4520 1254 0020     		movs	r0, #0
 4521 1256 FFF7FEFF 		bl	LCD_WR_DATA
 4522              	.LVL889:
1148:Src/bsp_tftlcd.c **** 		LCD_WR_DATA(0x00);
 4523              		.loc 1 1148 0
 4524 125a 5020     		movs	r0, #80
 4525 125c FFF7FEFF 		bl	LCD_WR_DATA
 4526              	.LVL890:
1149:Src/bsp_tftlcd.c **** 		LCD_WR_DATA(0x00);
 4527              		.loc 1 1149 0
 4528 1260 0020     		movs	r0, #0
 4529 1262 FFF7FEFF 		bl	LCD_WR_DATA
 4530              	.LVL891:
1150:Src/bsp_tftlcd.c **** 		LCD_WR_DATA(0x00);
 4531              		.loc 1 1150 0
ARM GAS  /tmp/cco7znPM.s 			page 122


 4532 1266 0020     		movs	r0, #0
 4533 1268 FFF7FEFF 		bl	LCD_WR_DATA
 4534              	.LVL892:
1151:Src/bsp_tftlcd.c **** 
 4535              		.loc 1 1151 0
 4536 126c 0020     		movs	r0, #0
 4537 126e FFF7FEFF 		bl	LCD_WR_DATA
 4538              	.LVL893:
1153:Src/bsp_tftlcd.c **** 		LCD_WR_DATA(0x00);
 4539              		.loc 1 1153 0
 4540 1272 F320     		movs	r0, #243
 4541 1274 FFF7FEFF 		bl	LCD_WR_REG
 4542              	.LVL894:
1154:Src/bsp_tftlcd.c **** 
 4543              		.loc 1 1154 0
 4544 1278 0020     		movs	r0, #0
 4545 127a FFF7FEFF 		bl	LCD_WR_DATA
 4546              	.LVL895:
1156:Src/bsp_tftlcd.c **** 		LCD_WR_DATA(0x06);
 4547              		.loc 1 1156 0
 4548 127e F920     		movs	r0, #249
 4549 1280 FFF7FEFF 		bl	LCD_WR_REG
 4550              	.LVL896:
1157:Src/bsp_tftlcd.c **** 		LCD_WR_DATA(0x10);
 4551              		.loc 1 1157 0
 4552 1284 0620     		movs	r0, #6
 4553 1286 FFF7FEFF 		bl	LCD_WR_DATA
 4554              	.LVL897:
1158:Src/bsp_tftlcd.c **** 		LCD_WR_DATA(0x29);
 4555              		.loc 1 1158 0
 4556 128a 1020     		movs	r0, #16
 4557 128c FFF7FEFF 		bl	LCD_WR_DATA
 4558              	.LVL898:
1159:Src/bsp_tftlcd.c **** 		LCD_WR_DATA(0x00);
 4559              		.loc 1 1159 0
 4560 1290 2920     		movs	r0, #41
 4561 1292 FFF7FEFF 		bl	LCD_WR_DATA
 4562              	.LVL899:
1160:Src/bsp_tftlcd.c **** 
 4563              		.loc 1 1160 0
 4564 1296 0020     		movs	r0, #0
 4565 1298 FFF7FEFF 		bl	LCD_WR_DATA
 4566              	.LVL900:
1162:Src/bsp_tftlcd.c **** 		LCD_WR_DATA(0x55);	//66
 4567              		.loc 1 1162 0
 4568 129c 3A20     		movs	r0, #58
 4569 129e FFF7FEFF 		bl	LCD_WR_REG
 4570              	.LVL901:
1163:Src/bsp_tftlcd.c **** 
 4571              		.loc 1 1163 0
 4572 12a2 5520     		movs	r0, #85
 4573 12a4 FFF7FEFF 		bl	LCD_WR_DATA
 4574              	.LVL902:
1165:Src/bsp_tftlcd.c **** 		HAL_Delay(100);
 4575              		.loc 1 1165 0
 4576 12a8 1120     		movs	r0, #17
 4577 12aa FFF7FEFF 		bl	LCD_WR_REG
ARM GAS  /tmp/cco7znPM.s 			page 123


 4578              	.LVL903:
1166:Src/bsp_tftlcd.c **** 		LCD_WR_REG(0x29);
 4579              		.loc 1 1166 0
 4580 12ae 6420     		movs	r0, #100
 4581 12b0 FFF7FEFF 		bl	HAL_Delay
 4582              	.LVL904:
1167:Src/bsp_tftlcd.c **** 		LCD_WR_REG(0x35);
 4583              		.loc 1 1167 0
 4584 12b4 2920     		movs	r0, #41
 4585 12b6 FFF7FEFF 		bl	LCD_WR_REG
 4586              	.LVL905:
1168:Src/bsp_tftlcd.c **** 		LCD_WR_DATA(0x00);
 4587              		.loc 1 1168 0
 4588 12ba 3520     		movs	r0, #53
 4589 12bc FFF7FEFF 		bl	LCD_WR_REG
 4590              	.LVL906:
1169:Src/bsp_tftlcd.c **** 
 4591              		.loc 1 1169 0
 4592 12c0 0020     		movs	r0, #0
 4593 12c2 FFF7FEFF 		bl	LCD_WR_DATA
 4594              	.LVL907:
1171:Src/bsp_tftlcd.c **** 		LCD_WR_DATA(0xFF);
 4595              		.loc 1 1171 0
 4596 12c6 5120     		movs	r0, #81
 4597 12c8 FFF7FEFF 		bl	LCD_WR_REG
 4598              	.LVL908:
1172:Src/bsp_tftlcd.c **** 		LCD_WR_REG(0x53);
 4599              		.loc 1 1172 0
 4600 12cc FF20     		movs	r0, #255
 4601 12ce FFF7FEFF 		bl	LCD_WR_DATA
 4602              	.LVL909:
1173:Src/bsp_tftlcd.c **** 		LCD_WR_DATA(0x2C);
 4603              		.loc 1 1173 0
 4604 12d2 5320     		movs	r0, #83
 4605 12d4 FFF7FEFF 		bl	LCD_WR_REG
 4606              	.LVL910:
1174:Src/bsp_tftlcd.c **** 		LCD_WR_REG(0x55);
 4607              		.loc 1 1174 0
 4608 12d8 2C20     		movs	r0, #44
 4609 12da FFF7FEFF 		bl	LCD_WR_DATA
 4610              	.LVL911:
1175:Src/bsp_tftlcd.c **** 		LCD_WR_DATA(0x82);
 4611              		.loc 1 1175 0
 4612 12de 5520     		movs	r0, #85
 4613 12e0 FFF7FEFF 		bl	LCD_WR_REG
 4614              	.LVL912:
1176:Src/bsp_tftlcd.c **** 		LCD_WR_REG(0x2c);
 4615              		.loc 1 1176 0
 4616 12e4 8220     		movs	r0, #130
 4617 12e6 FFF7FEFF 		bl	LCD_WR_DATA
 4618              	.LVL913:
1177:Src/bsp_tftlcd.c **** 	}else if(lcddev.id==0x5510)
 4619              		.loc 1 1177 0
 4620 12ea 2C20     		movs	r0, #44
 4621 12ec FFF7FEFF 		bl	LCD_WR_REG
 4622              	.LVL914:
 4623 12f0 FEF72FBF 		b	.L111
ARM GAS  /tmp/cco7znPM.s 			page 124


 4624              	.L120:
1180:Src/bsp_tftlcd.c **** 		LCD_WriteReg(0xF001,0xAA);
 4625              		.loc 1 1180 0
 4626 12f4 5521     		movs	r1, #85
 4627 12f6 4FF47040 		mov	r0, #61440
 4628 12fa FFF7FEFF 		bl	LCD_WriteReg
 4629              	.LVL915:
1181:Src/bsp_tftlcd.c **** 		LCD_WriteReg(0xF002,0x52);
 4630              		.loc 1 1181 0
 4631 12fe AA21     		movs	r1, #170
 4632 1300 4FF20100 		movw	r0, #61441
 4633 1304 FFF7FEFF 		bl	LCD_WriteReg
 4634              	.LVL916:
1182:Src/bsp_tftlcd.c **** 		LCD_WriteReg(0xF003,0x08);
 4635              		.loc 1 1182 0
 4636 1308 5221     		movs	r1, #82
 4637 130a 4FF20200 		movw	r0, #61442
 4638 130e FFF7FEFF 		bl	LCD_WriteReg
 4639              	.LVL917:
1183:Src/bsp_tftlcd.c **** 		LCD_WriteReg(0xF004,0x01);
 4640              		.loc 1 1183 0
 4641 1312 0821     		movs	r1, #8
 4642 1314 4FF20300 		movw	r0, #61443
 4643 1318 FFF7FEFF 		bl	LCD_WriteReg
 4644              	.LVL918:
1184:Src/bsp_tftlcd.c **** 		//AVDD Set AVDD 5.2V
 4645              		.loc 1 1184 0
 4646 131c 0121     		movs	r1, #1
 4647 131e 4FF20400 		movw	r0, #61444
 4648 1322 FFF7FEFF 		bl	LCD_WriteReg
 4649              	.LVL919:
1186:Src/bsp_tftlcd.c **** 		LCD_WriteReg(0xB001,0x0D);
 4650              		.loc 1 1186 0
 4651 1326 0D21     		movs	r1, #13
 4652 1328 4FF43040 		mov	r0, #45056
 4653 132c FFF7FEFF 		bl	LCD_WriteReg
 4654              	.LVL920:
1187:Src/bsp_tftlcd.c **** 		LCD_WriteReg(0xB002,0x0D);
 4655              		.loc 1 1187 0
 4656 1330 0D21     		movs	r1, #13
 4657 1332 4BF20100 		movw	r0, #45057
 4658 1336 FFF7FEFF 		bl	LCD_WriteReg
 4659              	.LVL921:
1188:Src/bsp_tftlcd.c **** 		//AVDD ratio
 4660              		.loc 1 1188 0
 4661 133a 0D21     		movs	r1, #13
 4662 133c 4BF20200 		movw	r0, #45058
 4663 1340 FFF7FEFF 		bl	LCD_WriteReg
 4664              	.LVL922:
1190:Src/bsp_tftlcd.c **** 		LCD_WriteReg(0xB601,0x34);
 4665              		.loc 1 1190 0
 4666 1344 3421     		movs	r1, #52
 4667 1346 4FF43640 		mov	r0, #46592
 4668 134a FFF7FEFF 		bl	LCD_WriteReg
 4669              	.LVL923:
1191:Src/bsp_tftlcd.c **** 		LCD_WriteReg(0xB602,0x34);
 4670              		.loc 1 1191 0
ARM GAS  /tmp/cco7znPM.s 			page 125


 4671 134e 3421     		movs	r1, #52
 4672 1350 4BF20160 		movw	r0, #46593
 4673 1354 FFF7FEFF 		bl	LCD_WriteReg
 4674              	.LVL924:
1192:Src/bsp_tftlcd.c **** 		//AVEE -5.2V
 4675              		.loc 1 1192 0
 4676 1358 3421     		movs	r1, #52
 4677 135a 4BF20260 		movw	r0, #46594
 4678 135e FFF7FEFF 		bl	LCD_WriteReg
 4679              	.LVL925:
1194:Src/bsp_tftlcd.c **** 		LCD_WriteReg(0xB101,0x0D);
 4680              		.loc 1 1194 0
 4681 1362 0D21     		movs	r1, #13
 4682 1364 4FF43140 		mov	r0, #45312
 4683 1368 FFF7FEFF 		bl	LCD_WriteReg
 4684              	.LVL926:
1195:Src/bsp_tftlcd.c **** 		LCD_WriteReg(0xB102,0x0D);
 4685              		.loc 1 1195 0
 4686 136c 0D21     		movs	r1, #13
 4687 136e 4BF20110 		movw	r0, #45313
 4688 1372 FFF7FEFF 		bl	LCD_WriteReg
 4689              	.LVL927:
1196:Src/bsp_tftlcd.c **** 		//AVEE ratio
 4690              		.loc 1 1196 0
 4691 1376 0D21     		movs	r1, #13
 4692 1378 4BF20210 		movw	r0, #45314
 4693 137c FFF7FEFF 		bl	LCD_WriteReg
 4694              	.LVL928:
1198:Src/bsp_tftlcd.c **** 		LCD_WriteReg(0xB701,0x34);
 4695              		.loc 1 1198 0
 4696 1380 3421     		movs	r1, #52
 4697 1382 4FF43740 		mov	r0, #46848
 4698 1386 FFF7FEFF 		bl	LCD_WriteReg
 4699              	.LVL929:
1199:Src/bsp_tftlcd.c **** 		LCD_WriteReg(0xB702,0x34);
 4700              		.loc 1 1199 0
 4701 138a 3421     		movs	r1, #52
 4702 138c 4BF20170 		movw	r0, #46849
 4703 1390 FFF7FEFF 		bl	LCD_WriteReg
 4704              	.LVL930:
1200:Src/bsp_tftlcd.c **** 		//VCL -2.5V
 4705              		.loc 1 1200 0
 4706 1394 3421     		movs	r1, #52
 4707 1396 4BF20270 		movw	r0, #46850
 4708 139a FFF7FEFF 		bl	LCD_WriteReg
 4709              	.LVL931:
1202:Src/bsp_tftlcd.c **** 		LCD_WriteReg(0xB201,0x00);
 4710              		.loc 1 1202 0
 4711 139e 0021     		movs	r1, #0
 4712 13a0 4FF43240 		mov	r0, #45568
 4713 13a4 FFF7FEFF 		bl	LCD_WriteReg
 4714              	.LVL932:
1203:Src/bsp_tftlcd.c **** 		LCD_WriteReg(0xB202,0x00);
 4715              		.loc 1 1203 0
 4716 13a8 0021     		movs	r1, #0
 4717 13aa 4BF20120 		movw	r0, #45569
 4718 13ae FFF7FEFF 		bl	LCD_WriteReg
ARM GAS  /tmp/cco7znPM.s 			page 126


 4719              	.LVL933:
1204:Src/bsp_tftlcd.c **** 		//VCL ratio
 4720              		.loc 1 1204 0
 4721 13b2 0021     		movs	r1, #0
 4722 13b4 4BF20220 		movw	r0, #45570
 4723 13b8 FFF7FEFF 		bl	LCD_WriteReg
 4724              	.LVL934:
1206:Src/bsp_tftlcd.c **** 		LCD_WriteReg(0xB801,0x24);
 4725              		.loc 1 1206 0
 4726 13bc 2421     		movs	r1, #36
 4727 13be 4FF43840 		mov	r0, #47104
 4728 13c2 FFF7FEFF 		bl	LCD_WriteReg
 4729              	.LVL935:
1207:Src/bsp_tftlcd.c **** 		LCD_WriteReg(0xB802,0x24);
 4730              		.loc 1 1207 0
 4731 13c6 2421     		movs	r1, #36
 4732 13c8 4BF60100 		movw	r0, #47105
 4733 13cc FFF7FEFF 		bl	LCD_WriteReg
 4734              	.LVL936:
1208:Src/bsp_tftlcd.c **** 		//VGH 15V (Free pump)
 4735              		.loc 1 1208 0
 4736 13d0 2421     		movs	r1, #36
 4737 13d2 4BF60200 		movw	r0, #47106
 4738 13d6 FFF7FEFF 		bl	LCD_WriteReg
 4739              	.LVL937:
1210:Src/bsp_tftlcd.c **** 		LCD_WriteReg(0xB300,0x0F);
 4740              		.loc 1 1210 0
 4741 13da 0121     		movs	r1, #1
 4742 13dc 4FF43F40 		mov	r0, #48896
 4743 13e0 FFF7FEFF 		bl	LCD_WriteReg
 4744              	.LVL938:
1211:Src/bsp_tftlcd.c **** 		LCD_WriteReg(0xB301,0x0F);
 4745              		.loc 1 1211 0
 4746 13e4 0F21     		movs	r1, #15
 4747 13e6 4FF43340 		mov	r0, #45824
 4748 13ea FFF7FEFF 		bl	LCD_WriteReg
 4749              	.LVL939:
1212:Src/bsp_tftlcd.c **** 		LCD_WriteReg(0xB302,0x0F);
 4750              		.loc 1 1212 0
 4751 13ee 0F21     		movs	r1, #15
 4752 13f0 4BF20130 		movw	r0, #45825
 4753 13f4 FFF7FEFF 		bl	LCD_WriteReg
 4754              	.LVL940:
1213:Src/bsp_tftlcd.c **** 		//VGH ratio
 4755              		.loc 1 1213 0
 4756 13f8 0F21     		movs	r1, #15
 4757 13fa 4BF20230 		movw	r0, #45826
 4758 13fe FFF7FEFF 		bl	LCD_WriteReg
 4759              	.LVL941:
1215:Src/bsp_tftlcd.c **** 		LCD_WriteReg(0xB901,0x34);
 4760              		.loc 1 1215 0
 4761 1402 3421     		movs	r1, #52
 4762 1404 4FF43940 		mov	r0, #47360
 4763 1408 FFF7FEFF 		bl	LCD_WriteReg
 4764              	.LVL942:
1216:Src/bsp_tftlcd.c **** 		LCD_WriteReg(0xB902,0x34);
 4765              		.loc 1 1216 0
ARM GAS  /tmp/cco7znPM.s 			page 127


 4766 140c 3421     		movs	r1, #52
 4767 140e 4BF60110 		movw	r0, #47361
 4768 1412 FFF7FEFF 		bl	LCD_WriteReg
 4769              	.LVL943:
1217:Src/bsp_tftlcd.c **** 		//VGL_REG -10V
 4770              		.loc 1 1217 0
 4771 1416 3421     		movs	r1, #52
 4772 1418 4BF60210 		movw	r0, #47362
 4773 141c FFF7FEFF 		bl	LCD_WriteReg
 4774              	.LVL944:
1219:Src/bsp_tftlcd.c **** 		LCD_WriteReg(0xB501,0x08);
 4775              		.loc 1 1219 0
 4776 1420 0821     		movs	r1, #8
 4777 1422 4FF43540 		mov	r0, #46336
 4778 1426 FFF7FEFF 		bl	LCD_WriteReg
 4779              	.LVL945:
1220:Src/bsp_tftlcd.c **** 		LCD_WriteReg(0xB502,0x08);
 4780              		.loc 1 1220 0
 4781 142a 0821     		movs	r1, #8
 4782 142c 4BF20150 		movw	r0, #46337
 4783 1430 FFF7FEFF 		bl	LCD_WriteReg
 4784              	.LVL946:
1221:Src/bsp_tftlcd.c **** 		LCD_WriteReg(0xC200,0x03);
 4785              		.loc 1 1221 0
 4786 1434 0821     		movs	r1, #8
 4787 1436 4BF20250 		movw	r0, #46338
 4788 143a FFF7FEFF 		bl	LCD_WriteReg
 4789              	.LVL947:
1222:Src/bsp_tftlcd.c **** 		//VGLX ratio
 4790              		.loc 1 1222 0
 4791 143e 0321     		movs	r1, #3
 4792 1440 4FF44240 		mov	r0, #49664
 4793 1444 FFF7FEFF 		bl	LCD_WriteReg
 4794              	.LVL948:
1224:Src/bsp_tftlcd.c **** 		LCD_WriteReg(0xBA01,0x24);
 4795              		.loc 1 1224 0
 4796 1448 2421     		movs	r1, #36
 4797 144a 4FF43A40 		mov	r0, #47616
 4798 144e FFF7FEFF 		bl	LCD_WriteReg
 4799              	.LVL949:
1225:Src/bsp_tftlcd.c **** 		LCD_WriteReg(0xBA02,0x24);
 4800              		.loc 1 1225 0
 4801 1452 2421     		movs	r1, #36
 4802 1454 4BF60120 		movw	r0, #47617
 4803 1458 FFF7FEFF 		bl	LCD_WriteReg
 4804              	.LVL950:
1226:Src/bsp_tftlcd.c **** 		//VGMP/VGSP 4.5V/0V
 4805              		.loc 1 1226 0
 4806 145c 2421     		movs	r1, #36
 4807 145e 4BF60220 		movw	r0, #47618
 4808 1462 FFF7FEFF 		bl	LCD_WriteReg
 4809              	.LVL951:
1228:Src/bsp_tftlcd.c **** 		LCD_WriteReg(0xBC01,0x78);
 4810              		.loc 1 1228 0
 4811 1466 0021     		movs	r1, #0
 4812 1468 4FF43C40 		mov	r0, #48128
 4813 146c FFF7FEFF 		bl	LCD_WriteReg
ARM GAS  /tmp/cco7znPM.s 			page 128


 4814              	.LVL952:
1229:Src/bsp_tftlcd.c **** 		LCD_WriteReg(0xBC02,0x00);
 4815              		.loc 1 1229 0
 4816 1470 7821     		movs	r1, #120
 4817 1472 4BF60140 		movw	r0, #48129
 4818 1476 FFF7FEFF 		bl	LCD_WriteReg
 4819              	.LVL953:
1230:Src/bsp_tftlcd.c **** 		//VGMN/VGSN -4.5V/0V
 4820              		.loc 1 1230 0
 4821 147a 0021     		movs	r1, #0
 4822 147c 4BF60240 		movw	r0, #48130
 4823 1480 FFF7FEFF 		bl	LCD_WriteReg
 4824              	.LVL954:
1232:Src/bsp_tftlcd.c **** 		LCD_WriteReg(0xBD01,0x78);
 4825              		.loc 1 1232 0
 4826 1484 0021     		movs	r1, #0
 4827 1486 4FF43D40 		mov	r0, #48384
 4828 148a FFF7FEFF 		bl	LCD_WriteReg
 4829              	.LVL955:
1233:Src/bsp_tftlcd.c **** 		LCD_WriteReg(0xBD02,0x00);
 4830              		.loc 1 1233 0
 4831 148e 7821     		movs	r1, #120
 4832 1490 4BF60150 		movw	r0, #48385
 4833 1494 FFF7FEFF 		bl	LCD_WriteReg
 4834              	.LVL956:
1234:Src/bsp_tftlcd.c **** 		//VCOM
 4835              		.loc 1 1234 0
 4836 1498 0021     		movs	r1, #0
 4837 149a 4BF60250 		movw	r0, #48386
 4838 149e FFF7FEFF 		bl	LCD_WriteReg
 4839              	.LVL957:
1236:Src/bsp_tftlcd.c **** 		LCD_WriteReg(0xBE01,0x64);
 4840              		.loc 1 1236 0
 4841 14a2 0021     		movs	r1, #0
 4842 14a4 4FF43E40 		mov	r0, #48640
 4843 14a8 FFF7FEFF 		bl	LCD_WriteReg
 4844              	.LVL958:
1237:Src/bsp_tftlcd.c **** 		//Gamma Setting
 4845              		.loc 1 1237 0
 4846 14ac 6421     		movs	r1, #100
 4847 14ae 4BF60160 		movw	r0, #48641
 4848 14b2 FFF7FEFF 		bl	LCD_WriteReg
 4849              	.LVL959:
1239:Src/bsp_tftlcd.c **** 		LCD_WriteReg(0xD101,0x33);
 4850              		.loc 1 1239 0
 4851 14b6 0021     		movs	r1, #0
 4852 14b8 4FF45140 		mov	r0, #53504
 4853 14bc FFF7FEFF 		bl	LCD_WriteReg
 4854              	.LVL960:
1240:Src/bsp_tftlcd.c **** 		LCD_WriteReg(0xD102,0x00);
 4855              		.loc 1 1240 0
 4856 14c0 3321     		movs	r1, #51
 4857 14c2 4DF20110 		movw	r0, #53505
 4858 14c6 FFF7FEFF 		bl	LCD_WriteReg
 4859              	.LVL961:
1241:Src/bsp_tftlcd.c **** 		LCD_WriteReg(0xD103,0x34);
 4860              		.loc 1 1241 0
ARM GAS  /tmp/cco7znPM.s 			page 129


 4861 14ca 0021     		movs	r1, #0
 4862 14cc 4DF20210 		movw	r0, #53506
 4863 14d0 FFF7FEFF 		bl	LCD_WriteReg
 4864              	.LVL962:
1242:Src/bsp_tftlcd.c **** 		LCD_WriteReg(0xD104,0x00);
 4865              		.loc 1 1242 0
 4866 14d4 3421     		movs	r1, #52
 4867 14d6 4DF20310 		movw	r0, #53507
 4868 14da FFF7FEFF 		bl	LCD_WriteReg
 4869              	.LVL963:
1243:Src/bsp_tftlcd.c **** 		LCD_WriteReg(0xD105,0x3A);
 4870              		.loc 1 1243 0
 4871 14de 0021     		movs	r1, #0
 4872 14e0 4DF20410 		movw	r0, #53508
 4873 14e4 FFF7FEFF 		bl	LCD_WriteReg
 4874              	.LVL964:
1244:Src/bsp_tftlcd.c **** 		LCD_WriteReg(0xD106,0x00);
 4875              		.loc 1 1244 0
 4876 14e8 3A21     		movs	r1, #58
 4877 14ea 4DF20510 		movw	r0, #53509
 4878 14ee FFF7FEFF 		bl	LCD_WriteReg
 4879              	.LVL965:
1245:Src/bsp_tftlcd.c **** 		LCD_WriteReg(0xD107,0x4A);
 4880              		.loc 1 1245 0
 4881 14f2 0021     		movs	r1, #0
 4882 14f4 4DF20610 		movw	r0, #53510
 4883 14f8 FFF7FEFF 		bl	LCD_WriteReg
 4884              	.LVL966:
1246:Src/bsp_tftlcd.c **** 		LCD_WriteReg(0xD108,0x00);
 4885              		.loc 1 1246 0
 4886 14fc 4A21     		movs	r1, #74
 4887 14fe 4DF20710 		movw	r0, #53511
 4888 1502 FFF7FEFF 		bl	LCD_WriteReg
 4889              	.LVL967:
1247:Src/bsp_tftlcd.c **** 		LCD_WriteReg(0xD109,0x5C);
 4890              		.loc 1 1247 0
 4891 1506 0021     		movs	r1, #0
 4892 1508 4DF20810 		movw	r0, #53512
 4893 150c FFF7FEFF 		bl	LCD_WriteReg
 4894              	.LVL968:
1248:Src/bsp_tftlcd.c **** 		LCD_WriteReg(0xD10A,0x00);
 4895              		.loc 1 1248 0
 4896 1510 5C21     		movs	r1, #92
 4897 1512 4DF20910 		movw	r0, #53513
 4898 1516 FFF7FEFF 		bl	LCD_WriteReg
 4899              	.LVL969:
1249:Src/bsp_tftlcd.c **** 		LCD_WriteReg(0xD10B,0x81);
 4900              		.loc 1 1249 0
 4901 151a 0021     		movs	r1, #0
 4902 151c 4DF20A10 		movw	r0, #53514
 4903 1520 FFF7FEFF 		bl	LCD_WriteReg
 4904              	.LVL970:
1250:Src/bsp_tftlcd.c **** 		LCD_WriteReg(0xD10C,0x00);
 4905              		.loc 1 1250 0
 4906 1524 8121     		movs	r1, #129
 4907 1526 4DF20B10 		movw	r0, #53515
 4908 152a FFF7FEFF 		bl	LCD_WriteReg
ARM GAS  /tmp/cco7znPM.s 			page 130


 4909              	.LVL971:
1251:Src/bsp_tftlcd.c **** 		LCD_WriteReg(0xD10D,0xA6);
 4910              		.loc 1 1251 0
 4911 152e 0021     		movs	r1, #0
 4912 1530 4DF20C10 		movw	r0, #53516
 4913 1534 FFF7FEFF 		bl	LCD_WriteReg
 4914              	.LVL972:
1252:Src/bsp_tftlcd.c **** 		LCD_WriteReg(0xD10E,0x00);
 4915              		.loc 1 1252 0
 4916 1538 A621     		movs	r1, #166
 4917 153a 4DF20D10 		movw	r0, #53517
 4918 153e FFF7FEFF 		bl	LCD_WriteReg
 4919              	.LVL973:
1253:Src/bsp_tftlcd.c **** 		LCD_WriteReg(0xD10F,0xE5);
 4920              		.loc 1 1253 0
 4921 1542 0021     		movs	r1, #0
 4922 1544 4DF20E10 		movw	r0, #53518
 4923 1548 FFF7FEFF 		bl	LCD_WriteReg
 4924              	.LVL974:
1254:Src/bsp_tftlcd.c **** 		LCD_WriteReg(0xD110,0x01);
 4925              		.loc 1 1254 0
 4926 154c E521     		movs	r1, #229
 4927 154e 4DF20F10 		movw	r0, #53519
 4928 1552 FFF7FEFF 		bl	LCD_WriteReg
 4929              	.LVL975:
1255:Src/bsp_tftlcd.c **** 		LCD_WriteReg(0xD111,0x13);
 4930              		.loc 1 1255 0
 4931 1556 0121     		movs	r1, #1
 4932 1558 4DF21010 		movw	r0, #53520
 4933 155c FFF7FEFF 		bl	LCD_WriteReg
 4934              	.LVL976:
1256:Src/bsp_tftlcd.c **** 		LCD_WriteReg(0xD112,0x01);
 4935              		.loc 1 1256 0
 4936 1560 1321     		movs	r1, #19
 4937 1562 4DF21110 		movw	r0, #53521
 4938 1566 FFF7FEFF 		bl	LCD_WriteReg
 4939              	.LVL977:
1257:Src/bsp_tftlcd.c **** 		LCD_WriteReg(0xD113,0x54);
 4940              		.loc 1 1257 0
 4941 156a 0121     		movs	r1, #1
 4942 156c 4DF21210 		movw	r0, #53522
 4943 1570 FFF7FEFF 		bl	LCD_WriteReg
 4944              	.LVL978:
1258:Src/bsp_tftlcd.c **** 		LCD_WriteReg(0xD114,0x01);
 4945              		.loc 1 1258 0
 4946 1574 5421     		movs	r1, #84
 4947 1576 4DF21310 		movw	r0, #53523
 4948 157a FFF7FEFF 		bl	LCD_WriteReg
 4949              	.LVL979:
1259:Src/bsp_tftlcd.c **** 		LCD_WriteReg(0xD115,0x82);
 4950              		.loc 1 1259 0
 4951 157e 0121     		movs	r1, #1
 4952 1580 4DF21410 		movw	r0, #53524
 4953 1584 FFF7FEFF 		bl	LCD_WriteReg
 4954              	.LVL980:
1260:Src/bsp_tftlcd.c **** 		LCD_WriteReg(0xD116,0x01);
 4955              		.loc 1 1260 0
ARM GAS  /tmp/cco7znPM.s 			page 131


 4956 1588 8221     		movs	r1, #130
 4957 158a 4DF21510 		movw	r0, #53525
 4958 158e FFF7FEFF 		bl	LCD_WriteReg
 4959              	.LVL981:
1261:Src/bsp_tftlcd.c **** 		LCD_WriteReg(0xD117,0xCA);
 4960              		.loc 1 1261 0
 4961 1592 0121     		movs	r1, #1
 4962 1594 4DF21610 		movw	r0, #53526
 4963 1598 FFF7FEFF 		bl	LCD_WriteReg
 4964              	.LVL982:
1262:Src/bsp_tftlcd.c **** 		LCD_WriteReg(0xD118,0x02);
 4965              		.loc 1 1262 0
 4966 159c CA21     		movs	r1, #202
 4967 159e 4DF21710 		movw	r0, #53527
 4968 15a2 FFF7FEFF 		bl	LCD_WriteReg
 4969              	.LVL983:
1263:Src/bsp_tftlcd.c **** 		LCD_WriteReg(0xD119,0x00);
 4970              		.loc 1 1263 0
 4971 15a6 0221     		movs	r1, #2
 4972 15a8 4DF21810 		movw	r0, #53528
 4973 15ac FFF7FEFF 		bl	LCD_WriteReg
 4974              	.LVL984:
1264:Src/bsp_tftlcd.c **** 		LCD_WriteReg(0xD11A,0x02);
 4975              		.loc 1 1264 0
 4976 15b0 0021     		movs	r1, #0
 4977 15b2 4DF21910 		movw	r0, #53529
 4978 15b6 FFF7FEFF 		bl	LCD_WriteReg
 4979              	.LVL985:
1265:Src/bsp_tftlcd.c **** 		LCD_WriteReg(0xD11B,0x01);
 4980              		.loc 1 1265 0
 4981 15ba 0221     		movs	r1, #2
 4982 15bc 4DF21A10 		movw	r0, #53530
 4983 15c0 FFF7FEFF 		bl	LCD_WriteReg
 4984              	.LVL986:
1266:Src/bsp_tftlcd.c **** 		LCD_WriteReg(0xD11C,0x02);
 4985              		.loc 1 1266 0
 4986 15c4 0121     		movs	r1, #1
 4987 15c6 4DF21B10 		movw	r0, #53531
 4988 15ca FFF7FEFF 		bl	LCD_WriteReg
 4989              	.LVL987:
1267:Src/bsp_tftlcd.c **** 		LCD_WriteReg(0xD11D,0x34);
 4990              		.loc 1 1267 0
 4991 15ce 0221     		movs	r1, #2
 4992 15d0 4DF21C10 		movw	r0, #53532
 4993 15d4 FFF7FEFF 		bl	LCD_WriteReg
 4994              	.LVL988:
1268:Src/bsp_tftlcd.c **** 		LCD_WriteReg(0xD11E,0x02);
 4995              		.loc 1 1268 0
 4996 15d8 3421     		movs	r1, #52
 4997 15da 4DF21D10 		movw	r0, #53533
 4998 15de FFF7FEFF 		bl	LCD_WriteReg
 4999              	.LVL989:
1269:Src/bsp_tftlcd.c **** 		LCD_WriteReg(0xD11F,0x67);
 5000              		.loc 1 1269 0
 5001 15e2 0221     		movs	r1, #2
 5002 15e4 4DF21E10 		movw	r0, #53534
 5003 15e8 FFF7FEFF 		bl	LCD_WriteReg
ARM GAS  /tmp/cco7znPM.s 			page 132


 5004              	.LVL990:
1270:Src/bsp_tftlcd.c **** 		LCD_WriteReg(0xD120,0x02);
 5005              		.loc 1 1270 0
 5006 15ec 6721     		movs	r1, #103
 5007 15ee 4DF21F10 		movw	r0, #53535
 5008 15f2 FFF7FEFF 		bl	LCD_WriteReg
 5009              	.LVL991:
1271:Src/bsp_tftlcd.c **** 		LCD_WriteReg(0xD121,0x84);
 5010              		.loc 1 1271 0
 5011 15f6 0221     		movs	r1, #2
 5012 15f8 4DF22010 		movw	r0, #53536
 5013 15fc FFF7FEFF 		bl	LCD_WriteReg
 5014              	.LVL992:
1272:Src/bsp_tftlcd.c **** 		LCD_WriteReg(0xD122,0x02);
 5015              		.loc 1 1272 0
 5016 1600 8421     		movs	r1, #132
 5017 1602 4DF22110 		movw	r0, #53537
 5018 1606 FFF7FEFF 		bl	LCD_WriteReg
 5019              	.LVL993:
1273:Src/bsp_tftlcd.c **** 		LCD_WriteReg(0xD123,0xA4);
 5020              		.loc 1 1273 0
 5021 160a 0221     		movs	r1, #2
 5022 160c 4DF22210 		movw	r0, #53538
 5023 1610 FFF7FEFF 		bl	LCD_WriteReg
 5024              	.LVL994:
1274:Src/bsp_tftlcd.c **** 		LCD_WriteReg(0xD124,0x02);
 5025              		.loc 1 1274 0
 5026 1614 A421     		movs	r1, #164
 5027 1616 4DF22310 		movw	r0, #53539
 5028 161a FFF7FEFF 		bl	LCD_WriteReg
 5029              	.LVL995:
1275:Src/bsp_tftlcd.c **** 		LCD_WriteReg(0xD125,0xB7);
 5030              		.loc 1 1275 0
 5031 161e 0221     		movs	r1, #2
 5032 1620 4DF22410 		movw	r0, #53540
 5033 1624 FFF7FEFF 		bl	LCD_WriteReg
 5034              	.LVL996:
1276:Src/bsp_tftlcd.c **** 		LCD_WriteReg(0xD126,0x02);
 5035              		.loc 1 1276 0
 5036 1628 B721     		movs	r1, #183
 5037 162a 4DF22510 		movw	r0, #53541
 5038 162e FFF7FEFF 		bl	LCD_WriteReg
 5039              	.LVL997:
1277:Src/bsp_tftlcd.c **** 		LCD_WriteReg(0xD127,0xCF);
 5040              		.loc 1 1277 0
 5041 1632 0221     		movs	r1, #2
 5042 1634 4DF22610 		movw	r0, #53542
 5043 1638 FFF7FEFF 		bl	LCD_WriteReg
 5044              	.LVL998:
1278:Src/bsp_tftlcd.c **** 		LCD_WriteReg(0xD128,0x02);
 5045              		.loc 1 1278 0
 5046 163c CF21     		movs	r1, #207
 5047 163e 4DF22710 		movw	r0, #53543
 5048 1642 FFF7FEFF 		bl	LCD_WriteReg
 5049              	.LVL999:
1279:Src/bsp_tftlcd.c **** 		LCD_WriteReg(0xD129,0xDE);
 5050              		.loc 1 1279 0
ARM GAS  /tmp/cco7znPM.s 			page 133


 5051 1646 0221     		movs	r1, #2
 5052 1648 4DF22810 		movw	r0, #53544
 5053 164c FFF7FEFF 		bl	LCD_WriteReg
 5054              	.LVL1000:
1280:Src/bsp_tftlcd.c **** 		LCD_WriteReg(0xD12A,0x02);
 5055              		.loc 1 1280 0
 5056 1650 DE21     		movs	r1, #222
 5057 1652 4DF22910 		movw	r0, #53545
 5058 1656 FFF7FEFF 		bl	LCD_WriteReg
 5059              	.LVL1001:
1281:Src/bsp_tftlcd.c **** 		LCD_WriteReg(0xD12B,0xF2);
 5060              		.loc 1 1281 0
 5061 165a 0221     		movs	r1, #2
 5062 165c 4DF22A10 		movw	r0, #53546
 5063 1660 FFF7FEFF 		bl	LCD_WriteReg
 5064              	.LVL1002:
1282:Src/bsp_tftlcd.c **** 		LCD_WriteReg(0xD12C,0x02);
 5065              		.loc 1 1282 0
 5066 1664 F221     		movs	r1, #242
 5067 1666 4DF22B10 		movw	r0, #53547
 5068 166a FFF7FEFF 		bl	LCD_WriteReg
 5069              	.LVL1003:
1283:Src/bsp_tftlcd.c **** 		LCD_WriteReg(0xD12D,0xFE);
 5070              		.loc 1 1283 0
 5071 166e 0221     		movs	r1, #2
 5072 1670 4DF22C10 		movw	r0, #53548
 5073 1674 FFF7FEFF 		bl	LCD_WriteReg
 5074              	.LVL1004:
1284:Src/bsp_tftlcd.c **** 		LCD_WriteReg(0xD12E,0x03);
 5075              		.loc 1 1284 0
 5076 1678 FE21     		movs	r1, #254
 5077 167a 4DF22D10 		movw	r0, #53549
 5078 167e FFF7FEFF 		bl	LCD_WriteReg
 5079              	.LVL1005:
1285:Src/bsp_tftlcd.c **** 		LCD_WriteReg(0xD12F,0x10);
 5080              		.loc 1 1285 0
 5081 1682 0321     		movs	r1, #3
 5082 1684 4DF22E10 		movw	r0, #53550
 5083 1688 FFF7FEFF 		bl	LCD_WriteReg
 5084              	.LVL1006:
1286:Src/bsp_tftlcd.c **** 		LCD_WriteReg(0xD130,0x03);
 5085              		.loc 1 1286 0
 5086 168c 1021     		movs	r1, #16
 5087 168e 4DF22F10 		movw	r0, #53551
 5088 1692 FFF7FEFF 		bl	LCD_WriteReg
 5089              	.LVL1007:
1287:Src/bsp_tftlcd.c **** 		LCD_WriteReg(0xD131,0x33);
 5090              		.loc 1 1287 0
 5091 1696 0321     		movs	r1, #3
 5092 1698 4DF23010 		movw	r0, #53552
 5093 169c FFF7FEFF 		bl	LCD_WriteReg
 5094              	.LVL1008:
1288:Src/bsp_tftlcd.c **** 		LCD_WriteReg(0xD132,0x03);
 5095              		.loc 1 1288 0
 5096 16a0 3321     		movs	r1, #51
 5097 16a2 4DF23110 		movw	r0, #53553
 5098 16a6 FFF7FEFF 		bl	LCD_WriteReg
ARM GAS  /tmp/cco7znPM.s 			page 134


 5099              	.LVL1009:
1289:Src/bsp_tftlcd.c **** 		LCD_WriteReg(0xD133,0x6D);
 5100              		.loc 1 1289 0
 5101 16aa 0321     		movs	r1, #3
 5102 16ac 4DF23210 		movw	r0, #53554
 5103 16b0 FFF7FEFF 		bl	LCD_WriteReg
 5104              	.LVL1010:
1290:Src/bsp_tftlcd.c **** 		LCD_WriteReg(0xD200,0x00);
 5105              		.loc 1 1290 0
 5106 16b4 6D21     		movs	r1, #109
 5107 16b6 4DF23310 		movw	r0, #53555
 5108 16ba FFF7FEFF 		bl	LCD_WriteReg
 5109              	.LVL1011:
1291:Src/bsp_tftlcd.c **** 		LCD_WriteReg(0xD201,0x33);
 5110              		.loc 1 1291 0
 5111 16be 0021     		movs	r1, #0
 5112 16c0 4FF45240 		mov	r0, #53760
 5113 16c4 FFF7FEFF 		bl	LCD_WriteReg
 5114              	.LVL1012:
1292:Src/bsp_tftlcd.c **** 		LCD_WriteReg(0xD202,0x00);
 5115              		.loc 1 1292 0
 5116 16c8 3321     		movs	r1, #51
 5117 16ca 4DF20120 		movw	r0, #53761
 5118 16ce FFF7FEFF 		bl	LCD_WriteReg
 5119              	.LVL1013:
1293:Src/bsp_tftlcd.c **** 		LCD_WriteReg(0xD203,0x34);
 5120              		.loc 1 1293 0
 5121 16d2 0021     		movs	r1, #0
 5122 16d4 4DF20220 		movw	r0, #53762
 5123 16d8 FFF7FEFF 		bl	LCD_WriteReg
 5124              	.LVL1014:
1294:Src/bsp_tftlcd.c **** 		LCD_WriteReg(0xD204,0x00);
 5125              		.loc 1 1294 0
 5126 16dc 3421     		movs	r1, #52
 5127 16de 4DF20320 		movw	r0, #53763
 5128 16e2 FFF7FEFF 		bl	LCD_WriteReg
 5129              	.LVL1015:
1295:Src/bsp_tftlcd.c **** 		LCD_WriteReg(0xD205,0x3A);
 5130              		.loc 1 1295 0
 5131 16e6 0021     		movs	r1, #0
 5132 16e8 4DF20420 		movw	r0, #53764
 5133 16ec FFF7FEFF 		bl	LCD_WriteReg
 5134              	.LVL1016:
1296:Src/bsp_tftlcd.c **** 		LCD_WriteReg(0xD206,0x00);
 5135              		.loc 1 1296 0
 5136 16f0 3A21     		movs	r1, #58
 5137 16f2 4DF20520 		movw	r0, #53765
 5138 16f6 FFF7FEFF 		bl	LCD_WriteReg
 5139              	.LVL1017:
1297:Src/bsp_tftlcd.c **** 		LCD_WriteReg(0xD207,0x4A);
 5140              		.loc 1 1297 0
 5141 16fa 0021     		movs	r1, #0
 5142 16fc 4DF20620 		movw	r0, #53766
 5143 1700 FFF7FEFF 		bl	LCD_WriteReg
 5144              	.LVL1018:
1298:Src/bsp_tftlcd.c **** 		LCD_WriteReg(0xD208,0x00);
 5145              		.loc 1 1298 0
ARM GAS  /tmp/cco7znPM.s 			page 135


 5146 1704 4A21     		movs	r1, #74
 5147 1706 4DF20720 		movw	r0, #53767
 5148 170a FFF7FEFF 		bl	LCD_WriteReg
 5149              	.LVL1019:
1299:Src/bsp_tftlcd.c **** 		LCD_WriteReg(0xD209,0x5C);
 5150              		.loc 1 1299 0
 5151 170e 0021     		movs	r1, #0
 5152 1710 4DF20820 		movw	r0, #53768
 5153 1714 FFF7FEFF 		bl	LCD_WriteReg
 5154              	.LVL1020:
1300:Src/bsp_tftlcd.c **** 		LCD_WriteReg(0xD20A,0x00);
 5155              		.loc 1 1300 0
 5156 1718 5C21     		movs	r1, #92
 5157 171a 4DF20920 		movw	r0, #53769
 5158 171e FFF7FEFF 		bl	LCD_WriteReg
 5159              	.LVL1021:
1301:Src/bsp_tftlcd.c **** 
 5160              		.loc 1 1301 0
 5161 1722 0021     		movs	r1, #0
 5162 1724 4DF20A20 		movw	r0, #53770
 5163 1728 FFF7FEFF 		bl	LCD_WriteReg
 5164              	.LVL1022:
1303:Src/bsp_tftlcd.c **** 		LCD_WriteReg(0xD20C,0x00);
 5165              		.loc 1 1303 0
 5166 172c 8121     		movs	r1, #129
 5167 172e 4DF20B20 		movw	r0, #53771
 5168 1732 FFF7FEFF 		bl	LCD_WriteReg
 5169              	.LVL1023:
1304:Src/bsp_tftlcd.c **** 		LCD_WriteReg(0xD20D,0xA6);
 5170              		.loc 1 1304 0
 5171 1736 0021     		movs	r1, #0
 5172 1738 4DF20C20 		movw	r0, #53772
 5173 173c FFF7FEFF 		bl	LCD_WriteReg
 5174              	.LVL1024:
1305:Src/bsp_tftlcd.c **** 		LCD_WriteReg(0xD20E,0x00);
 5175              		.loc 1 1305 0
 5176 1740 A621     		movs	r1, #166
 5177 1742 4DF20D20 		movw	r0, #53773
 5178 1746 FFF7FEFF 		bl	LCD_WriteReg
 5179              	.LVL1025:
1306:Src/bsp_tftlcd.c **** 		LCD_WriteReg(0xD20F,0xE5);
 5180              		.loc 1 1306 0
 5181 174a 0021     		movs	r1, #0
 5182 174c 4DF20E20 		movw	r0, #53774
 5183 1750 FFF7FEFF 		bl	LCD_WriteReg
 5184              	.LVL1026:
1307:Src/bsp_tftlcd.c **** 		LCD_WriteReg(0xD210,0x01);
 5185              		.loc 1 1307 0
 5186 1754 E521     		movs	r1, #229
 5187 1756 4DF20F20 		movw	r0, #53775
 5188 175a FFF7FEFF 		bl	LCD_WriteReg
 5189              	.LVL1027:
1308:Src/bsp_tftlcd.c **** 		LCD_WriteReg(0xD211,0x13);
 5190              		.loc 1 1308 0
 5191 175e 0121     		movs	r1, #1
 5192 1760 4DF21020 		movw	r0, #53776
 5193 1764 FFF7FEFF 		bl	LCD_WriteReg
ARM GAS  /tmp/cco7znPM.s 			page 136


 5194              	.LVL1028:
1309:Src/bsp_tftlcd.c **** 		LCD_WriteReg(0xD212,0x01);
 5195              		.loc 1 1309 0
 5196 1768 1321     		movs	r1, #19
 5197 176a 4DF21120 		movw	r0, #53777
 5198 176e FFF7FEFF 		bl	LCD_WriteReg
 5199              	.LVL1029:
1310:Src/bsp_tftlcd.c **** 		LCD_WriteReg(0xD213,0x54);
 5200              		.loc 1 1310 0
 5201 1772 0121     		movs	r1, #1
 5202 1774 4DF21220 		movw	r0, #53778
 5203 1778 FFF7FEFF 		bl	LCD_WriteReg
 5204              	.LVL1030:
1311:Src/bsp_tftlcd.c **** 		LCD_WriteReg(0xD214,0x01);
 5205              		.loc 1 1311 0
 5206 177c 5421     		movs	r1, #84
 5207 177e 4DF21320 		movw	r0, #53779
 5208 1782 FFF7FEFF 		bl	LCD_WriteReg
 5209              	.LVL1031:
1312:Src/bsp_tftlcd.c **** 		LCD_WriteReg(0xD215,0x82);
 5210              		.loc 1 1312 0
 5211 1786 0121     		movs	r1, #1
 5212 1788 4DF21420 		movw	r0, #53780
 5213 178c FFF7FEFF 		bl	LCD_WriteReg
 5214              	.LVL1032:
1313:Src/bsp_tftlcd.c **** 		LCD_WriteReg(0xD216,0x01);
 5215              		.loc 1 1313 0
 5216 1790 8221     		movs	r1, #130
 5217 1792 4DF21520 		movw	r0, #53781
 5218 1796 FFF7FEFF 		bl	LCD_WriteReg
 5219              	.LVL1033:
1314:Src/bsp_tftlcd.c **** 		LCD_WriteReg(0xD217,0xCA);
 5220              		.loc 1 1314 0
 5221 179a 0121     		movs	r1, #1
 5222 179c 4DF21620 		movw	r0, #53782
 5223 17a0 FFF7FEFF 		bl	LCD_WriteReg
 5224              	.LVL1034:
1315:Src/bsp_tftlcd.c **** 		LCD_WriteReg(0xD218,0x02);
 5225              		.loc 1 1315 0
 5226 17a4 CA21     		movs	r1, #202
 5227 17a6 4DF21720 		movw	r0, #53783
 5228 17aa FFF7FEFF 		bl	LCD_WriteReg
 5229              	.LVL1035:
1316:Src/bsp_tftlcd.c **** 		LCD_WriteReg(0xD219,0x00);
 5230              		.loc 1 1316 0
 5231 17ae 0221     		movs	r1, #2
 5232 17b0 4DF21820 		movw	r0, #53784
 5233 17b4 FFF7FEFF 		bl	LCD_WriteReg
 5234              	.LVL1036:
1317:Src/bsp_tftlcd.c **** 		LCD_WriteReg(0xD21A,0x02);
 5235              		.loc 1 1317 0
 5236 17b8 0021     		movs	r1, #0
 5237 17ba 4DF21920 		movw	r0, #53785
 5238 17be FFF7FEFF 		bl	LCD_WriteReg
 5239              	.LVL1037:
1318:Src/bsp_tftlcd.c **** 		LCD_WriteReg(0xD21B,0x01);
 5240              		.loc 1 1318 0
ARM GAS  /tmp/cco7znPM.s 			page 137


 5241 17c2 0221     		movs	r1, #2
 5242 17c4 4DF21A20 		movw	r0, #53786
 5243 17c8 FFF7FEFF 		bl	LCD_WriteReg
 5244              	.LVL1038:
1319:Src/bsp_tftlcd.c **** 		LCD_WriteReg(0xD21C,0x02);
 5245              		.loc 1 1319 0
 5246 17cc 0121     		movs	r1, #1
 5247 17ce 4DF21B20 		movw	r0, #53787
 5248 17d2 FFF7FEFF 		bl	LCD_WriteReg
 5249              	.LVL1039:
1320:Src/bsp_tftlcd.c **** 		LCD_WriteReg(0xD21D,0x34);
 5250              		.loc 1 1320 0
 5251 17d6 0221     		movs	r1, #2
 5252 17d8 4DF21C20 		movw	r0, #53788
 5253 17dc FFF7FEFF 		bl	LCD_WriteReg
 5254              	.LVL1040:
1321:Src/bsp_tftlcd.c **** 		LCD_WriteReg(0xD21E,0x02);
 5255              		.loc 1 1321 0
 5256 17e0 3421     		movs	r1, #52
 5257 17e2 4DF21D20 		movw	r0, #53789
 5258 17e6 FFF7FEFF 		bl	LCD_WriteReg
 5259              	.LVL1041:
1322:Src/bsp_tftlcd.c **** 		LCD_WriteReg(0xD21F,0x67);
 5260              		.loc 1 1322 0
 5261 17ea 0221     		movs	r1, #2
 5262 17ec 4DF21E20 		movw	r0, #53790
 5263 17f0 FFF7FEFF 		bl	LCD_WriteReg
 5264              	.LVL1042:
1323:Src/bsp_tftlcd.c **** 		LCD_WriteReg(0xD220,0x02);
 5265              		.loc 1 1323 0
 5266 17f4 6721     		movs	r1, #103
 5267 17f6 4DF21F20 		movw	r0, #53791
 5268 17fa FFF7FEFF 		bl	LCD_WriteReg
 5269              	.LVL1043:
1324:Src/bsp_tftlcd.c **** 		LCD_WriteReg(0xD221,0x84);
 5270              		.loc 1 1324 0
 5271 17fe 0221     		movs	r1, #2
 5272 1800 4DF22020 		movw	r0, #53792
 5273 1804 FFF7FEFF 		bl	LCD_WriteReg
 5274              	.LVL1044:
1325:Src/bsp_tftlcd.c **** 		LCD_WriteReg(0xD222,0x02);
 5275              		.loc 1 1325 0
 5276 1808 8421     		movs	r1, #132
 5277 180a 4DF22120 		movw	r0, #53793
 5278 180e FFF7FEFF 		bl	LCD_WriteReg
 5279              	.LVL1045:
1326:Src/bsp_tftlcd.c **** 		LCD_WriteReg(0xD223,0xA4);
 5280              		.loc 1 1326 0
 5281 1812 0221     		movs	r1, #2
 5282 1814 4DF22220 		movw	r0, #53794
 5283 1818 FFF7FEFF 		bl	LCD_WriteReg
 5284              	.LVL1046:
1327:Src/bsp_tftlcd.c **** 		LCD_WriteReg(0xD224,0x02);
 5285              		.loc 1 1327 0
 5286 181c A421     		movs	r1, #164
 5287 181e 4DF22320 		movw	r0, #53795
 5288 1822 FFF7FEFF 		bl	LCD_WriteReg
ARM GAS  /tmp/cco7znPM.s 			page 138


 5289              	.LVL1047:
1328:Src/bsp_tftlcd.c **** 		LCD_WriteReg(0xD225,0xB7);
 5290              		.loc 1 1328 0
 5291 1826 0221     		movs	r1, #2
 5292 1828 4DF22420 		movw	r0, #53796
 5293 182c FFF7FEFF 		bl	LCD_WriteReg
 5294              	.LVL1048:
1329:Src/bsp_tftlcd.c **** 		LCD_WriteReg(0xD226,0x02);
 5295              		.loc 1 1329 0
 5296 1830 B721     		movs	r1, #183
 5297 1832 4DF22520 		movw	r0, #53797
 5298 1836 FFF7FEFF 		bl	LCD_WriteReg
 5299              	.LVL1049:
1330:Src/bsp_tftlcd.c **** 		LCD_WriteReg(0xD227,0xCF);
 5300              		.loc 1 1330 0
 5301 183a 0221     		movs	r1, #2
 5302 183c 4DF22620 		movw	r0, #53798
 5303 1840 FFF7FEFF 		bl	LCD_WriteReg
 5304              	.LVL1050:
1331:Src/bsp_tftlcd.c **** 		LCD_WriteReg(0xD228,0x02);
 5305              		.loc 1 1331 0
 5306 1844 CF21     		movs	r1, #207
 5307 1846 4DF22720 		movw	r0, #53799
 5308 184a FFF7FEFF 		bl	LCD_WriteReg
 5309              	.LVL1051:
1332:Src/bsp_tftlcd.c **** 		LCD_WriteReg(0xD229,0xDE);
 5310              		.loc 1 1332 0
 5311 184e 0221     		movs	r1, #2
 5312 1850 4DF22820 		movw	r0, #53800
 5313 1854 FFF7FEFF 		bl	LCD_WriteReg
 5314              	.LVL1052:
1333:Src/bsp_tftlcd.c **** 		LCD_WriteReg(0xD22A,0x02);
 5315              		.loc 1 1333 0
 5316 1858 DE21     		movs	r1, #222
 5317 185a 4DF22920 		movw	r0, #53801
 5318 185e FFF7FEFF 		bl	LCD_WriteReg
 5319              	.LVL1053:
1334:Src/bsp_tftlcd.c **** 		LCD_WriteReg(0xD22B,0xF2);
 5320              		.loc 1 1334 0
 5321 1862 0221     		movs	r1, #2
 5322 1864 4DF22A20 		movw	r0, #53802
 5323 1868 FFF7FEFF 		bl	LCD_WriteReg
 5324              	.LVL1054:
1335:Src/bsp_tftlcd.c **** 		LCD_WriteReg(0xD22C,0x02);
 5325              		.loc 1 1335 0
 5326 186c F221     		movs	r1, #242
 5327 186e 4DF22B20 		movw	r0, #53803
 5328 1872 FFF7FEFF 		bl	LCD_WriteReg
 5329              	.LVL1055:
1336:Src/bsp_tftlcd.c **** 		LCD_WriteReg(0xD22D,0xFE);
 5330              		.loc 1 1336 0
 5331 1876 0221     		movs	r1, #2
 5332 1878 4DF22C20 		movw	r0, #53804
 5333 187c FFF7FEFF 		bl	LCD_WriteReg
 5334              	.LVL1056:
1337:Src/bsp_tftlcd.c **** 		LCD_WriteReg(0xD22E,0x03);
 5335              		.loc 1 1337 0
ARM GAS  /tmp/cco7znPM.s 			page 139


 5336 1880 FE21     		movs	r1, #254
 5337 1882 4DF22D20 		movw	r0, #53805
 5338 1886 FFF7FEFF 		bl	LCD_WriteReg
 5339              	.LVL1057:
1338:Src/bsp_tftlcd.c **** 		LCD_WriteReg(0xD22F,0x10);
 5340              		.loc 1 1338 0
 5341 188a 0321     		movs	r1, #3
 5342 188c 4DF22E20 		movw	r0, #53806
 5343 1890 FFF7FEFF 		bl	LCD_WriteReg
 5344              	.LVL1058:
1339:Src/bsp_tftlcd.c **** 		LCD_WriteReg(0xD230,0x03);
 5345              		.loc 1 1339 0
 5346 1894 1021     		movs	r1, #16
 5347 1896 4DF22F20 		movw	r0, #53807
 5348 189a FFF7FEFF 		bl	LCD_WriteReg
 5349              	.LVL1059:
1340:Src/bsp_tftlcd.c **** 		LCD_WriteReg(0xD231,0x33);
 5350              		.loc 1 1340 0
 5351 189e 0321     		movs	r1, #3
 5352 18a0 4DF23020 		movw	r0, #53808
 5353 18a4 FFF7FEFF 		bl	LCD_WriteReg
 5354              	.LVL1060:
1341:Src/bsp_tftlcd.c **** 		LCD_WriteReg(0xD232,0x03);
 5355              		.loc 1 1341 0
 5356 18a8 3321     		movs	r1, #51
 5357 18aa 4DF23120 		movw	r0, #53809
 5358 18ae FFF7FEFF 		bl	LCD_WriteReg
 5359              	.LVL1061:
1342:Src/bsp_tftlcd.c **** 		LCD_WriteReg(0xD233,0x6D);
 5360              		.loc 1 1342 0
 5361 18b2 0321     		movs	r1, #3
 5362 18b4 4DF23220 		movw	r0, #53810
 5363 18b8 FFF7FEFF 		bl	LCD_WriteReg
 5364              	.LVL1062:
1343:Src/bsp_tftlcd.c **** 		LCD_WriteReg(0xD300,0x00);
 5365              		.loc 1 1343 0
 5366 18bc 6D21     		movs	r1, #109
 5367 18be 4DF23320 		movw	r0, #53811
 5368 18c2 FFF7FEFF 		bl	LCD_WriteReg
 5369              	.LVL1063:
1344:Src/bsp_tftlcd.c **** 		LCD_WriteReg(0xD301,0x33);
 5370              		.loc 1 1344 0
 5371 18c6 0021     		movs	r1, #0
 5372 18c8 4FF45340 		mov	r0, #54016
 5373 18cc FFF7FEFF 		bl	LCD_WriteReg
 5374              	.LVL1064:
1345:Src/bsp_tftlcd.c **** 		LCD_WriteReg(0xD302,0x00);
 5375              		.loc 1 1345 0
 5376 18d0 3321     		movs	r1, #51
 5377 18d2 4DF20130 		movw	r0, #54017
 5378 18d6 FFF7FEFF 		bl	LCD_WriteReg
 5379              	.LVL1065:
1346:Src/bsp_tftlcd.c **** 		LCD_WriteReg(0xD303,0x34);
 5380              		.loc 1 1346 0
 5381 18da 0021     		movs	r1, #0
 5382 18dc 4DF20230 		movw	r0, #54018
 5383 18e0 FFF7FEFF 		bl	LCD_WriteReg
ARM GAS  /tmp/cco7znPM.s 			page 140


 5384              	.LVL1066:
1347:Src/bsp_tftlcd.c **** 		LCD_WriteReg(0xD304,0x00);
 5385              		.loc 1 1347 0
 5386 18e4 3421     		movs	r1, #52
 5387 18e6 4DF20330 		movw	r0, #54019
 5388 18ea FFF7FEFF 		bl	LCD_WriteReg
 5389              	.LVL1067:
1348:Src/bsp_tftlcd.c **** 		LCD_WriteReg(0xD305,0x3A);
 5390              		.loc 1 1348 0
 5391 18ee 0021     		movs	r1, #0
 5392 18f0 4DF20430 		movw	r0, #54020
 5393 18f4 FFF7FEFF 		bl	LCD_WriteReg
 5394              	.LVL1068:
1349:Src/bsp_tftlcd.c **** 		LCD_WriteReg(0xD306,0x00);
 5395              		.loc 1 1349 0
 5396 18f8 3A21     		movs	r1, #58
 5397 18fa 4DF20530 		movw	r0, #54021
 5398 18fe FFF7FEFF 		bl	LCD_WriteReg
 5399              	.LVL1069:
1350:Src/bsp_tftlcd.c **** 		LCD_WriteReg(0xD307,0x4A);
 5400              		.loc 1 1350 0
 5401 1902 0021     		movs	r1, #0
 5402 1904 4DF20630 		movw	r0, #54022
 5403 1908 FFF7FEFF 		bl	LCD_WriteReg
 5404              	.LVL1070:
1351:Src/bsp_tftlcd.c **** 		LCD_WriteReg(0xD308,0x00);
 5405              		.loc 1 1351 0
 5406 190c 4A21     		movs	r1, #74
 5407 190e 4DF20730 		movw	r0, #54023
 5408 1912 FFF7FEFF 		bl	LCD_WriteReg
 5409              	.LVL1071:
1352:Src/bsp_tftlcd.c **** 		LCD_WriteReg(0xD309,0x5C);
 5410              		.loc 1 1352 0
 5411 1916 0021     		movs	r1, #0
 5412 1918 4DF20830 		movw	r0, #54024
 5413 191c FFF7FEFF 		bl	LCD_WriteReg
 5414              	.LVL1072:
1353:Src/bsp_tftlcd.c **** 		LCD_WriteReg(0xD30A,0x00);
 5415              		.loc 1 1353 0
 5416 1920 5C21     		movs	r1, #92
 5417 1922 4DF20930 		movw	r0, #54025
 5418 1926 FFF7FEFF 		bl	LCD_WriteReg
 5419              	.LVL1073:
1354:Src/bsp_tftlcd.c **** 
 5420              		.loc 1 1354 0
 5421 192a 0021     		movs	r1, #0
 5422 192c 4DF20A30 		movw	r0, #54026
 5423 1930 FFF7FEFF 		bl	LCD_WriteReg
 5424              	.LVL1074:
1356:Src/bsp_tftlcd.c **** 		LCD_WriteReg(0xD30C,0x00);
 5425              		.loc 1 1356 0
 5426 1934 8121     		movs	r1, #129
 5427 1936 4DF20B30 		movw	r0, #54027
 5428 193a FFF7FEFF 		bl	LCD_WriteReg
 5429              	.LVL1075:
1357:Src/bsp_tftlcd.c **** 		LCD_WriteReg(0xD30D,0xA6);
 5430              		.loc 1 1357 0
ARM GAS  /tmp/cco7znPM.s 			page 141


 5431 193e 0021     		movs	r1, #0
 5432 1940 4DF20C30 		movw	r0, #54028
 5433 1944 FFF7FEFF 		bl	LCD_WriteReg
 5434              	.LVL1076:
1358:Src/bsp_tftlcd.c **** 		LCD_WriteReg(0xD30E,0x00);
 5435              		.loc 1 1358 0
 5436 1948 A621     		movs	r1, #166
 5437 194a 4DF20D30 		movw	r0, #54029
 5438 194e FFF7FEFF 		bl	LCD_WriteReg
 5439              	.LVL1077:
1359:Src/bsp_tftlcd.c **** 		LCD_WriteReg(0xD30F,0xE5);
 5440              		.loc 1 1359 0
 5441 1952 0021     		movs	r1, #0
 5442 1954 4DF20E30 		movw	r0, #54030
 5443 1958 FFF7FEFF 		bl	LCD_WriteReg
 5444              	.LVL1078:
1360:Src/bsp_tftlcd.c **** 		LCD_WriteReg(0xD310,0x01);
 5445              		.loc 1 1360 0
 5446 195c E521     		movs	r1, #229
 5447 195e 4DF20F30 		movw	r0, #54031
 5448 1962 FFF7FEFF 		bl	LCD_WriteReg
 5449              	.LVL1079:
1361:Src/bsp_tftlcd.c **** 		LCD_WriteReg(0xD311,0x13);
 5450              		.loc 1 1361 0
 5451 1966 0121     		movs	r1, #1
 5452 1968 4DF21030 		movw	r0, #54032
 5453 196c FFF7FEFF 		bl	LCD_WriteReg
 5454              	.LVL1080:
1362:Src/bsp_tftlcd.c **** 		LCD_WriteReg(0xD312,0x01);
 5455              		.loc 1 1362 0
 5456 1970 1321     		movs	r1, #19
 5457 1972 4DF21130 		movw	r0, #54033
 5458 1976 FFF7FEFF 		bl	LCD_WriteReg
 5459              	.LVL1081:
1363:Src/bsp_tftlcd.c **** 		LCD_WriteReg(0xD313,0x54);
 5460              		.loc 1 1363 0
 5461 197a 0121     		movs	r1, #1
 5462 197c 4DF21230 		movw	r0, #54034
 5463 1980 FFF7FEFF 		bl	LCD_WriteReg
 5464              	.LVL1082:
1364:Src/bsp_tftlcd.c **** 		LCD_WriteReg(0xD314,0x01);
 5465              		.loc 1 1364 0
 5466 1984 5421     		movs	r1, #84
 5467 1986 4DF21330 		movw	r0, #54035
 5468 198a FFF7FEFF 		bl	LCD_WriteReg
 5469              	.LVL1083:
1365:Src/bsp_tftlcd.c **** 		LCD_WriteReg(0xD315,0x82);
 5470              		.loc 1 1365 0
 5471 198e 0121     		movs	r1, #1
 5472 1990 4DF21430 		movw	r0, #54036
 5473 1994 FFF7FEFF 		bl	LCD_WriteReg
 5474              	.LVL1084:
1366:Src/bsp_tftlcd.c **** 		LCD_WriteReg(0xD316,0x01);
 5475              		.loc 1 1366 0
 5476 1998 8221     		movs	r1, #130
 5477 199a 4DF21530 		movw	r0, #54037
 5478 199e FFF7FEFF 		bl	LCD_WriteReg
ARM GAS  /tmp/cco7znPM.s 			page 142


 5479              	.LVL1085:
1367:Src/bsp_tftlcd.c **** 		LCD_WriteReg(0xD317,0xCA);
 5480              		.loc 1 1367 0
 5481 19a2 0121     		movs	r1, #1
 5482 19a4 4DF21630 		movw	r0, #54038
 5483 19a8 FFF7FEFF 		bl	LCD_WriteReg
 5484              	.LVL1086:
1368:Src/bsp_tftlcd.c **** 		LCD_WriteReg(0xD318,0x02);
 5485              		.loc 1 1368 0
 5486 19ac CA21     		movs	r1, #202
 5487 19ae 4DF21730 		movw	r0, #54039
 5488 19b2 FFF7FEFF 		bl	LCD_WriteReg
 5489              	.LVL1087:
1369:Src/bsp_tftlcd.c **** 		LCD_WriteReg(0xD319,0x00);
 5490              		.loc 1 1369 0
 5491 19b6 0221     		movs	r1, #2
 5492 19b8 4DF21830 		movw	r0, #54040
 5493 19bc FFF7FEFF 		bl	LCD_WriteReg
 5494              	.LVL1088:
1370:Src/bsp_tftlcd.c **** 		LCD_WriteReg(0xD31A,0x02);
 5495              		.loc 1 1370 0
 5496 19c0 0021     		movs	r1, #0
 5497 19c2 4DF21930 		movw	r0, #54041
 5498 19c6 FFF7FEFF 		bl	LCD_WriteReg
 5499              	.LVL1089:
1371:Src/bsp_tftlcd.c **** 		LCD_WriteReg(0xD31B,0x01);
 5500              		.loc 1 1371 0
 5501 19ca 0221     		movs	r1, #2
 5502 19cc 4DF21A30 		movw	r0, #54042
 5503 19d0 FFF7FEFF 		bl	LCD_WriteReg
 5504              	.LVL1090:
1372:Src/bsp_tftlcd.c **** 		LCD_WriteReg(0xD31C,0x02);
 5505              		.loc 1 1372 0
 5506 19d4 0121     		movs	r1, #1
 5507 19d6 4DF21B30 		movw	r0, #54043
 5508 19da FFF7FEFF 		bl	LCD_WriteReg
 5509              	.LVL1091:
1373:Src/bsp_tftlcd.c **** 		LCD_WriteReg(0xD31D,0x34);
 5510              		.loc 1 1373 0
 5511 19de 0221     		movs	r1, #2
 5512 19e0 4DF21C30 		movw	r0, #54044
 5513 19e4 FFF7FEFF 		bl	LCD_WriteReg
 5514              	.LVL1092:
1374:Src/bsp_tftlcd.c **** 		LCD_WriteReg(0xD31E,0x02);
 5515              		.loc 1 1374 0
 5516 19e8 3421     		movs	r1, #52
 5517 19ea 4DF21D30 		movw	r0, #54045
 5518 19ee FFF7FEFF 		bl	LCD_WriteReg
 5519              	.LVL1093:
1375:Src/bsp_tftlcd.c **** 		LCD_WriteReg(0xD31F,0x67);
 5520              		.loc 1 1375 0
 5521 19f2 0221     		movs	r1, #2
 5522 19f4 4DF21E30 		movw	r0, #54046
 5523 19f8 FFF7FEFF 		bl	LCD_WriteReg
 5524              	.LVL1094:
1376:Src/bsp_tftlcd.c **** 		LCD_WriteReg(0xD320,0x02);
 5525              		.loc 1 1376 0
ARM GAS  /tmp/cco7znPM.s 			page 143


 5526 19fc 6721     		movs	r1, #103
 5527 19fe 4DF21F30 		movw	r0, #54047
 5528 1a02 FFF7FEFF 		bl	LCD_WriteReg
 5529              	.LVL1095:
1377:Src/bsp_tftlcd.c **** 		LCD_WriteReg(0xD321,0x84);
 5530              		.loc 1 1377 0
 5531 1a06 0221     		movs	r1, #2
 5532 1a08 4DF22030 		movw	r0, #54048
 5533 1a0c FFF7FEFF 		bl	LCD_WriteReg
 5534              	.LVL1096:
1378:Src/bsp_tftlcd.c **** 		LCD_WriteReg(0xD322,0x02);
 5535              		.loc 1 1378 0
 5536 1a10 8421     		movs	r1, #132
 5537 1a12 4DF22130 		movw	r0, #54049
 5538 1a16 FFF7FEFF 		bl	LCD_WriteReg
 5539              	.LVL1097:
1379:Src/bsp_tftlcd.c **** 		LCD_WriteReg(0xD323,0xA4);
 5540              		.loc 1 1379 0
 5541 1a1a 0221     		movs	r1, #2
 5542 1a1c 4DF22230 		movw	r0, #54050
 5543 1a20 FFF7FEFF 		bl	LCD_WriteReg
 5544              	.LVL1098:
1380:Src/bsp_tftlcd.c **** 		LCD_WriteReg(0xD324,0x02);
 5545              		.loc 1 1380 0
 5546 1a24 A421     		movs	r1, #164
 5547 1a26 4DF22330 		movw	r0, #54051
 5548 1a2a FFF7FEFF 		bl	LCD_WriteReg
 5549              	.LVL1099:
1381:Src/bsp_tftlcd.c **** 		LCD_WriteReg(0xD325,0xB7);
 5550              		.loc 1 1381 0
 5551 1a2e 0221     		movs	r1, #2
 5552 1a30 4DF22430 		movw	r0, #54052
 5553 1a34 FFF7FEFF 		bl	LCD_WriteReg
 5554              	.LVL1100:
1382:Src/bsp_tftlcd.c **** 		LCD_WriteReg(0xD326,0x02);
 5555              		.loc 1 1382 0
 5556 1a38 B721     		movs	r1, #183
 5557 1a3a 4DF22530 		movw	r0, #54053
 5558 1a3e FFF7FEFF 		bl	LCD_WriteReg
 5559              	.LVL1101:
1383:Src/bsp_tftlcd.c **** 		LCD_WriteReg(0xD327,0xCF);
 5560              		.loc 1 1383 0
 5561 1a42 0221     		movs	r1, #2
 5562 1a44 4DF22630 		movw	r0, #54054
 5563 1a48 FFF7FEFF 		bl	LCD_WriteReg
 5564              	.LVL1102:
1384:Src/bsp_tftlcd.c **** 		LCD_WriteReg(0xD328,0x02);
 5565              		.loc 1 1384 0
 5566 1a4c CF21     		movs	r1, #207
 5567 1a4e 4DF22730 		movw	r0, #54055
 5568 1a52 FFF7FEFF 		bl	LCD_WriteReg
 5569              	.LVL1103:
1385:Src/bsp_tftlcd.c **** 		LCD_WriteReg(0xD329,0xDE);
 5570              		.loc 1 1385 0
 5571 1a56 0221     		movs	r1, #2
 5572 1a58 4DF22830 		movw	r0, #54056
 5573 1a5c FFF7FEFF 		bl	LCD_WriteReg
ARM GAS  /tmp/cco7znPM.s 			page 144


 5574              	.LVL1104:
1386:Src/bsp_tftlcd.c **** 		LCD_WriteReg(0xD32A,0x02);
 5575              		.loc 1 1386 0
 5576 1a60 DE21     		movs	r1, #222
 5577 1a62 4DF22930 		movw	r0, #54057
 5578 1a66 FFF7FEFF 		bl	LCD_WriteReg
 5579              	.LVL1105:
1387:Src/bsp_tftlcd.c **** 		LCD_WriteReg(0xD32B,0xF2);
 5580              		.loc 1 1387 0
 5581 1a6a 0221     		movs	r1, #2
 5582 1a6c 4DF22A30 		movw	r0, #54058
 5583 1a70 FFF7FEFF 		bl	LCD_WriteReg
 5584              	.LVL1106:
1388:Src/bsp_tftlcd.c **** 		LCD_WriteReg(0xD32C,0x02);
 5585              		.loc 1 1388 0
 5586 1a74 F221     		movs	r1, #242
 5587 1a76 4DF22B30 		movw	r0, #54059
 5588 1a7a FFF7FEFF 		bl	LCD_WriteReg
 5589              	.LVL1107:
1389:Src/bsp_tftlcd.c **** 		LCD_WriteReg(0xD32D,0xFE);
 5590              		.loc 1 1389 0
 5591 1a7e 0221     		movs	r1, #2
 5592 1a80 4DF22C30 		movw	r0, #54060
 5593 1a84 FFF7FEFF 		bl	LCD_WriteReg
 5594              	.LVL1108:
1390:Src/bsp_tftlcd.c **** 		LCD_WriteReg(0xD32E,0x03);
 5595              		.loc 1 1390 0
 5596 1a88 FE21     		movs	r1, #254
 5597 1a8a 4DF22D30 		movw	r0, #54061
 5598 1a8e FFF7FEFF 		bl	LCD_WriteReg
 5599              	.LVL1109:
1391:Src/bsp_tftlcd.c **** 		LCD_WriteReg(0xD32F,0x10);
 5600              		.loc 1 1391 0
 5601 1a92 0321     		movs	r1, #3
 5602 1a94 4DF22E30 		movw	r0, #54062
 5603 1a98 FFF7FEFF 		bl	LCD_WriteReg
 5604              	.LVL1110:
1392:Src/bsp_tftlcd.c **** 		LCD_WriteReg(0xD330,0x03);
 5605              		.loc 1 1392 0
 5606 1a9c 1021     		movs	r1, #16
 5607 1a9e 4DF22F30 		movw	r0, #54063
 5608 1aa2 FFF7FEFF 		bl	LCD_WriteReg
 5609              	.LVL1111:
1393:Src/bsp_tftlcd.c **** 		LCD_WriteReg(0xD331,0x33);
 5610              		.loc 1 1393 0
 5611 1aa6 0321     		movs	r1, #3
 5612 1aa8 4DF23030 		movw	r0, #54064
 5613 1aac FFF7FEFF 		bl	LCD_WriteReg
 5614              	.LVL1112:
1394:Src/bsp_tftlcd.c **** 		LCD_WriteReg(0xD332,0x03);
 5615              		.loc 1 1394 0
 5616 1ab0 3321     		movs	r1, #51
 5617 1ab2 4DF23130 		movw	r0, #54065
 5618 1ab6 FFF7FEFF 		bl	LCD_WriteReg
 5619              	.LVL1113:
1395:Src/bsp_tftlcd.c **** 		LCD_WriteReg(0xD333,0x6D);
 5620              		.loc 1 1395 0
ARM GAS  /tmp/cco7znPM.s 			page 145


 5621 1aba 0321     		movs	r1, #3
 5622 1abc 4DF23230 		movw	r0, #54066
 5623 1ac0 FFF7FEFF 		bl	LCD_WriteReg
 5624              	.LVL1114:
1396:Src/bsp_tftlcd.c **** 		LCD_WriteReg(0xD400,0x00);
 5625              		.loc 1 1396 0
 5626 1ac4 6D21     		movs	r1, #109
 5627 1ac6 4DF23330 		movw	r0, #54067
 5628 1aca FFF7FEFF 		bl	LCD_WriteReg
 5629              	.LVL1115:
1397:Src/bsp_tftlcd.c **** 		LCD_WriteReg(0xD401,0x33);
 5630              		.loc 1 1397 0
 5631 1ace 0021     		movs	r1, #0
 5632 1ad0 4FF45440 		mov	r0, #54272
 5633 1ad4 FFF7FEFF 		bl	LCD_WriteReg
 5634              	.LVL1116:
1398:Src/bsp_tftlcd.c **** 		LCD_WriteReg(0xD402,0x00);
 5635              		.loc 1 1398 0
 5636 1ad8 3321     		movs	r1, #51
 5637 1ada 4DF20140 		movw	r0, #54273
 5638 1ade FFF7FEFF 		bl	LCD_WriteReg
 5639              	.LVL1117:
1399:Src/bsp_tftlcd.c **** 		LCD_WriteReg(0xD403,0x34);
 5640              		.loc 1 1399 0
 5641 1ae2 0021     		movs	r1, #0
 5642 1ae4 4DF20240 		movw	r0, #54274
 5643 1ae8 FFF7FEFF 		bl	LCD_WriteReg
 5644              	.LVL1118:
1400:Src/bsp_tftlcd.c **** 		LCD_WriteReg(0xD404,0x00);
 5645              		.loc 1 1400 0
 5646 1aec 3421     		movs	r1, #52
 5647 1aee 4DF20340 		movw	r0, #54275
 5648 1af2 FFF7FEFF 		bl	LCD_WriteReg
 5649              	.LVL1119:
1401:Src/bsp_tftlcd.c **** 		LCD_WriteReg(0xD405,0x3A);
 5650              		.loc 1 1401 0
 5651 1af6 0021     		movs	r1, #0
 5652 1af8 4DF20440 		movw	r0, #54276
 5653 1afc FFF7FEFF 		bl	LCD_WriteReg
 5654              	.LVL1120:
1402:Src/bsp_tftlcd.c **** 		LCD_WriteReg(0xD406,0x00);
 5655              		.loc 1 1402 0
 5656 1b00 3A21     		movs	r1, #58
 5657 1b02 4DF20540 		movw	r0, #54277
 5658 1b06 FFF7FEFF 		bl	LCD_WriteReg
 5659              	.LVL1121:
1403:Src/bsp_tftlcd.c **** 		LCD_WriteReg(0xD407,0x4A);
 5660              		.loc 1 1403 0
 5661 1b0a 0021     		movs	r1, #0
 5662 1b0c 4DF20640 		movw	r0, #54278
 5663 1b10 FFF7FEFF 		bl	LCD_WriteReg
 5664              	.LVL1122:
1404:Src/bsp_tftlcd.c **** 		LCD_WriteReg(0xD408,0x00);
 5665              		.loc 1 1404 0
 5666 1b14 4A21     		movs	r1, #74
 5667 1b16 4DF20740 		movw	r0, #54279
 5668 1b1a FFF7FEFF 		bl	LCD_WriteReg
ARM GAS  /tmp/cco7znPM.s 			page 146


 5669              	.LVL1123:
1405:Src/bsp_tftlcd.c **** 		LCD_WriteReg(0xD409,0x5C);
 5670              		.loc 1 1405 0
 5671 1b1e 0021     		movs	r1, #0
 5672 1b20 4DF20840 		movw	r0, #54280
 5673 1b24 FFF7FEFF 		bl	LCD_WriteReg
 5674              	.LVL1124:
1406:Src/bsp_tftlcd.c **** 		LCD_WriteReg(0xD40A,0x00);
 5675              		.loc 1 1406 0
 5676 1b28 5C21     		movs	r1, #92
 5677 1b2a 4DF20940 		movw	r0, #54281
 5678 1b2e FFF7FEFF 		bl	LCD_WriteReg
 5679              	.LVL1125:
1407:Src/bsp_tftlcd.c **** 		LCD_WriteReg(0xD40B,0x81);
 5680              		.loc 1 1407 0
 5681 1b32 0021     		movs	r1, #0
 5682 1b34 4DF20A40 		movw	r0, #54282
 5683 1b38 FFF7FEFF 		bl	LCD_WriteReg
 5684              	.LVL1126:
1408:Src/bsp_tftlcd.c **** 
 5685              		.loc 1 1408 0
 5686 1b3c 8121     		movs	r1, #129
 5687 1b3e 4DF20B40 		movw	r0, #54283
 5688 1b42 FFF7FEFF 		bl	LCD_WriteReg
 5689              	.LVL1127:
1410:Src/bsp_tftlcd.c **** 		LCD_WriteReg(0xD40D,0xA6);
 5690              		.loc 1 1410 0
 5691 1b46 0021     		movs	r1, #0
 5692 1b48 4DF20C40 		movw	r0, #54284
 5693 1b4c FFF7FEFF 		bl	LCD_WriteReg
 5694              	.LVL1128:
1411:Src/bsp_tftlcd.c **** 		LCD_WriteReg(0xD40E,0x00);
 5695              		.loc 1 1411 0
 5696 1b50 A621     		movs	r1, #166
 5697 1b52 4DF20D40 		movw	r0, #54285
 5698 1b56 FFF7FEFF 		bl	LCD_WriteReg
 5699              	.LVL1129:
1412:Src/bsp_tftlcd.c **** 		LCD_WriteReg(0xD40F,0xE5);
 5700              		.loc 1 1412 0
 5701 1b5a 0021     		movs	r1, #0
 5702 1b5c 4DF20E40 		movw	r0, #54286
 5703 1b60 FFF7FEFF 		bl	LCD_WriteReg
 5704              	.LVL1130:
1413:Src/bsp_tftlcd.c **** 		LCD_WriteReg(0xD410,0x01);
 5705              		.loc 1 1413 0
 5706 1b64 E521     		movs	r1, #229
 5707 1b66 4DF20F40 		movw	r0, #54287
 5708 1b6a FFF7FEFF 		bl	LCD_WriteReg
 5709              	.LVL1131:
1414:Src/bsp_tftlcd.c **** 		LCD_WriteReg(0xD411,0x13);
 5710              		.loc 1 1414 0
 5711 1b6e 0121     		movs	r1, #1
 5712 1b70 4DF21040 		movw	r0, #54288
 5713 1b74 FFF7FEFF 		bl	LCD_WriteReg
 5714              	.LVL1132:
1415:Src/bsp_tftlcd.c **** 		LCD_WriteReg(0xD412,0x01);
 5715              		.loc 1 1415 0
ARM GAS  /tmp/cco7znPM.s 			page 147


 5716 1b78 1321     		movs	r1, #19
 5717 1b7a 4DF21140 		movw	r0, #54289
 5718 1b7e FFF7FEFF 		bl	LCD_WriteReg
 5719              	.LVL1133:
1416:Src/bsp_tftlcd.c **** 		LCD_WriteReg(0xD413,0x54);
 5720              		.loc 1 1416 0
 5721 1b82 0121     		movs	r1, #1
 5722 1b84 4DF21240 		movw	r0, #54290
 5723 1b88 FFF7FEFF 		bl	LCD_WriteReg
 5724              	.LVL1134:
1417:Src/bsp_tftlcd.c **** 		LCD_WriteReg(0xD414,0x01);
 5725              		.loc 1 1417 0
 5726 1b8c 5421     		movs	r1, #84
 5727 1b8e 4DF21340 		movw	r0, #54291
 5728 1b92 FFF7FEFF 		bl	LCD_WriteReg
 5729              	.LVL1135:
1418:Src/bsp_tftlcd.c **** 		LCD_WriteReg(0xD415,0x82);
 5730              		.loc 1 1418 0
 5731 1b96 0121     		movs	r1, #1
 5732 1b98 4DF21440 		movw	r0, #54292
 5733 1b9c FFF7FEFF 		bl	LCD_WriteReg
 5734              	.LVL1136:
1419:Src/bsp_tftlcd.c **** 		LCD_WriteReg(0xD416,0x01);
 5735              		.loc 1 1419 0
 5736 1ba0 8221     		movs	r1, #130
 5737 1ba2 4DF21540 		movw	r0, #54293
 5738 1ba6 FFF7FEFF 		bl	LCD_WriteReg
 5739              	.LVL1137:
1420:Src/bsp_tftlcd.c **** 		LCD_WriteReg(0xD417,0xCA);
 5740              		.loc 1 1420 0
 5741 1baa 0121     		movs	r1, #1
 5742 1bac 4DF21640 		movw	r0, #54294
 5743 1bb0 FFF7FEFF 		bl	LCD_WriteReg
 5744              	.LVL1138:
1421:Src/bsp_tftlcd.c **** 		LCD_WriteReg(0xD418,0x02);
 5745              		.loc 1 1421 0
 5746 1bb4 CA21     		movs	r1, #202
 5747 1bb6 4DF21740 		movw	r0, #54295
 5748 1bba FFF7FEFF 		bl	LCD_WriteReg
 5749              	.LVL1139:
1422:Src/bsp_tftlcd.c **** 		LCD_WriteReg(0xD419,0x00);
 5750              		.loc 1 1422 0
 5751 1bbe 0221     		movs	r1, #2
 5752 1bc0 4DF21840 		movw	r0, #54296
 5753 1bc4 FFF7FEFF 		bl	LCD_WriteReg
 5754              	.LVL1140:
1423:Src/bsp_tftlcd.c **** 		LCD_WriteReg(0xD41A,0x02);
 5755              		.loc 1 1423 0
 5756 1bc8 0021     		movs	r1, #0
 5757 1bca 4DF21940 		movw	r0, #54297
 5758 1bce FFF7FEFF 		bl	LCD_WriteReg
 5759              	.LVL1141:
1424:Src/bsp_tftlcd.c **** 		LCD_WriteReg(0xD41B,0x01);
 5760              		.loc 1 1424 0
 5761 1bd2 0221     		movs	r1, #2
 5762 1bd4 4DF21A40 		movw	r0, #54298
 5763 1bd8 FFF7FEFF 		bl	LCD_WriteReg
ARM GAS  /tmp/cco7znPM.s 			page 148


 5764              	.LVL1142:
1425:Src/bsp_tftlcd.c **** 		LCD_WriteReg(0xD41C,0x02);
 5765              		.loc 1 1425 0
 5766 1bdc 0121     		movs	r1, #1
 5767 1bde 4DF21B40 		movw	r0, #54299
 5768 1be2 FFF7FEFF 		bl	LCD_WriteReg
 5769              	.LVL1143:
1426:Src/bsp_tftlcd.c **** 		LCD_WriteReg(0xD41D,0x34);
 5770              		.loc 1 1426 0
 5771 1be6 0221     		movs	r1, #2
 5772 1be8 4DF21C40 		movw	r0, #54300
 5773 1bec FFF7FEFF 		bl	LCD_WriteReg
 5774              	.LVL1144:
1427:Src/bsp_tftlcd.c **** 		LCD_WriteReg(0xD41E,0x02);
 5775              		.loc 1 1427 0
 5776 1bf0 3421     		movs	r1, #52
 5777 1bf2 4DF21D40 		movw	r0, #54301
 5778 1bf6 FFF7FEFF 		bl	LCD_WriteReg
 5779              	.LVL1145:
1428:Src/bsp_tftlcd.c **** 		LCD_WriteReg(0xD41F,0x67);
 5780              		.loc 1 1428 0
 5781 1bfa 0221     		movs	r1, #2
 5782 1bfc 4DF21E40 		movw	r0, #54302
 5783 1c00 FFF7FEFF 		bl	LCD_WriteReg
 5784              	.LVL1146:
1429:Src/bsp_tftlcd.c **** 		LCD_WriteReg(0xD420,0x02);
 5785              		.loc 1 1429 0
 5786 1c04 6721     		movs	r1, #103
 5787 1c06 4DF21F40 		movw	r0, #54303
 5788 1c0a FFF7FEFF 		bl	LCD_WriteReg
 5789              	.LVL1147:
1430:Src/bsp_tftlcd.c **** 		LCD_WriteReg(0xD421,0x84);
 5790              		.loc 1 1430 0
 5791 1c0e 0221     		movs	r1, #2
 5792 1c10 4DF22040 		movw	r0, #54304
 5793 1c14 FFF7FEFF 		bl	LCD_WriteReg
 5794              	.LVL1148:
1431:Src/bsp_tftlcd.c **** 		LCD_WriteReg(0xD422,0x02);
 5795              		.loc 1 1431 0
 5796 1c18 8421     		movs	r1, #132
 5797 1c1a 4DF22140 		movw	r0, #54305
 5798 1c1e FFF7FEFF 		bl	LCD_WriteReg
 5799              	.LVL1149:
1432:Src/bsp_tftlcd.c **** 		LCD_WriteReg(0xD423,0xA4);
 5800              		.loc 1 1432 0
 5801 1c22 0221     		movs	r1, #2
 5802 1c24 4DF22240 		movw	r0, #54306
 5803 1c28 FFF7FEFF 		bl	LCD_WriteReg
 5804              	.LVL1150:
1433:Src/bsp_tftlcd.c **** 		LCD_WriteReg(0xD424,0x02);
 5805              		.loc 1 1433 0
 5806 1c2c A421     		movs	r1, #164
 5807 1c2e 4DF22340 		movw	r0, #54307
 5808 1c32 FFF7FEFF 		bl	LCD_WriteReg
 5809              	.LVL1151:
1434:Src/bsp_tftlcd.c **** 		LCD_WriteReg(0xD425,0xB7);
 5810              		.loc 1 1434 0
ARM GAS  /tmp/cco7znPM.s 			page 149


 5811 1c36 0221     		movs	r1, #2
 5812 1c38 4DF22440 		movw	r0, #54308
 5813 1c3c FFF7FEFF 		bl	LCD_WriteReg
 5814              	.LVL1152:
1435:Src/bsp_tftlcd.c **** 		LCD_WriteReg(0xD426,0x02);
 5815              		.loc 1 1435 0
 5816 1c40 B721     		movs	r1, #183
 5817 1c42 4DF22540 		movw	r0, #54309
 5818 1c46 FFF7FEFF 		bl	LCD_WriteReg
 5819              	.LVL1153:
1436:Src/bsp_tftlcd.c **** 		LCD_WriteReg(0xD427,0xCF);
 5820              		.loc 1 1436 0
 5821 1c4a 0221     		movs	r1, #2
 5822 1c4c 4DF22640 		movw	r0, #54310
 5823 1c50 FFF7FEFF 		bl	LCD_WriteReg
 5824              	.LVL1154:
1437:Src/bsp_tftlcd.c **** 		LCD_WriteReg(0xD428,0x02);
 5825              		.loc 1 1437 0
 5826 1c54 CF21     		movs	r1, #207
 5827 1c56 4DF22740 		movw	r0, #54311
 5828 1c5a FFF7FEFF 		bl	LCD_WriteReg
 5829              	.LVL1155:
1438:Src/bsp_tftlcd.c **** 		LCD_WriteReg(0xD429,0xDE);
 5830              		.loc 1 1438 0
 5831 1c5e 0221     		movs	r1, #2
 5832 1c60 4DF22840 		movw	r0, #54312
 5833 1c64 FFF7FEFF 		bl	LCD_WriteReg
 5834              	.LVL1156:
1439:Src/bsp_tftlcd.c **** 		LCD_WriteReg(0xD42A,0x02);
 5835              		.loc 1 1439 0
 5836 1c68 DE21     		movs	r1, #222
 5837 1c6a 4DF22940 		movw	r0, #54313
 5838 1c6e FFF7FEFF 		bl	LCD_WriteReg
 5839              	.LVL1157:
1440:Src/bsp_tftlcd.c **** 		LCD_WriteReg(0xD42B,0xF2);
 5840              		.loc 1 1440 0
 5841 1c72 0221     		movs	r1, #2
 5842 1c74 4DF22A40 		movw	r0, #54314
 5843 1c78 FFF7FEFF 		bl	LCD_WriteReg
 5844              	.LVL1158:
1441:Src/bsp_tftlcd.c **** 		LCD_WriteReg(0xD42C,0x02);
 5845              		.loc 1 1441 0
 5846 1c7c F221     		movs	r1, #242
 5847 1c7e 4DF22B40 		movw	r0, #54315
 5848 1c82 FFF7FEFF 		bl	LCD_WriteReg
 5849              	.LVL1159:
1442:Src/bsp_tftlcd.c **** 		LCD_WriteReg(0xD42D,0xFE);
 5850              		.loc 1 1442 0
 5851 1c86 0221     		movs	r1, #2
 5852 1c88 4DF22C40 		movw	r0, #54316
 5853 1c8c FFF7FEFF 		bl	LCD_WriteReg
 5854              	.LVL1160:
1443:Src/bsp_tftlcd.c **** 		LCD_WriteReg(0xD42E,0x03);
 5855              		.loc 1 1443 0
 5856 1c90 FE21     		movs	r1, #254
 5857 1c92 4DF22D40 		movw	r0, #54317
 5858 1c96 FFF7FEFF 		bl	LCD_WriteReg
ARM GAS  /tmp/cco7znPM.s 			page 150


 5859              	.LVL1161:
1444:Src/bsp_tftlcd.c **** 		LCD_WriteReg(0xD42F,0x10);
 5860              		.loc 1 1444 0
 5861 1c9a 0321     		movs	r1, #3
 5862 1c9c 4DF22E40 		movw	r0, #54318
 5863 1ca0 FFF7FEFF 		bl	LCD_WriteReg
 5864              	.LVL1162:
1445:Src/bsp_tftlcd.c **** 		LCD_WriteReg(0xD430,0x03);
 5865              		.loc 1 1445 0
 5866 1ca4 1021     		movs	r1, #16
 5867 1ca6 4DF22F40 		movw	r0, #54319
 5868 1caa FFF7FEFF 		bl	LCD_WriteReg
 5869              	.LVL1163:
1446:Src/bsp_tftlcd.c **** 		LCD_WriteReg(0xD431,0x33);
 5870              		.loc 1 1446 0
 5871 1cae 0321     		movs	r1, #3
 5872 1cb0 4DF23040 		movw	r0, #54320
 5873 1cb4 FFF7FEFF 		bl	LCD_WriteReg
 5874              	.LVL1164:
1447:Src/bsp_tftlcd.c **** 		LCD_WriteReg(0xD432,0x03);
 5875              		.loc 1 1447 0
 5876 1cb8 3321     		movs	r1, #51
 5877 1cba 4DF23140 		movw	r0, #54321
 5878 1cbe FFF7FEFF 		bl	LCD_WriteReg
 5879              	.LVL1165:
1448:Src/bsp_tftlcd.c **** 		LCD_WriteReg(0xD433,0x6D);
 5880              		.loc 1 1448 0
 5881 1cc2 0321     		movs	r1, #3
 5882 1cc4 4DF23240 		movw	r0, #54322
 5883 1cc8 FFF7FEFF 		bl	LCD_WriteReg
 5884              	.LVL1166:
1449:Src/bsp_tftlcd.c **** 		LCD_WriteReg(0xD500,0x00);
 5885              		.loc 1 1449 0
 5886 1ccc 6D21     		movs	r1, #109
 5887 1cce 4DF23340 		movw	r0, #54323
 5888 1cd2 FFF7FEFF 		bl	LCD_WriteReg
 5889              	.LVL1167:
1450:Src/bsp_tftlcd.c **** 		LCD_WriteReg(0xD501,0x33);
 5890              		.loc 1 1450 0
 5891 1cd6 0021     		movs	r1, #0
 5892 1cd8 4FF45540 		mov	r0, #54528
 5893 1cdc FFF7FEFF 		bl	LCD_WriteReg
 5894              	.LVL1168:
1451:Src/bsp_tftlcd.c **** 		LCD_WriteReg(0xD502,0x00);
 5895              		.loc 1 1451 0
 5896 1ce0 3321     		movs	r1, #51
 5897 1ce2 4DF20150 		movw	r0, #54529
 5898 1ce6 FFF7FEFF 		bl	LCD_WriteReg
 5899              	.LVL1169:
1452:Src/bsp_tftlcd.c **** 		LCD_WriteReg(0xD503,0x34);
 5900              		.loc 1 1452 0
 5901 1cea 0021     		movs	r1, #0
 5902 1cec 4DF20250 		movw	r0, #54530
 5903 1cf0 FFF7FEFF 		bl	LCD_WriteReg
 5904              	.LVL1170:
1453:Src/bsp_tftlcd.c **** 		LCD_WriteReg(0xD504,0x00);
 5905              		.loc 1 1453 0
ARM GAS  /tmp/cco7znPM.s 			page 151


 5906 1cf4 3421     		movs	r1, #52
 5907 1cf6 4DF20350 		movw	r0, #54531
 5908 1cfa FFF7FEFF 		bl	LCD_WriteReg
 5909              	.LVL1171:
1454:Src/bsp_tftlcd.c **** 		LCD_WriteReg(0xD505,0x3A);
 5910              		.loc 1 1454 0
 5911 1cfe 0021     		movs	r1, #0
 5912 1d00 4DF20450 		movw	r0, #54532
 5913 1d04 FFF7FEFF 		bl	LCD_WriteReg
 5914              	.LVL1172:
1455:Src/bsp_tftlcd.c **** 		LCD_WriteReg(0xD506,0x00);
 5915              		.loc 1 1455 0
 5916 1d08 3A21     		movs	r1, #58
 5917 1d0a 4DF20550 		movw	r0, #54533
 5918 1d0e FFF7FEFF 		bl	LCD_WriteReg
 5919              	.LVL1173:
1456:Src/bsp_tftlcd.c **** 		LCD_WriteReg(0xD507,0x4A);
 5920              		.loc 1 1456 0
 5921 1d12 0021     		movs	r1, #0
 5922 1d14 4DF20650 		movw	r0, #54534
 5923 1d18 FFF7FEFF 		bl	LCD_WriteReg
 5924              	.LVL1174:
1457:Src/bsp_tftlcd.c **** 		LCD_WriteReg(0xD508,0x00);
 5925              		.loc 1 1457 0
 5926 1d1c 4A21     		movs	r1, #74
 5927 1d1e 4DF20750 		movw	r0, #54535
 5928 1d22 FFF7FEFF 		bl	LCD_WriteReg
 5929              	.LVL1175:
1458:Src/bsp_tftlcd.c **** 		LCD_WriteReg(0xD509,0x5C);
 5930              		.loc 1 1458 0
 5931 1d26 0021     		movs	r1, #0
 5932 1d28 4DF20850 		movw	r0, #54536
 5933 1d2c FFF7FEFF 		bl	LCD_WriteReg
 5934              	.LVL1176:
1459:Src/bsp_tftlcd.c **** 		LCD_WriteReg(0xD50A,0x00);
 5935              		.loc 1 1459 0
 5936 1d30 5C21     		movs	r1, #92
 5937 1d32 4DF20950 		movw	r0, #54537
 5938 1d36 FFF7FEFF 		bl	LCD_WriteReg
 5939              	.LVL1177:
1460:Src/bsp_tftlcd.c **** 		LCD_WriteReg(0xD50B,0x81);
 5940              		.loc 1 1460 0
 5941 1d3a 0021     		movs	r1, #0
 5942 1d3c 4DF20A50 		movw	r0, #54538
 5943 1d40 FFF7FEFF 		bl	LCD_WriteReg
 5944              	.LVL1178:
1461:Src/bsp_tftlcd.c **** 
 5945              		.loc 1 1461 0
 5946 1d44 8121     		movs	r1, #129
 5947 1d46 4DF20B50 		movw	r0, #54539
 5948 1d4a FFF7FEFF 		bl	LCD_WriteReg
 5949              	.LVL1179:
1463:Src/bsp_tftlcd.c **** 		LCD_WriteReg(0xD50D,0xA6);
 5950              		.loc 1 1463 0
 5951 1d4e 0021     		movs	r1, #0
 5952 1d50 4DF20C50 		movw	r0, #54540
 5953 1d54 FFF7FEFF 		bl	LCD_WriteReg
ARM GAS  /tmp/cco7znPM.s 			page 152


 5954              	.LVL1180:
1464:Src/bsp_tftlcd.c **** 		LCD_WriteReg(0xD50E,0x00);
 5955              		.loc 1 1464 0
 5956 1d58 A621     		movs	r1, #166
 5957 1d5a 4DF20D50 		movw	r0, #54541
 5958 1d5e FFF7FEFF 		bl	LCD_WriteReg
 5959              	.LVL1181:
1465:Src/bsp_tftlcd.c **** 		LCD_WriteReg(0xD50F,0xE5);
 5960              		.loc 1 1465 0
 5961 1d62 0021     		movs	r1, #0
 5962 1d64 4DF20E50 		movw	r0, #54542
 5963 1d68 FFF7FEFF 		bl	LCD_WriteReg
 5964              	.LVL1182:
1466:Src/bsp_tftlcd.c **** 		LCD_WriteReg(0xD510,0x01);
 5965              		.loc 1 1466 0
 5966 1d6c E521     		movs	r1, #229
 5967 1d6e 4DF20F50 		movw	r0, #54543
 5968 1d72 FFF7FEFF 		bl	LCD_WriteReg
 5969              	.LVL1183:
1467:Src/bsp_tftlcd.c **** 		LCD_WriteReg(0xD511,0x13);
 5970              		.loc 1 1467 0
 5971 1d76 0121     		movs	r1, #1
 5972 1d78 4DF21050 		movw	r0, #54544
 5973 1d7c FFF7FEFF 		bl	LCD_WriteReg
 5974              	.LVL1184:
1468:Src/bsp_tftlcd.c **** 		LCD_WriteReg(0xD512,0x01);
 5975              		.loc 1 1468 0
 5976 1d80 1321     		movs	r1, #19
 5977 1d82 4DF21150 		movw	r0, #54545
 5978 1d86 FFF7FEFF 		bl	LCD_WriteReg
 5979              	.LVL1185:
1469:Src/bsp_tftlcd.c **** 		LCD_WriteReg(0xD513,0x54);
 5980              		.loc 1 1469 0
 5981 1d8a 0121     		movs	r1, #1
 5982 1d8c 4DF21250 		movw	r0, #54546
 5983 1d90 FFF7FEFF 		bl	LCD_WriteReg
 5984              	.LVL1186:
1470:Src/bsp_tftlcd.c **** 		LCD_WriteReg(0xD514,0x01);
 5985              		.loc 1 1470 0
 5986 1d94 5421     		movs	r1, #84
 5987 1d96 4DF21350 		movw	r0, #54547
 5988 1d9a FFF7FEFF 		bl	LCD_WriteReg
 5989              	.LVL1187:
1471:Src/bsp_tftlcd.c **** 		LCD_WriteReg(0xD515,0x82);
 5990              		.loc 1 1471 0
 5991 1d9e 0121     		movs	r1, #1
 5992 1da0 4DF21450 		movw	r0, #54548
 5993 1da4 FFF7FEFF 		bl	LCD_WriteReg
 5994              	.LVL1188:
1472:Src/bsp_tftlcd.c **** 		LCD_WriteReg(0xD516,0x01);
 5995              		.loc 1 1472 0
 5996 1da8 8221     		movs	r1, #130
 5997 1daa 4DF21550 		movw	r0, #54549
 5998 1dae FFF7FEFF 		bl	LCD_WriteReg
 5999              	.LVL1189:
1473:Src/bsp_tftlcd.c **** 		LCD_WriteReg(0xD517,0xCA);
 6000              		.loc 1 1473 0
ARM GAS  /tmp/cco7znPM.s 			page 153


 6001 1db2 0121     		movs	r1, #1
 6002 1db4 4DF21650 		movw	r0, #54550
 6003 1db8 FFF7FEFF 		bl	LCD_WriteReg
 6004              	.LVL1190:
1474:Src/bsp_tftlcd.c **** 		LCD_WriteReg(0xD518,0x02);
 6005              		.loc 1 1474 0
 6006 1dbc CA21     		movs	r1, #202
 6007 1dbe 4DF21750 		movw	r0, #54551
 6008 1dc2 FFF7FEFF 		bl	LCD_WriteReg
 6009              	.LVL1191:
1475:Src/bsp_tftlcd.c **** 		LCD_WriteReg(0xD519,0x00);
 6010              		.loc 1 1475 0
 6011 1dc6 0221     		movs	r1, #2
 6012 1dc8 4DF21850 		movw	r0, #54552
 6013 1dcc FFF7FEFF 		bl	LCD_WriteReg
 6014              	.LVL1192:
1476:Src/bsp_tftlcd.c **** 		LCD_WriteReg(0xD51A,0x02);
 6015              		.loc 1 1476 0
 6016 1dd0 0021     		movs	r1, #0
 6017 1dd2 4DF21950 		movw	r0, #54553
 6018 1dd6 FFF7FEFF 		bl	LCD_WriteReg
 6019              	.LVL1193:
1477:Src/bsp_tftlcd.c **** 		LCD_WriteReg(0xD51B,0x01);
 6020              		.loc 1 1477 0
 6021 1dda 0221     		movs	r1, #2
 6022 1ddc 4DF21A50 		movw	r0, #54554
 6023 1de0 FFF7FEFF 		bl	LCD_WriteReg
 6024              	.LVL1194:
1478:Src/bsp_tftlcd.c **** 		LCD_WriteReg(0xD51C,0x02);
 6025              		.loc 1 1478 0
 6026 1de4 0121     		movs	r1, #1
 6027 1de6 4DF21B50 		movw	r0, #54555
 6028 1dea FFF7FEFF 		bl	LCD_WriteReg
 6029              	.LVL1195:
1479:Src/bsp_tftlcd.c **** 		LCD_WriteReg(0xD51D,0x34);
 6030              		.loc 1 1479 0
 6031 1dee 0221     		movs	r1, #2
 6032 1df0 4DF21C50 		movw	r0, #54556
 6033 1df4 FFF7FEFF 		bl	LCD_WriteReg
 6034              	.LVL1196:
1480:Src/bsp_tftlcd.c **** 		LCD_WriteReg(0xD51E,0x02);
 6035              		.loc 1 1480 0
 6036 1df8 3421     		movs	r1, #52
 6037 1dfa 4DF21D50 		movw	r0, #54557
 6038 1dfe FFF7FEFF 		bl	LCD_WriteReg
 6039              	.LVL1197:
1481:Src/bsp_tftlcd.c **** 		LCD_WriteReg(0xD51F,0x67);
 6040              		.loc 1 1481 0
 6041 1e02 0221     		movs	r1, #2
 6042 1e04 4DF21E50 		movw	r0, #54558
 6043 1e08 FFF7FEFF 		bl	LCD_WriteReg
 6044              	.LVL1198:
1482:Src/bsp_tftlcd.c **** 		LCD_WriteReg(0xD520,0x02);
 6045              		.loc 1 1482 0
 6046 1e0c 6721     		movs	r1, #103
 6047 1e0e 4DF21F50 		movw	r0, #54559
 6048 1e12 FFF7FEFF 		bl	LCD_WriteReg
ARM GAS  /tmp/cco7znPM.s 			page 154


 6049              	.LVL1199:
1483:Src/bsp_tftlcd.c **** 		LCD_WriteReg(0xD521,0x84);
 6050              		.loc 1 1483 0
 6051 1e16 0221     		movs	r1, #2
 6052 1e18 4DF22050 		movw	r0, #54560
 6053 1e1c FFF7FEFF 		bl	LCD_WriteReg
 6054              	.LVL1200:
1484:Src/bsp_tftlcd.c **** 		LCD_WriteReg(0xD522,0x02);
 6055              		.loc 1 1484 0
 6056 1e20 8421     		movs	r1, #132
 6057 1e22 4DF22150 		movw	r0, #54561
 6058 1e26 FFF7FEFF 		bl	LCD_WriteReg
 6059              	.LVL1201:
1485:Src/bsp_tftlcd.c **** 		LCD_WriteReg(0xD523,0xA4);
 6060              		.loc 1 1485 0
 6061 1e2a 0221     		movs	r1, #2
 6062 1e2c 4DF22250 		movw	r0, #54562
 6063 1e30 FFF7FEFF 		bl	LCD_WriteReg
 6064              	.LVL1202:
1486:Src/bsp_tftlcd.c **** 		LCD_WriteReg(0xD524,0x02);
 6065              		.loc 1 1486 0
 6066 1e34 A421     		movs	r1, #164
 6067 1e36 4DF22350 		movw	r0, #54563
 6068 1e3a FFF7FEFF 		bl	LCD_WriteReg
 6069              	.LVL1203:
1487:Src/bsp_tftlcd.c **** 		LCD_WriteReg(0xD525,0xB7);
 6070              		.loc 1 1487 0
 6071 1e3e 0221     		movs	r1, #2
 6072 1e40 4DF22450 		movw	r0, #54564
 6073 1e44 FFF7FEFF 		bl	LCD_WriteReg
 6074              	.LVL1204:
1488:Src/bsp_tftlcd.c **** 		LCD_WriteReg(0xD526,0x02);
 6075              		.loc 1 1488 0
 6076 1e48 B721     		movs	r1, #183
 6077 1e4a 4DF22550 		movw	r0, #54565
 6078 1e4e FFF7FEFF 		bl	LCD_WriteReg
 6079              	.LVL1205:
1489:Src/bsp_tftlcd.c **** 		LCD_WriteReg(0xD527,0xCF);
 6080              		.loc 1 1489 0
 6081 1e52 0221     		movs	r1, #2
 6082 1e54 4DF22650 		movw	r0, #54566
 6083 1e58 FFF7FEFF 		bl	LCD_WriteReg
 6084              	.LVL1206:
1490:Src/bsp_tftlcd.c **** 		LCD_WriteReg(0xD528,0x02);
 6085              		.loc 1 1490 0
 6086 1e5c CF21     		movs	r1, #207
 6087 1e5e 4DF22750 		movw	r0, #54567
 6088 1e62 FFF7FEFF 		bl	LCD_WriteReg
 6089              	.LVL1207:
1491:Src/bsp_tftlcd.c **** 		LCD_WriteReg(0xD529,0xDE);
 6090              		.loc 1 1491 0
 6091 1e66 0221     		movs	r1, #2
 6092 1e68 4DF22850 		movw	r0, #54568
 6093 1e6c FFF7FEFF 		bl	LCD_WriteReg
 6094              	.LVL1208:
1492:Src/bsp_tftlcd.c **** 		LCD_WriteReg(0xD52A,0x02);
 6095              		.loc 1 1492 0
ARM GAS  /tmp/cco7znPM.s 			page 155


 6096 1e70 DE21     		movs	r1, #222
 6097 1e72 4DF22950 		movw	r0, #54569
 6098 1e76 FFF7FEFF 		bl	LCD_WriteReg
 6099              	.LVL1209:
1493:Src/bsp_tftlcd.c **** 		LCD_WriteReg(0xD52B,0xF2);
 6100              		.loc 1 1493 0
 6101 1e7a 0221     		movs	r1, #2
 6102 1e7c 4DF22A50 		movw	r0, #54570
 6103 1e80 FFF7FEFF 		bl	LCD_WriteReg
 6104              	.LVL1210:
1494:Src/bsp_tftlcd.c **** 		LCD_WriteReg(0xD52C,0x02);
 6105              		.loc 1 1494 0
 6106 1e84 F221     		movs	r1, #242
 6107 1e86 4DF22B50 		movw	r0, #54571
 6108 1e8a FFF7FEFF 		bl	LCD_WriteReg
 6109              	.LVL1211:
1495:Src/bsp_tftlcd.c **** 		LCD_WriteReg(0xD52D,0xFE);
 6110              		.loc 1 1495 0
 6111 1e8e 0221     		movs	r1, #2
 6112 1e90 4DF22C50 		movw	r0, #54572
 6113 1e94 FFF7FEFF 		bl	LCD_WriteReg
 6114              	.LVL1212:
1496:Src/bsp_tftlcd.c **** 		LCD_WriteReg(0xD52E,0x03);
 6115              		.loc 1 1496 0
 6116 1e98 FE21     		movs	r1, #254
 6117 1e9a 4DF22D50 		movw	r0, #54573
 6118 1e9e FFF7FEFF 		bl	LCD_WriteReg
 6119              	.LVL1213:
1497:Src/bsp_tftlcd.c **** 		LCD_WriteReg(0xD52F,0x10);
 6120              		.loc 1 1497 0
 6121 1ea2 0321     		movs	r1, #3
 6122 1ea4 4DF22E50 		movw	r0, #54574
 6123 1ea8 FFF7FEFF 		bl	LCD_WriteReg
 6124              	.LVL1214:
1498:Src/bsp_tftlcd.c **** 		LCD_WriteReg(0xD530,0x03);
 6125              		.loc 1 1498 0
 6126 1eac 1021     		movs	r1, #16
 6127 1eae 4DF22F50 		movw	r0, #54575
 6128 1eb2 FFF7FEFF 		bl	LCD_WriteReg
 6129              	.LVL1215:
1499:Src/bsp_tftlcd.c **** 		LCD_WriteReg(0xD531,0x33);
 6130              		.loc 1 1499 0
 6131 1eb6 0321     		movs	r1, #3
 6132 1eb8 4DF23050 		movw	r0, #54576
 6133 1ebc FFF7FEFF 		bl	LCD_WriteReg
 6134              	.LVL1216:
1500:Src/bsp_tftlcd.c **** 		LCD_WriteReg(0xD532,0x03);
 6135              		.loc 1 1500 0
 6136 1ec0 3321     		movs	r1, #51
 6137 1ec2 4DF23150 		movw	r0, #54577
 6138 1ec6 FFF7FEFF 		bl	LCD_WriteReg
 6139              	.LVL1217:
1501:Src/bsp_tftlcd.c **** 		LCD_WriteReg(0xD533,0x6D);
 6140              		.loc 1 1501 0
 6141 1eca 0321     		movs	r1, #3
 6142 1ecc 4DF23250 		movw	r0, #54578
 6143 1ed0 FFF7FEFF 		bl	LCD_WriteReg
ARM GAS  /tmp/cco7znPM.s 			page 156


 6144              	.LVL1218:
1502:Src/bsp_tftlcd.c **** 		LCD_WriteReg(0xD600,0x00);
 6145              		.loc 1 1502 0
 6146 1ed4 6D21     		movs	r1, #109
 6147 1ed6 4DF23350 		movw	r0, #54579
 6148 1eda FFF7FEFF 		bl	LCD_WriteReg
 6149              	.LVL1219:
1503:Src/bsp_tftlcd.c **** 		LCD_WriteReg(0xD601,0x33);
 6150              		.loc 1 1503 0
 6151 1ede 0021     		movs	r1, #0
 6152 1ee0 4FF45640 		mov	r0, #54784
 6153 1ee4 FFF7FEFF 		bl	LCD_WriteReg
 6154              	.LVL1220:
1504:Src/bsp_tftlcd.c **** 		LCD_WriteReg(0xD602,0x00);
 6155              		.loc 1 1504 0
 6156 1ee8 3321     		movs	r1, #51
 6157 1eea 4DF20160 		movw	r0, #54785
 6158 1eee FFF7FEFF 		bl	LCD_WriteReg
 6159              	.LVL1221:
1505:Src/bsp_tftlcd.c **** 		LCD_WriteReg(0xD603,0x34);
 6160              		.loc 1 1505 0
 6161 1ef2 0021     		movs	r1, #0
 6162 1ef4 4DF20260 		movw	r0, #54786
 6163 1ef8 FFF7FEFF 		bl	LCD_WriteReg
 6164              	.LVL1222:
1506:Src/bsp_tftlcd.c **** 		LCD_WriteReg(0xD604,0x00);
 6165              		.loc 1 1506 0
 6166 1efc 3421     		movs	r1, #52
 6167 1efe 4DF20360 		movw	r0, #54787
 6168 1f02 FFF7FEFF 		bl	LCD_WriteReg
 6169              	.LVL1223:
1507:Src/bsp_tftlcd.c **** 		LCD_WriteReg(0xD605,0x3A);
 6170              		.loc 1 1507 0
 6171 1f06 0021     		movs	r1, #0
 6172 1f08 4DF20460 		movw	r0, #54788
 6173 1f0c FFF7FEFF 		bl	LCD_WriteReg
 6174              	.LVL1224:
1508:Src/bsp_tftlcd.c **** 		LCD_WriteReg(0xD606,0x00);
 6175              		.loc 1 1508 0
 6176 1f10 3A21     		movs	r1, #58
 6177 1f12 4DF20560 		movw	r0, #54789
 6178 1f16 FFF7FEFF 		bl	LCD_WriteReg
 6179              	.LVL1225:
1509:Src/bsp_tftlcd.c **** 		LCD_WriteReg(0xD607,0x4A);
 6180              		.loc 1 1509 0
 6181 1f1a 0021     		movs	r1, #0
 6182 1f1c 4DF20660 		movw	r0, #54790
 6183 1f20 FFF7FEFF 		bl	LCD_WriteReg
 6184              	.LVL1226:
1510:Src/bsp_tftlcd.c **** 		LCD_WriteReg(0xD608,0x00);
 6185              		.loc 1 1510 0
 6186 1f24 4A21     		movs	r1, #74
 6187 1f26 4DF20760 		movw	r0, #54791
 6188 1f2a FFF7FEFF 		bl	LCD_WriteReg
 6189              	.LVL1227:
1511:Src/bsp_tftlcd.c **** 		LCD_WriteReg(0xD609,0x5C);
 6190              		.loc 1 1511 0
ARM GAS  /tmp/cco7znPM.s 			page 157


 6191 1f2e 0021     		movs	r1, #0
 6192 1f30 4DF20860 		movw	r0, #54792
 6193 1f34 FFF7FEFF 		bl	LCD_WriteReg
 6194              	.LVL1228:
1512:Src/bsp_tftlcd.c **** 		LCD_WriteReg(0xD60A,0x00);
 6195              		.loc 1 1512 0
 6196 1f38 5C21     		movs	r1, #92
 6197 1f3a 4DF20960 		movw	r0, #54793
 6198 1f3e FFF7FEFF 		bl	LCD_WriteReg
 6199              	.LVL1229:
1513:Src/bsp_tftlcd.c **** 		LCD_WriteReg(0xD60B,0x81);
 6200              		.loc 1 1513 0
 6201 1f42 0021     		movs	r1, #0
 6202 1f44 4DF20A60 		movw	r0, #54794
 6203 1f48 FFF7FEFF 		bl	LCD_WriteReg
 6204              	.LVL1230:
1514:Src/bsp_tftlcd.c **** 
 6205              		.loc 1 1514 0
 6206 1f4c 8121     		movs	r1, #129
 6207 1f4e 4DF20B60 		movw	r0, #54795
 6208 1f52 FFF7FEFF 		bl	LCD_WriteReg
 6209              	.LVL1231:
1516:Src/bsp_tftlcd.c **** 		LCD_WriteReg(0xD60D,0xA6);
 6210              		.loc 1 1516 0
 6211 1f56 0021     		movs	r1, #0
 6212 1f58 4DF20C60 		movw	r0, #54796
 6213 1f5c FFF7FEFF 		bl	LCD_WriteReg
 6214              	.LVL1232:
1517:Src/bsp_tftlcd.c **** 		LCD_WriteReg(0xD60E,0x00);
 6215              		.loc 1 1517 0
 6216 1f60 A621     		movs	r1, #166
 6217 1f62 4DF20D60 		movw	r0, #54797
 6218 1f66 FFF7FEFF 		bl	LCD_WriteReg
 6219              	.LVL1233:
1518:Src/bsp_tftlcd.c **** 		LCD_WriteReg(0xD60F,0xE5);
 6220              		.loc 1 1518 0
 6221 1f6a 0021     		movs	r1, #0
 6222 1f6c 4DF20E60 		movw	r0, #54798
 6223 1f70 FFF7FEFF 		bl	LCD_WriteReg
 6224              	.LVL1234:
1519:Src/bsp_tftlcd.c **** 		LCD_WriteReg(0xD610,0x01);
 6225              		.loc 1 1519 0
 6226 1f74 E521     		movs	r1, #229
 6227 1f76 4DF20F60 		movw	r0, #54799
 6228 1f7a FFF7FEFF 		bl	LCD_WriteReg
 6229              	.LVL1235:
1520:Src/bsp_tftlcd.c **** 		LCD_WriteReg(0xD611,0x13);
 6230              		.loc 1 1520 0
 6231 1f7e 0121     		movs	r1, #1
 6232 1f80 4DF21060 		movw	r0, #54800
 6233 1f84 FFF7FEFF 		bl	LCD_WriteReg
 6234              	.LVL1236:
1521:Src/bsp_tftlcd.c **** 		LCD_WriteReg(0xD612,0x01);
 6235              		.loc 1 1521 0
 6236 1f88 1321     		movs	r1, #19
 6237 1f8a 4DF21160 		movw	r0, #54801
 6238 1f8e FFF7FEFF 		bl	LCD_WriteReg
ARM GAS  /tmp/cco7znPM.s 			page 158


 6239              	.LVL1237:
1522:Src/bsp_tftlcd.c **** 		LCD_WriteReg(0xD613,0x54);
 6240              		.loc 1 1522 0
 6241 1f92 0121     		movs	r1, #1
 6242 1f94 4DF21260 		movw	r0, #54802
 6243 1f98 FFF7FEFF 		bl	LCD_WriteReg
 6244              	.LVL1238:
1523:Src/bsp_tftlcd.c **** 		LCD_WriteReg(0xD614,0x01);
 6245              		.loc 1 1523 0
 6246 1f9c 5421     		movs	r1, #84
 6247 1f9e 4DF21360 		movw	r0, #54803
 6248 1fa2 FFF7FEFF 		bl	LCD_WriteReg
 6249              	.LVL1239:
1524:Src/bsp_tftlcd.c **** 		LCD_WriteReg(0xD615,0x82);
 6250              		.loc 1 1524 0
 6251 1fa6 0121     		movs	r1, #1
 6252 1fa8 4DF21460 		movw	r0, #54804
 6253 1fac FFF7FEFF 		bl	LCD_WriteReg
 6254              	.LVL1240:
1525:Src/bsp_tftlcd.c **** 		LCD_WriteReg(0xD616,0x01);
 6255              		.loc 1 1525 0
 6256 1fb0 8221     		movs	r1, #130
 6257 1fb2 4DF21560 		movw	r0, #54805
 6258 1fb6 FFF7FEFF 		bl	LCD_WriteReg
 6259              	.LVL1241:
1526:Src/bsp_tftlcd.c **** 		LCD_WriteReg(0xD617,0xCA);
 6260              		.loc 1 1526 0
 6261 1fba 0121     		movs	r1, #1
 6262 1fbc 4DF21660 		movw	r0, #54806
 6263 1fc0 FFF7FEFF 		bl	LCD_WriteReg
 6264              	.LVL1242:
1527:Src/bsp_tftlcd.c **** 		LCD_WriteReg(0xD618,0x02);
 6265              		.loc 1 1527 0
 6266 1fc4 CA21     		movs	r1, #202
 6267 1fc6 4DF21760 		movw	r0, #54807
 6268 1fca FFF7FEFF 		bl	LCD_WriteReg
 6269              	.LVL1243:
1528:Src/bsp_tftlcd.c **** 		LCD_WriteReg(0xD619,0x00);
 6270              		.loc 1 1528 0
 6271 1fce 0221     		movs	r1, #2
 6272 1fd0 4DF21860 		movw	r0, #54808
 6273 1fd4 FFF7FEFF 		bl	LCD_WriteReg
 6274              	.LVL1244:
1529:Src/bsp_tftlcd.c **** 		LCD_WriteReg(0xD61A,0x02);
 6275              		.loc 1 1529 0
 6276 1fd8 0021     		movs	r1, #0
 6277 1fda 4DF21960 		movw	r0, #54809
 6278 1fde FFF7FEFF 		bl	LCD_WriteReg
 6279              	.LVL1245:
1530:Src/bsp_tftlcd.c **** 		LCD_WriteReg(0xD61B,0x01);
 6280              		.loc 1 1530 0
 6281 1fe2 0221     		movs	r1, #2
 6282 1fe4 4DF21A60 		movw	r0, #54810
 6283 1fe8 FFF7FEFF 		bl	LCD_WriteReg
 6284              	.LVL1246:
1531:Src/bsp_tftlcd.c **** 		LCD_WriteReg(0xD61C,0x02);
 6285              		.loc 1 1531 0
ARM GAS  /tmp/cco7znPM.s 			page 159


 6286 1fec 0121     		movs	r1, #1
 6287 1fee 4DF21B60 		movw	r0, #54811
 6288 1ff2 FFF7FEFF 		bl	LCD_WriteReg
 6289              	.LVL1247:
1532:Src/bsp_tftlcd.c **** 		LCD_WriteReg(0xD61D,0x34);
 6290              		.loc 1 1532 0
 6291 1ff6 0221     		movs	r1, #2
 6292 1ff8 4DF21C60 		movw	r0, #54812
 6293 1ffc FFF7FEFF 		bl	LCD_WriteReg
 6294              	.LVL1248:
1533:Src/bsp_tftlcd.c **** 		LCD_WriteReg(0xD61E,0x02);
 6295              		.loc 1 1533 0
 6296 2000 3421     		movs	r1, #52
 6297 2002 4DF21D60 		movw	r0, #54813
 6298 2006 FFF7FEFF 		bl	LCD_WriteReg
 6299              	.LVL1249:
1534:Src/bsp_tftlcd.c **** 		LCD_WriteReg(0xD61F,0x67);
 6300              		.loc 1 1534 0
 6301 200a 0221     		movs	r1, #2
 6302 200c 4DF21E60 		movw	r0, #54814
 6303 2010 FFF7FEFF 		bl	LCD_WriteReg
 6304              	.LVL1250:
1535:Src/bsp_tftlcd.c **** 		LCD_WriteReg(0xD620,0x02);
 6305              		.loc 1 1535 0
 6306 2014 6721     		movs	r1, #103
 6307 2016 4DF21F60 		movw	r0, #54815
 6308 201a FFF7FEFF 		bl	LCD_WriteReg
 6309              	.LVL1251:
1536:Src/bsp_tftlcd.c **** 		LCD_WriteReg(0xD621,0x84);
 6310              		.loc 1 1536 0
 6311 201e 0221     		movs	r1, #2
 6312 2020 4DF22060 		movw	r0, #54816
 6313 2024 FFF7FEFF 		bl	LCD_WriteReg
 6314              	.LVL1252:
1537:Src/bsp_tftlcd.c **** 		LCD_WriteReg(0xD622,0x02);
 6315              		.loc 1 1537 0
 6316 2028 8421     		movs	r1, #132
 6317 202a 4DF22160 		movw	r0, #54817
 6318 202e FFF7FEFF 		bl	LCD_WriteReg
 6319              	.LVL1253:
1538:Src/bsp_tftlcd.c **** 		LCD_WriteReg(0xD623,0xA4);
 6320              		.loc 1 1538 0
 6321 2032 0221     		movs	r1, #2
 6322 2034 4DF22260 		movw	r0, #54818
 6323 2038 FFF7FEFF 		bl	LCD_WriteReg
 6324              	.LVL1254:
1539:Src/bsp_tftlcd.c **** 		LCD_WriteReg(0xD624,0x02);
 6325              		.loc 1 1539 0
 6326 203c A421     		movs	r1, #164
 6327 203e 4DF22360 		movw	r0, #54819
 6328 2042 FFF7FEFF 		bl	LCD_WriteReg
 6329              	.LVL1255:
1540:Src/bsp_tftlcd.c **** 		LCD_WriteReg(0xD625,0xB7);
 6330              		.loc 1 1540 0
 6331 2046 0221     		movs	r1, #2
 6332 2048 4DF22460 		movw	r0, #54820
 6333 204c FFF7FEFF 		bl	LCD_WriteReg
ARM GAS  /tmp/cco7znPM.s 			page 160


 6334              	.LVL1256:
1541:Src/bsp_tftlcd.c **** 		LCD_WriteReg(0xD626,0x02);
 6335              		.loc 1 1541 0
 6336 2050 B721     		movs	r1, #183
 6337 2052 4DF22560 		movw	r0, #54821
 6338 2056 FFF7FEFF 		bl	LCD_WriteReg
 6339              	.LVL1257:
1542:Src/bsp_tftlcd.c **** 		LCD_WriteReg(0xD627,0xCF);
 6340              		.loc 1 1542 0
 6341 205a 0221     		movs	r1, #2
 6342 205c 4DF22660 		movw	r0, #54822
 6343 2060 FFF7FEFF 		bl	LCD_WriteReg
 6344              	.LVL1258:
1543:Src/bsp_tftlcd.c **** 		LCD_WriteReg(0xD628,0x02);
 6345              		.loc 1 1543 0
 6346 2064 CF21     		movs	r1, #207
 6347 2066 4DF22760 		movw	r0, #54823
 6348 206a FFF7FEFF 		bl	LCD_WriteReg
 6349              	.LVL1259:
1544:Src/bsp_tftlcd.c **** 		LCD_WriteReg(0xD629,0xDE);
 6350              		.loc 1 1544 0
 6351 206e 0221     		movs	r1, #2
 6352 2070 4DF22860 		movw	r0, #54824
 6353 2074 FFF7FEFF 		bl	LCD_WriteReg
 6354              	.LVL1260:
1545:Src/bsp_tftlcd.c **** 		LCD_WriteReg(0xD62A,0x02);
 6355              		.loc 1 1545 0
 6356 2078 DE21     		movs	r1, #222
 6357 207a 4DF22960 		movw	r0, #54825
 6358 207e FFF7FEFF 		bl	LCD_WriteReg
 6359              	.LVL1261:
1546:Src/bsp_tftlcd.c **** 		LCD_WriteReg(0xD62B,0xF2);
 6360              		.loc 1 1546 0
 6361 2082 0221     		movs	r1, #2
 6362 2084 4DF22A60 		movw	r0, #54826
 6363 2088 FFF7FEFF 		bl	LCD_WriteReg
 6364              	.LVL1262:
1547:Src/bsp_tftlcd.c **** 		LCD_WriteReg(0xD62C,0x02);
 6365              		.loc 1 1547 0
 6366 208c F221     		movs	r1, #242
 6367 208e 4DF22B60 		movw	r0, #54827
 6368 2092 FFF7FEFF 		bl	LCD_WriteReg
 6369              	.LVL1263:
1548:Src/bsp_tftlcd.c **** 		LCD_WriteReg(0xD62D,0xFE);
 6370              		.loc 1 1548 0
 6371 2096 0221     		movs	r1, #2
 6372 2098 4DF22C60 		movw	r0, #54828
 6373 209c FFF7FEFF 		bl	LCD_WriteReg
 6374              	.LVL1264:
1549:Src/bsp_tftlcd.c **** 		LCD_WriteReg(0xD62E,0x03);
 6375              		.loc 1 1549 0
 6376 20a0 FE21     		movs	r1, #254
 6377 20a2 4DF22D60 		movw	r0, #54829
 6378 20a6 FFF7FEFF 		bl	LCD_WriteReg
 6379              	.LVL1265:
1550:Src/bsp_tftlcd.c **** 		LCD_WriteReg(0xD62F,0x10);
 6380              		.loc 1 1550 0
ARM GAS  /tmp/cco7znPM.s 			page 161


 6381 20aa 0321     		movs	r1, #3
 6382 20ac 4DF22E60 		movw	r0, #54830
 6383 20b0 FFF7FEFF 		bl	LCD_WriteReg
 6384              	.LVL1266:
1551:Src/bsp_tftlcd.c **** 		LCD_WriteReg(0xD630,0x03);
 6385              		.loc 1 1551 0
 6386 20b4 1021     		movs	r1, #16
 6387 20b6 4DF22F60 		movw	r0, #54831
 6388 20ba FFF7FEFF 		bl	LCD_WriteReg
 6389              	.LVL1267:
1552:Src/bsp_tftlcd.c **** 		LCD_WriteReg(0xD631,0x33);
 6390              		.loc 1 1552 0
 6391 20be 0321     		movs	r1, #3
 6392 20c0 4DF23060 		movw	r0, #54832
 6393 20c4 FFF7FEFF 		bl	LCD_WriteReg
 6394              	.LVL1268:
1553:Src/bsp_tftlcd.c **** 		LCD_WriteReg(0xD632,0x03);
 6395              		.loc 1 1553 0
 6396 20c8 3321     		movs	r1, #51
 6397 20ca 4DF23160 		movw	r0, #54833
 6398 20ce FFF7FEFF 		bl	LCD_WriteReg
 6399              	.LVL1269:
1554:Src/bsp_tftlcd.c **** 		LCD_WriteReg(0xD633,0x6D);
 6400              		.loc 1 1554 0
 6401 20d2 0321     		movs	r1, #3
 6402 20d4 4DF23260 		movw	r0, #54834
 6403 20d8 FFF7FEFF 		bl	LCD_WriteReg
 6404              	.LVL1270:
1555:Src/bsp_tftlcd.c **** 		//LV2 Page 0 enable
 6405              		.loc 1 1555 0
 6406 20dc 6D21     		movs	r1, #109
 6407 20de 4DF23360 		movw	r0, #54835
 6408 20e2 FFF7FEFF 		bl	LCD_WriteReg
 6409              	.LVL1271:
1557:Src/bsp_tftlcd.c **** 		LCD_WriteReg(0xF001,0xAA);
 6410              		.loc 1 1557 0
 6411 20e6 5521     		movs	r1, #85
 6412 20e8 4FF47040 		mov	r0, #61440
 6413 20ec FFF7FEFF 		bl	LCD_WriteReg
 6414              	.LVL1272:
1558:Src/bsp_tftlcd.c **** 		LCD_WriteReg(0xF002,0x52);
 6415              		.loc 1 1558 0
 6416 20f0 AA21     		movs	r1, #170
 6417 20f2 4FF20100 		movw	r0, #61441
 6418 20f6 FFF7FEFF 		bl	LCD_WriteReg
 6419              	.LVL1273:
1559:Src/bsp_tftlcd.c **** 		LCD_WriteReg(0xF003,0x08);
 6420              		.loc 1 1559 0
 6421 20fa 5221     		movs	r1, #82
 6422 20fc 4FF20200 		movw	r0, #61442
 6423 2100 FFF7FEFF 		bl	LCD_WriteReg
 6424              	.LVL1274:
1560:Src/bsp_tftlcd.c **** 		LCD_WriteReg(0xF004,0x00);
 6425              		.loc 1 1560 0
 6426 2104 0821     		movs	r1, #8
 6427 2106 4FF20300 		movw	r0, #61443
 6428 210a FFF7FEFF 		bl	LCD_WriteReg
ARM GAS  /tmp/cco7znPM.s 			page 162


 6429              	.LVL1275:
1561:Src/bsp_tftlcd.c **** 		//Display control
 6430              		.loc 1 1561 0
 6431 210e 0021     		movs	r1, #0
 6432 2110 4FF20400 		movw	r0, #61444
 6433 2114 FFF7FEFF 		bl	LCD_WriteReg
 6434              	.LVL1276:
1563:Src/bsp_tftlcd.c **** 		LCD_WriteReg(0xB101, 0x00);
 6435              		.loc 1 1563 0
 6436 2118 CC21     		movs	r1, #204
 6437 211a 4FF43140 		mov	r0, #45312
 6438 211e FFF7FEFF 		bl	LCD_WriteReg
 6439              	.LVL1277:
1564:Src/bsp_tftlcd.c **** 		//Source hold time
 6440              		.loc 1 1564 0
 6441 2122 0021     		movs	r1, #0
 6442 2124 4BF20110 		movw	r0, #45313
 6443 2128 FFF7FEFF 		bl	LCD_WriteReg
 6444              	.LVL1278:
1566:Src/bsp_tftlcd.c **** 		//Gate EQ control
 6445              		.loc 1 1566 0
 6446 212c 0521     		movs	r1, #5
 6447 212e 4FF43640 		mov	r0, #46592
 6448 2132 FFF7FEFF 		bl	LCD_WriteReg
 6449              	.LVL1279:
1568:Src/bsp_tftlcd.c **** 		LCD_WriteReg(0xB701,0x70);
 6450              		.loc 1 1568 0
 6451 2136 7021     		movs	r1, #112
 6452 2138 4FF43740 		mov	r0, #46848
 6453 213c FFF7FEFF 		bl	LCD_WriteReg
 6454              	.LVL1280:
1569:Src/bsp_tftlcd.c **** 		//Source EQ control (Mode 2)
 6455              		.loc 1 1569 0
 6456 2140 7021     		movs	r1, #112
 6457 2142 4BF20170 		movw	r0, #46849
 6458 2146 FFF7FEFF 		bl	LCD_WriteReg
 6459              	.LVL1281:
1571:Src/bsp_tftlcd.c **** 		LCD_WriteReg(0xB801,0x03);
 6460              		.loc 1 1571 0
 6461 214a 0121     		movs	r1, #1
 6462 214c 4FF43840 		mov	r0, #47104
 6463 2150 FFF7FEFF 		bl	LCD_WriteReg
 6464              	.LVL1282:
1572:Src/bsp_tftlcd.c **** 		LCD_WriteReg(0xB802,0x03);
 6465              		.loc 1 1572 0
 6466 2154 0321     		movs	r1, #3
 6467 2156 4BF60100 		movw	r0, #47105
 6468 215a FFF7FEFF 		bl	LCD_WriteReg
 6469              	.LVL1283:
1573:Src/bsp_tftlcd.c **** 		LCD_WriteReg(0xB803,0x03);
 6470              		.loc 1 1573 0
 6471 215e 0321     		movs	r1, #3
 6472 2160 4BF60200 		movw	r0, #47106
 6473 2164 FFF7FEFF 		bl	LCD_WriteReg
 6474              	.LVL1284:
1574:Src/bsp_tftlcd.c **** 		//Inversion mode (2-dot)
 6475              		.loc 1 1574 0
ARM GAS  /tmp/cco7znPM.s 			page 163


 6476 2168 0321     		movs	r1, #3
 6477 216a 4BF60300 		movw	r0, #47107
 6478 216e FFF7FEFF 		bl	LCD_WriteReg
 6479              	.LVL1285:
1576:Src/bsp_tftlcd.c **** 		LCD_WriteReg(0xBC01,0x00);
 6480              		.loc 1 1576 0
 6481 2172 0221     		movs	r1, #2
 6482 2174 4FF43C40 		mov	r0, #48128
 6483 2178 FFF7FEFF 		bl	LCD_WriteReg
 6484              	.LVL1286:
1577:Src/bsp_tftlcd.c **** 		LCD_WriteReg(0xBC02,0x00);
 6485              		.loc 1 1577 0
 6486 217c 0021     		movs	r1, #0
 6487 217e 4BF60140 		movw	r0, #48129
 6488 2182 FFF7FEFF 		bl	LCD_WriteReg
 6489              	.LVL1287:
1578:Src/bsp_tftlcd.c **** 		//Timing control 4H w/ 4-delay
 6490              		.loc 1 1578 0
 6491 2186 0021     		movs	r1, #0
 6492 2188 4BF60240 		movw	r0, #48130
 6493 218c FFF7FEFF 		bl	LCD_WriteReg
 6494              	.LVL1288:
1580:Src/bsp_tftlcd.c **** 		LCD_WriteReg(0xC901,0x02);
 6495              		.loc 1 1580 0
 6496 2190 D021     		movs	r1, #208
 6497 2192 4FF44940 		mov	r0, #51456
 6498 2196 FFF7FEFF 		bl	LCD_WriteReg
 6499              	.LVL1289:
1581:Src/bsp_tftlcd.c **** 		LCD_WriteReg(0xC902,0x50);
 6500              		.loc 1 1581 0
 6501 219a 0221     		movs	r1, #2
 6502 219c 4CF60110 		movw	r0, #51457
 6503 21a0 FFF7FEFF 		bl	LCD_WriteReg
 6504              	.LVL1290:
1582:Src/bsp_tftlcd.c **** 		LCD_WriteReg(0xC903,0x50);
 6505              		.loc 1 1582 0
 6506 21a4 5021     		movs	r1, #80
 6507 21a6 4CF60210 		movw	r0, #51458
 6508 21aa FFF7FEFF 		bl	LCD_WriteReg
 6509              	.LVL1291:
1583:Src/bsp_tftlcd.c **** 		LCD_WriteReg(0xC904,0x50);
 6510              		.loc 1 1583 0
 6511 21ae 5021     		movs	r1, #80
 6512 21b0 4CF60310 		movw	r0, #51459
 6513 21b4 FFF7FEFF 		bl	LCD_WriteReg
 6514              	.LVL1292:
1584:Src/bsp_tftlcd.c **** 		LCD_WriteReg(0x3500,0x00);
 6515              		.loc 1 1584 0
 6516 21b8 5021     		movs	r1, #80
 6517 21ba 4CF60410 		movw	r0, #51460
 6518 21be FFF7FEFF 		bl	LCD_WriteReg
 6519              	.LVL1293:
1585:Src/bsp_tftlcd.c **** 		LCD_WriteReg(0x3A00,0x55);  //16-bit/pixel
 6520              		.loc 1 1585 0
 6521 21c2 0021     		movs	r1, #0
 6522 21c4 4FF45450 		mov	r0, #13568
 6523 21c8 FFF7FEFF 		bl	LCD_WriteReg
ARM GAS  /tmp/cco7znPM.s 			page 164


 6524              	.LVL1294:
1586:Src/bsp_tftlcd.c **** 		LCD_WR_REG(0x1100);
 6525              		.loc 1 1586 0
 6526 21cc 5521     		movs	r1, #85
 6527 21ce 4FF46850 		mov	r0, #14848
 6528 21d2 FFF7FEFF 		bl	LCD_WriteReg
 6529              	.LVL1295:
1587:Src/bsp_tftlcd.c **** 		HAL_Delay(1);
 6530              		.loc 1 1587 0
 6531 21d6 4FF48850 		mov	r0, #4352
 6532 21da FFF7FEFF 		bl	LCD_WR_REG
 6533              	.LVL1296:
1588:Src/bsp_tftlcd.c **** 		LCD_WR_REG(0x2900);  
 6534              		.loc 1 1588 0
 6535 21de 0120     		movs	r0, #1
 6536 21e0 FFF7FEFF 		bl	HAL_Delay
 6537              	.LVL1297:
1589:Src/bsp_tftlcd.c **** 	} 
 6538              		.loc 1 1589 0
 6539 21e4 4FF42450 		mov	r0, #10496
 6540 21e8 FFF7FEFF 		bl	LCD_WR_REG
 6541              	.LVL1298:
 6542 21ec FDF7B1BF 		b	.L111
 6543              		.cfi_endproc
 6544              	.LFE136:
 6546              		.section	.text.LCD_ShowChar,"ax",%progbits
 6547              		.align	1
 6548              		.global	LCD_ShowChar
 6549              		.syntax unified
 6550              		.thumb
 6551              		.thumb_func
 6552              		.fpu fpv4-sp-d16
 6554              	LCD_ShowChar:
 6555              	.LFB137:
1604:Src/bsp_tftlcd.c **** 
1605:Src/bsp_tftlcd.c **** 
1606:Src/bsp_tftlcd.c **** //Âú®ÊåáÂÆö‰ΩçÁΩÆÊòæÁ§∫‰∏Ä‰∏™Â≠óÁ¨¶
1607:Src/bsp_tftlcd.c **** //x,y:Ëµ∑ÂßãÂùêÊ†á
1608:Src/bsp_tftlcd.c **** //num:Ë¶ÅÊòæÁ§∫ÁöÑÂ≠óÁ¨¶:" "--->"~"
1609:Src/bsp_tftlcd.c **** //size:Â≠ó‰ΩìÂ§ßÂ∞è 12/16/24/32
1610:Src/bsp_tftlcd.c **** //mode:Âè†Âä†ÊñπÂºè(1)ËøòÊòØÈùûÂè†Âä†ÊñπÂºè(0)
1611:Src/bsp_tftlcd.c **** void LCD_ShowChar(uint16_t x,uint16_t y,uint8_t num,uint8_t size,uint8_t mode)
1612:Src/bsp_tftlcd.c **** {  							  
 6556              		.loc 1 1612 0
 6557              		.cfi_startproc
 6558              		@ args = 4, pretend = 0, frame = 8
 6559              		@ frame_needed = 0, uses_anonymous_args = 0
 6560              	.LVL1299:
 6561 0000 2DE9F04F 		push	{r4, r5, r6, r7, r8, r9, r10, fp, lr}
 6562              	.LCFI17:
 6563              		.cfi_def_cfa_offset 36
 6564              		.cfi_offset 4, -36
 6565              		.cfi_offset 5, -32
 6566              		.cfi_offset 6, -28
 6567              		.cfi_offset 7, -24
 6568              		.cfi_offset 8, -20
 6569              		.cfi_offset 9, -16
ARM GAS  /tmp/cco7znPM.s 			page 165


 6570              		.cfi_offset 10, -12
 6571              		.cfi_offset 11, -8
 6572              		.cfi_offset 14, -4
 6573 0004 83B0     		sub	sp, sp, #12
 6574              	.LCFI18:
 6575              		.cfi_def_cfa_offset 48
 6576 0006 0090     		str	r0, [sp]
 6577 0008 8846     		mov	r8, r1
 6578 000a 1F46     		mov	r7, r3
 6579 000c 9DF830A0 		ldrb	r10, [sp, #48]	@ zero_extendqisi2
 6580              	.LVL1300:
1613:Src/bsp_tftlcd.c ****     uint8_t temp,t1,t;
1614:Src/bsp_tftlcd.c **** 	uint16_t y0=y;
1615:Src/bsp_tftlcd.c **** 	uint8_t csize=(size/8+((size%8)?1:0))*(size/2);		//ÂæóÂà∞Â≠ó‰Ωì‰∏Ä‰∏™Â≠óÁ¨¶ÂØπÂ∫îÁÇπÈòµÈõÜÊâÄÂç†Áö
 6581              		.loc 1 1615 0
 6582 0010 13F00703 		ands	r3, r3, #7
 6583              	.LVL1301:
 6584 0014 18BF     		it	ne
 6585 0016 0123     		movne	r3, #1
 6586 0018 03EBD703 		add	r3, r3, r7, lsr #3
 6587 001c 7908     		lsrs	r1, r7, #1
 6588              	.LVL1302:
 6589 001e 11FB03F3 		smulbb	r3, r1, r3
 6590 0022 DBB2     		uxtb	r3, r3
 6591 0024 0193     		str	r3, [sp, #4]
 6592              	.LVL1303:
1616:Src/bsp_tftlcd.c ****  	num=num-' ';//ÂæóÂà∞ÂÅèÁßªÂêéÁöÑÂÄºÔºàASCIIÂ≠óÂ∫ìÊòØ‰ªéÁ©∫Ê†ºÂºÄÂßãÂèñÊ®°ÔºåÊâÄ‰ª•-' 'Â∞±ÊòØÂØπÂ∫
 6593              		.loc 1 1616 0
 6594 0026 203A     		subs	r2, r2, #32
 6595              	.LVL1304:
 6596 0028 5FFA82FB 		uxtb	fp, r2
 6597              	.LVL1305:
1617:Src/bsp_tftlcd.c **** 	for(t=0;t<csize;t++)
 6598              		.loc 1 1617 0
 6599 002c 4446     		mov	r4, r8
 6600 002e 4FF00009 		mov	r9, #0
 6601 0032 46E0     		b	.L124
 6602              	.LVL1306:
 6603              	.L140:
1618:Src/bsp_tftlcd.c **** 	{   
1619:Src/bsp_tftlcd.c **** 		if(size==12)temp=asc2_1206[num][t]; 	 	//Ë∞ÉÁî®1206Â≠ó‰Ωì
 6604              		.loc 1 1619 0 discriminator 1
 6605 0034 0BEB4B03 		add	r3, fp, fp, lsl #1
 6606 0038 9A00     		lsls	r2, r3, #2
 6607 003a 2C4B     		ldr	r3, .L143
 6608 003c 1344     		add	r3, r3, r2
 6609 003e 13F80950 		ldrb	r5, [r3, r9]	@ zero_extendqisi2
 6610              	.LVL1307:
 6611 0042 4EE0     		b	.L126
 6612              	.LVL1308:
 6613              	.L141:
1620:Src/bsp_tftlcd.c **** 		else if(size==16)temp=asc2_1608[num][t];	//Ë∞ÉÁî®1608Â≠ó‰Ωì
 6614              		.loc 1 1620 0 discriminator 1
 6615 0044 2A4B     		ldr	r3, .L143+4
 6616 0046 03EB0B13 		add	r3, r3, fp, lsl #4
 6617 004a 13F80950 		ldrb	r5, [r3, r9]	@ zero_extendqisi2
 6618              	.LVL1309:
ARM GAS  /tmp/cco7znPM.s 			page 166


 6619 004e 48E0     		b	.L126
 6620              	.LVL1310:
 6621              	.L142:
1621:Src/bsp_tftlcd.c **** 		else if(size==24)temp=asc2_2412[num][t];	//Ë∞ÉÁî®2412Â≠ó‰Ωì
 6622              		.loc 1 1621 0 discriminator 1
 6623 0050 0BEBCB03 		add	r3, fp, fp, lsl #3
 6624 0054 9A00     		lsls	r2, r3, #2
 6625 0056 274B     		ldr	r3, .L143+8
 6626 0058 1344     		add	r3, r3, r2
 6627 005a 13F80950 		ldrb	r5, [r3, r9]	@ zero_extendqisi2
 6628              	.LVL1311:
 6629 005e 40E0     		b	.L126
 6630              	.LVL1312:
 6631              	.L139:
1622:Src/bsp_tftlcd.c **** 		else if(size==32)temp=asc2_3216[num][t];	//Ë∞ÉÁî®3216Â≠ó‰Ωì
1623:Src/bsp_tftlcd.c **** 		else return;								//Ê≤°ÊúâÁöÑÂ≠óÂ∫ì
1624:Src/bsp_tftlcd.c **** 		for(t1=0;t1<8;t1++)
1625:Src/bsp_tftlcd.c **** 		{			    
1626:Src/bsp_tftlcd.c **** 			if(temp&0x80)LCD_Fast_DrawPoint(x,y,POINT_COLOR);
 6632              		.loc 1 1626 0 discriminator 1
 6633 0060 254B     		ldr	r3, .L143+12
 6634 0062 1A68     		ldr	r2, [r3]
 6635 0064 2146     		mov	r1, r4
 6636 0066 0098     		ldr	r0, [sp]
 6637 0068 FFF7FEFF 		bl	LCD_Fast_DrawPoint
 6638              	.LVL1313:
 6639              	.L132:
1627:Src/bsp_tftlcd.c **** 			else if(mode==0)LCD_Fast_DrawPoint(x,y,BACK_COLOR);
1628:Src/bsp_tftlcd.c **** 			temp<<=1;
 6640              		.loc 1 1628 0
 6641 006c 6D00     		lsls	r5, r5, #1
 6642              	.LVL1314:
 6643 006e EDB2     		uxtb	r5, r5
 6644              	.LVL1315:
1629:Src/bsp_tftlcd.c **** 			y++;
 6645              		.loc 1 1629 0
 6646 0070 0134     		adds	r4, r4, #1
 6647              	.LVL1316:
 6648 0072 A4B2     		uxth	r4, r4
 6649              	.LVL1317:
1630:Src/bsp_tftlcd.c **** 			if(y>=lcddev.height)return;		//Ë∂ÖÂå∫Âüü‰∫Ü
 6650              		.loc 1 1630 0
 6651 0074 214B     		ldr	r3, .L143+16
 6652 0076 5B88     		ldrh	r3, [r3, #2]
 6653 0078 9C42     		cmp	r4, r3
 6654 007a 34D2     		bcs	.L123
1631:Src/bsp_tftlcd.c **** 			if((y-y0)==size)
 6655              		.loc 1 1631 0
 6656 007c A4EB0803 		sub	r3, r4, r8
 6657 0080 BB42     		cmp	r3, r7
 6658 0082 10D0     		beq	.L138
1624:Src/bsp_tftlcd.c **** 		{			    
 6659              		.loc 1 1624 0 discriminator 2
 6660 0084 0136     		adds	r6, r6, #1
 6661              	.LVL1318:
 6662 0086 F6B2     		uxtb	r6, r6
 6663              	.LVL1319:
ARM GAS  /tmp/cco7znPM.s 			page 167


 6664              	.L129:
1624:Src/bsp_tftlcd.c **** 		{			    
 6665              		.loc 1 1624 0 is_stmt 0 discriminator 1
 6666 0088 072E     		cmp	r6, #7
 6667 008a 16D8     		bhi	.L134
1626:Src/bsp_tftlcd.c **** 			else if(mode==0)LCD_Fast_DrawPoint(x,y,BACK_COLOR);
 6668              		.loc 1 1626 0 is_stmt 1
 6669 008c 15F0800F 		tst	r5, #128
 6670 0090 E6D1     		bne	.L139
1627:Src/bsp_tftlcd.c **** 			temp<<=1;
 6671              		.loc 1 1627 0
 6672 0092 BAF1000F 		cmp	r10, #0
 6673 0096 E9D1     		bne	.L132
1627:Src/bsp_tftlcd.c **** 			temp<<=1;
 6674              		.loc 1 1627 0 is_stmt 0 discriminator 1
 6675 0098 194B     		ldr	r3, .L143+20
 6676 009a 1A68     		ldr	r2, [r3]
 6677 009c 2146     		mov	r1, r4
 6678 009e 0098     		ldr	r0, [sp]
 6679 00a0 FFF7FEFF 		bl	LCD_Fast_DrawPoint
 6680              	.LVL1320:
 6681 00a4 E2E7     		b	.L132
 6682              	.L138:
 6683              	.LVL1321:
1632:Src/bsp_tftlcd.c **** 			{
1633:Src/bsp_tftlcd.c **** 				y=y0;
1634:Src/bsp_tftlcd.c **** 				x++;
 6684              		.loc 1 1634 0 is_stmt 1
 6685 00a6 009B     		ldr	r3, [sp]
 6686 00a8 0133     		adds	r3, r3, #1
 6687 00aa 9BB2     		uxth	r3, r3
 6688 00ac 1A46     		mov	r2, r3
 6689 00ae 0093     		str	r3, [sp]
 6690              	.LVL1322:
1635:Src/bsp_tftlcd.c **** 				if(x>=lcddev.width)return;	//Ë∂ÖÂå∫Âüü‰∫Ü
 6691              		.loc 1 1635 0
 6692 00b0 124B     		ldr	r3, .L143+16
 6693 00b2 1B88     		ldrh	r3, [r3]
 6694 00b4 9A42     		cmp	r2, r3
 6695 00b6 16D2     		bcs	.L123
1633:Src/bsp_tftlcd.c **** 				x++;
 6696              		.loc 1 1633 0
 6697 00b8 4446     		mov	r4, r8
 6698              	.LVL1323:
 6699              	.L134:
1617:Src/bsp_tftlcd.c **** 	{   
 6700              		.loc 1 1617 0 discriminator 2
 6701 00ba 09F10109 		add	r9, r9, #1
 6702              	.LVL1324:
 6703 00be 5FFA89F9 		uxtb	r9, r9
 6704              	.LVL1325:
 6705              	.L124:
1617:Src/bsp_tftlcd.c **** 	{   
 6706              		.loc 1 1617 0 is_stmt 0 discriminator 1
 6707 00c2 019B     		ldr	r3, [sp, #4]
 6708 00c4 9945     		cmp	r9, r3
 6709 00c6 0ED2     		bcs	.L123
ARM GAS  /tmp/cco7znPM.s 			page 168


1619:Src/bsp_tftlcd.c **** 		else if(size==16)temp=asc2_1608[num][t];	//Ë∞ÉÁî®1608Â≠ó‰Ωì
 6710              		.loc 1 1619 0 is_stmt 1
 6711 00c8 0C2F     		cmp	r7, #12
 6712 00ca B3D0     		beq	.L140
1620:Src/bsp_tftlcd.c **** 		else if(size==24)temp=asc2_2412[num][t];	//Ë∞ÉÁî®2412Â≠ó‰Ωì
 6713              		.loc 1 1620 0
 6714 00cc 102F     		cmp	r7, #16
 6715 00ce B9D0     		beq	.L141
1621:Src/bsp_tftlcd.c **** 		else if(size==32)temp=asc2_3216[num][t];	//Ë∞ÉÁî®3216Â≠ó‰Ωì
 6716              		.loc 1 1621 0
 6717 00d0 182F     		cmp	r7, #24
 6718 00d2 BDD0     		beq	.L142
1622:Src/bsp_tftlcd.c **** 		else return;								//Ê≤°ÊúâÁöÑÂ≠óÂ∫ì
 6719              		.loc 1 1622 0
 6720 00d4 202F     		cmp	r7, #32
 6721 00d6 06D1     		bne	.L123
1622:Src/bsp_tftlcd.c **** 		else return;								//Ê≤°ÊúâÁöÑÂ≠óÂ∫ì
 6722              		.loc 1 1622 0 is_stmt 0 discriminator 1
 6723 00d8 0A4B     		ldr	r3, .L143+24
 6724 00da 03EBCB13 		add	r3, r3, fp, lsl #7
 6725 00de 13F80950 		ldrb	r5, [r3, r9]	@ zero_extendqisi2
 6726              	.LVL1326:
 6727              	.L126:
1612:Src/bsp_tftlcd.c ****     uint8_t temp,t1,t;
 6728              		.loc 1 1612 0 is_stmt 1 discriminator 1
 6729 00e2 0026     		movs	r6, #0
 6730 00e4 D0E7     		b	.L129
 6731              	.LVL1327:
 6732              	.L123:
1636:Src/bsp_tftlcd.c **** 				break;
1637:Src/bsp_tftlcd.c **** 			}
1638:Src/bsp_tftlcd.c **** 		}  	 
1639:Src/bsp_tftlcd.c **** 	}  	    	   	 	  
1640:Src/bsp_tftlcd.c **** }  
 6733              		.loc 1 1640 0
 6734 00e6 03B0     		add	sp, sp, #12
 6735              	.LCFI19:
 6736              		.cfi_def_cfa_offset 36
 6737              		@ sp needed
 6738 00e8 BDE8F08F 		pop	{r4, r5, r6, r7, r8, r9, r10, fp, pc}
 6739              	.LVL1328:
 6740              	.L144:
 6741              		.align	2
 6742              	.L143:
 6743 00ec 00000000 		.word	.LANCHOR1
 6744 00f0 00000000 		.word	.LANCHOR2
 6745 00f4 00000000 		.word	.LANCHOR3
 6746 00f8 00000000 		.word	.LANCHOR0
 6747 00fc 00000000 		.word	lcddev
 6748 0100 00000000 		.word	.LANCHOR5
 6749 0104 00000000 		.word	.LANCHOR4
 6750              		.cfi_endproc
 6751              	.LFE137:
 6753              		.section	.text.LCD_ShowString,"ax",%progbits
 6754              		.align	1
 6755              		.global	LCD_ShowString
 6756              		.syntax unified
ARM GAS  /tmp/cco7znPM.s 			page 169


 6757              		.thumb
 6758              		.thumb_func
 6759              		.fpu fpv4-sp-d16
 6761              	LCD_ShowString:
 6762              	.LFB138:
1641:Src/bsp_tftlcd.c **** //ÊòæÁ§∫Â≠óÁ¨¶‰∏≤
1642:Src/bsp_tftlcd.c **** //x,y:Ëµ∑ÁÇπÂùêÊ†á
1643:Src/bsp_tftlcd.c **** //width,height:Âå∫ÂüüÂ§ßÂ∞è  
1644:Src/bsp_tftlcd.c **** //size:Â≠ó‰ΩìÂ§ßÂ∞è
1645:Src/bsp_tftlcd.c **** //*p:Â≠óÁ¨¶‰∏≤Ëµ∑ÂßãÂú∞ÂùÄ		  
1646:Src/bsp_tftlcd.c **** void LCD_ShowString(uint16_t x,uint16_t y,uint16_t width,uint16_t height,uint8_t size,char *p)
1647:Src/bsp_tftlcd.c **** {         
 6763              		.loc 1 1647 0
 6764              		.cfi_startproc
 6765              		@ args = 8, pretend = 0, frame = 0
 6766              		@ frame_needed = 0, uses_anonymous_args = 0
 6767              	.LVL1329:
 6768 0000 2DE9F047 		push	{r4, r5, r6, r7, r8, r9, r10, lr}
 6769              	.LCFI20:
 6770              		.cfi_def_cfa_offset 32
 6771              		.cfi_offset 4, -32
 6772              		.cfi_offset 5, -28
 6773              		.cfi_offset 6, -24
 6774              		.cfi_offset 7, -20
 6775              		.cfi_offset 8, -16
 6776              		.cfi_offset 9, -12
 6777              		.cfi_offset 10, -8
 6778              		.cfi_offset 14, -4
 6779 0004 82B0     		sub	sp, sp, #8
 6780              	.LCFI21:
 6781              		.cfi_def_cfa_offset 40
 6782 0006 8246     		mov	r10, r0
 6783 0008 0D46     		mov	r5, r1
 6784 000a 9DF82870 		ldrb	r7, [sp, #40]	@ zero_extendqisi2
 6785 000e 0B9E     		ldr	r6, [sp, #44]
 6786              	.LVL1330:
1648:Src/bsp_tftlcd.c **** 	uint8_t x0=x;
1649:Src/bsp_tftlcd.c **** 	width+=x;
 6787              		.loc 1 1649 0
 6788 0010 0244     		add	r2, r2, r0
 6789              	.LVL1331:
 6790 0012 1FFA82F9 		uxth	r9, r2
 6791              	.LVL1332:
1650:Src/bsp_tftlcd.c **** 	height+=y;
 6792              		.loc 1 1650 0
 6793 0016 0B44     		add	r3, r3, r1
 6794              	.LVL1333:
 6795 0018 1FFA83F8 		uxth	r8, r3
 6796              	.LVL1334:
1651:Src/bsp_tftlcd.c ****     while((*p<='~')&&(*p>=' '))//Âà§Êñ≠ÊòØ‰∏çÊòØÈùûÊ≥ïÂ≠óÁ¨¶!
 6797              		.loc 1 1651 0
 6798 001c 0446     		mov	r4, r0
 6799 001e 0CE0     		b	.L146
 6800              	.LVL1335:
 6801              	.L147:
1652:Src/bsp_tftlcd.c ****     {       
1653:Src/bsp_tftlcd.c ****         if(x>=width){x=x0;y+=size;}
ARM GAS  /tmp/cco7znPM.s 			page 170


1654:Src/bsp_tftlcd.c ****         if(y>=height)break;//ÈÄÄÂá∫
 6802              		.loc 1 1654 0
 6803 0020 4545     		cmp	r5, r8
 6804 0022 17D2     		bcs	.L145
1655:Src/bsp_tftlcd.c ****         LCD_ShowChar(x,y,*p,size,0);
 6805              		.loc 1 1655 0
 6806 0024 0023     		movs	r3, #0
 6807 0026 0093     		str	r3, [sp]
 6808 0028 3B46     		mov	r3, r7
 6809 002a 2946     		mov	r1, r5
 6810 002c 2046     		mov	r0, r4
 6811 002e FFF7FEFF 		bl	LCD_ShowChar
 6812              	.LVL1336:
1656:Src/bsp_tftlcd.c ****         x+=size/2;
 6813              		.loc 1 1656 0
 6814 0032 04EB5704 		add	r4, r4, r7, lsr #1
 6815              	.LVL1337:
 6816 0036 A4B2     		uxth	r4, r4
 6817              	.LVL1338:
1657:Src/bsp_tftlcd.c ****         p++;
 6818              		.loc 1 1657 0
 6819 0038 0136     		adds	r6, r6, #1
 6820              	.LVL1339:
 6821              	.L146:
1651:Src/bsp_tftlcd.c ****     {       
 6822              		.loc 1 1651 0
 6823 003a 3278     		ldrb	r2, [r6]	@ zero_extendqisi2
 6824 003c A2F12003 		sub	r3, r2, #32
 6825 0040 DBB2     		uxtb	r3, r3
 6826 0042 5E2B     		cmp	r3, #94
 6827 0044 06D8     		bhi	.L145
1653:Src/bsp_tftlcd.c ****         if(y>=height)break;//ÈÄÄÂá∫
 6828              		.loc 1 1653 0
 6829 0046 4C45     		cmp	r4, r9
 6830 0048 EAD3     		bcc	.L147
 6831 004a 5FFA8AF4 		uxtb	r4, r10
 6832              	.LVL1340:
1653:Src/bsp_tftlcd.c ****         if(y>=height)break;//ÈÄÄÂá∫
 6833              		.loc 1 1653 0 is_stmt 0 discriminator 1
 6834 004e 3D44     		add	r5, r5, r7
 6835              	.LVL1341:
 6836 0050 ADB2     		uxth	r5, r5
 6837              	.LVL1342:
 6838 0052 E5E7     		b	.L147
 6839              	.L145:
1658:Src/bsp_tftlcd.c ****     }  
1659:Src/bsp_tftlcd.c **** }...
 6840              		.loc 1 1659 0 is_stmt 1
 6841 0054 02B0     		add	sp, sp, #8
 6842              	.LCFI22:
 6843              		.cfi_def_cfa_offset 32
 6844              		@ sp needed
 6845 0056 BDE8F087 		pop	{r4, r5, r6, r7, r8, r9, r10, pc}
 6846              		.cfi_endproc
 6847              	.LFE138:
 6849              		.global	BACK_COLOR
 6850              		.global	POINT_COLOR
ARM GAS  /tmp/cco7znPM.s 			page 171


 6851              		.comm	lcddev,14,4
 6852              		.comm	SRAM_Handler,80,4
 6853              		.global	asc2_3216
 6854              		.global	asc2_2412
 6855              		.global	asc2_1608
 6856              		.global	asc2_1206
 6857              		.section	.data.BACK_COLOR,"aw",%progbits
 6858              		.align	2
 6859              		.set	.LANCHOR5,. + 0
 6862              	BACK_COLOR:
 6863 0000 FFFFFFFF 		.word	-1
 6864              		.section	.data.POINT_COLOR,"aw",%progbits
 6865              		.align	2
 6866              		.set	.LANCHOR0,. + 0
 6869              	POINT_COLOR:
 6870 0000 000000FF 		.word	-16777216
 6871              		.section	.rodata.LCD_Init.str1.4,"aMS",%progbits,1
 6872              		.align	2
 6873              	.LC0:
 6874 0000 204C4344 		.ascii	" LCD ID:%x\015\012\000"
 6874      2049443A 
 6874      25780D0A 
 6874      00
 6875              		.section	.rodata.asc2_1206,"a",%progbits
 6876              		.align	2
 6877              		.set	.LANCHOR1,. + 0
 6880              	asc2_1206:
 6881 0000 00       		.byte	0
 6882 0001 00       		.byte	0
 6883 0002 00       		.byte	0
 6884 0003 00       		.byte	0
 6885 0004 00       		.byte	0
 6886 0005 00       		.byte	0
 6887 0006 00       		.byte	0
 6888 0007 00       		.byte	0
 6889 0008 00       		.byte	0
 6890 0009 00       		.byte	0
 6891 000a 00       		.byte	0
 6892 000b 00       		.byte	0
 6893 000c 00       		.byte	0
 6894 000d 00       		.byte	0
 6895 000e 00       		.byte	0
 6896 000f 00       		.byte	0
 6897 0010 3F       		.byte	63
 6898 0011 40       		.byte	64
 6899 0012 00       		.byte	0
 6900 0013 00       		.byte	0
 6901 0014 00       		.byte	0
 6902 0015 00       		.byte	0
 6903 0016 00       		.byte	0
 6904 0017 00       		.byte	0
 6905 0018 00       		.byte	0
 6906 0019 00       		.byte	0
 6907 001a 30       		.byte	48
 6908 001b 00       		.byte	0
 6909 001c 40       		.byte	64
 6910 001d 00       		.byte	0
ARM GAS  /tmp/cco7znPM.s 			page 172


 6911 001e 30       		.byte	48
 6912 001f 00       		.byte	0
 6913 0020 40       		.byte	64
 6914 0021 00       		.byte	0
 6915 0022 00       		.byte	0
 6916 0023 00       		.byte	0
 6917 0024 09       		.byte	9
 6918 0025 00       		.byte	0
 6919 0026 0B       		.byte	11
 6920 0027 C0       		.byte	-64
 6921 0028 3D       		.byte	61
 6922 0029 00       		.byte	0
 6923 002a 0B       		.byte	11
 6924 002b C0       		.byte	-64
 6925 002c 3D       		.byte	61
 6926 002d 00       		.byte	0
 6927 002e 09       		.byte	9
 6928 002f 00       		.byte	0
 6929 0030 18       		.byte	24
 6930 0031 C0       		.byte	-64
 6931 0032 24       		.byte	36
 6932 0033 40       		.byte	64
 6933 0034 7F       		.byte	127
 6934 0035 E0       		.byte	-32
 6935 0036 22       		.byte	34
 6936 0037 40       		.byte	64
 6937 0038 31       		.byte	49
 6938 0039 80       		.byte	-128
 6939 003a 00       		.byte	0
 6940 003b 00       		.byte	0
 6941 003c 18       		.byte	24
 6942 003d 00       		.byte	0
 6943 003e 24       		.byte	36
 6944 003f C0       		.byte	-64
 6945 0040 1B       		.byte	27
 6946 0041 00       		.byte	0
 6947 0042 0D       		.byte	13
 6948 0043 80       		.byte	-128
 6949 0044 32       		.byte	50
 6950 0045 40       		.byte	64
 6951 0046 01       		.byte	1
 6952 0047 80       		.byte	-128
 6953 0048 03       		.byte	3
 6954 0049 80       		.byte	-128
 6955 004a 1C       		.byte	28
 6956 004b 40       		.byte	64
 6957 004c 27       		.byte	39
 6958 004d 40       		.byte	64
 6959 004e 1C       		.byte	28
 6960 004f 80       		.byte	-128
 6961 0050 07       		.byte	7
 6962 0051 40       		.byte	64
 6963 0052 00       		.byte	0
 6964 0053 40       		.byte	64
 6965 0054 10       		.byte	16
 6966 0055 00       		.byte	0
 6967 0056 60       		.byte	96
ARM GAS  /tmp/cco7znPM.s 			page 173


 6968 0057 00       		.byte	0
 6969 0058 00       		.byte	0
 6970 0059 00       		.byte	0
 6971 005a 00       		.byte	0
 6972 005b 00       		.byte	0
 6973 005c 00       		.byte	0
 6974 005d 00       		.byte	0
 6975 005e 00       		.byte	0
 6976 005f 00       		.byte	0
 6977 0060 00       		.byte	0
 6978 0061 00       		.byte	0
 6979 0062 00       		.byte	0
 6980 0063 00       		.byte	0
 6981 0064 00       		.byte	0
 6982 0065 00       		.byte	0
 6983 0066 1F       		.byte	31
 6984 0067 80       		.byte	-128
 6985 0068 20       		.byte	32
 6986 0069 40       		.byte	64
 6987 006a 40       		.byte	64
 6988 006b 20       		.byte	32
 6989 006c 00       		.byte	0
 6990 006d 00       		.byte	0
 6991 006e 40       		.byte	64
 6992 006f 20       		.byte	32
 6993 0070 20       		.byte	32
 6994 0071 40       		.byte	64
 6995 0072 1F       		.byte	31
 6996 0073 80       		.byte	-128
 6997 0074 00       		.byte	0
 6998 0075 00       		.byte	0
 6999 0076 00       		.byte	0
 7000 0077 00       		.byte	0
 7001 0078 09       		.byte	9
 7002 0079 00       		.byte	0
 7003 007a 06       		.byte	6
 7004 007b 00       		.byte	0
 7005 007c 1F       		.byte	31
 7006 007d 80       		.byte	-128
 7007 007e 06       		.byte	6
 7008 007f 00       		.byte	0
 7009 0080 09       		.byte	9
 7010 0081 00       		.byte	0
 7011 0082 00       		.byte	0
 7012 0083 00       		.byte	0
 7013 0084 04       		.byte	4
 7014 0085 00       		.byte	0
 7015 0086 04       		.byte	4
 7016 0087 00       		.byte	0
 7017 0088 3F       		.byte	63
 7018 0089 80       		.byte	-128
 7019 008a 04       		.byte	4
 7020 008b 00       		.byte	0
 7021 008c 04       		.byte	4
 7022 008d 00       		.byte	0
 7023 008e 00       		.byte	0
 7024 008f 00       		.byte	0
ARM GAS  /tmp/cco7znPM.s 			page 174


 7025 0090 00       		.byte	0
 7026 0091 10       		.byte	16
 7027 0092 00       		.byte	0
 7028 0093 60       		.byte	96
 7029 0094 00       		.byte	0
 7030 0095 00       		.byte	0
 7031 0096 00       		.byte	0
 7032 0097 00       		.byte	0
 7033 0098 00       		.byte	0
 7034 0099 00       		.byte	0
 7035 009a 00       		.byte	0
 7036 009b 00       		.byte	0
 7037 009c 04       		.byte	4
 7038 009d 00       		.byte	0
 7039 009e 04       		.byte	4
 7040 009f 00       		.byte	0
 7041 00a0 04       		.byte	4
 7042 00a1 00       		.byte	0
 7043 00a2 04       		.byte	4
 7044 00a3 00       		.byte	0
 7045 00a4 04       		.byte	4
 7046 00a5 00       		.byte	0
 7047 00a6 00       		.byte	0
 7048 00a7 00       		.byte	0
 7049 00a8 00       		.byte	0
 7050 00a9 00       		.byte	0
 7051 00aa 00       		.byte	0
 7052 00ab 40       		.byte	64
 7053 00ac 00       		.byte	0
 7054 00ad 00       		.byte	0
 7055 00ae 00       		.byte	0
 7056 00af 00       		.byte	0
 7057 00b0 00       		.byte	0
 7058 00b1 00       		.byte	0
 7059 00b2 00       		.byte	0
 7060 00b3 00       		.byte	0
 7061 00b4 00       		.byte	0
 7062 00b5 20       		.byte	32
 7063 00b6 01       		.byte	1
 7064 00b7 C0       		.byte	-64
 7065 00b8 06       		.byte	6
 7066 00b9 00       		.byte	0
 7067 00ba 38       		.byte	56
 7068 00bb 00       		.byte	0
 7069 00bc 40       		.byte	64
 7070 00bd 00       		.byte	0
 7071 00be 00       		.byte	0
 7072 00bf 00       		.byte	0
 7073 00c0 1F       		.byte	31
 7074 00c1 80       		.byte	-128
 7075 00c2 20       		.byte	32
 7076 00c3 40       		.byte	64
 7077 00c4 20       		.byte	32
 7078 00c5 40       		.byte	64
 7079 00c6 20       		.byte	32
 7080 00c7 40       		.byte	64
 7081 00c8 1F       		.byte	31
ARM GAS  /tmp/cco7znPM.s 			page 175


 7082 00c9 80       		.byte	-128
 7083 00ca 00       		.byte	0
 7084 00cb 00       		.byte	0
 7085 00cc 00       		.byte	0
 7086 00cd 00       		.byte	0
 7087 00ce 10       		.byte	16
 7088 00cf 40       		.byte	64
 7089 00d0 3F       		.byte	63
 7090 00d1 C0       		.byte	-64
 7091 00d2 00       		.byte	0
 7092 00d3 40       		.byte	64
 7093 00d4 00       		.byte	0
 7094 00d5 00       		.byte	0
 7095 00d6 00       		.byte	0
 7096 00d7 00       		.byte	0
 7097 00d8 18       		.byte	24
 7098 00d9 C0       		.byte	-64
 7099 00da 21       		.byte	33
 7100 00db 40       		.byte	64
 7101 00dc 22       		.byte	34
 7102 00dd 40       		.byte	64
 7103 00de 24       		.byte	36
 7104 00df 40       		.byte	64
 7105 00e0 18       		.byte	24
 7106 00e1 40       		.byte	64
 7107 00e2 00       		.byte	0
 7108 00e3 00       		.byte	0
 7109 00e4 10       		.byte	16
 7110 00e5 80       		.byte	-128
 7111 00e6 20       		.byte	32
 7112 00e7 40       		.byte	64
 7113 00e8 24       		.byte	36
 7114 00e9 40       		.byte	64
 7115 00ea 24       		.byte	36
 7116 00eb 40       		.byte	64
 7117 00ec 1B       		.byte	27
 7118 00ed 80       		.byte	-128
 7119 00ee 00       		.byte	0
 7120 00ef 00       		.byte	0
 7121 00f0 02       		.byte	2
 7122 00f1 00       		.byte	0
 7123 00f2 0D       		.byte	13
 7124 00f3 00       		.byte	0
 7125 00f4 11       		.byte	17
 7126 00f5 00       		.byte	0
 7127 00f6 3F       		.byte	63
 7128 00f7 C0       		.byte	-64
 7129 00f8 01       		.byte	1
 7130 00f9 40       		.byte	64
 7131 00fa 00       		.byte	0
 7132 00fb 00       		.byte	0
 7133 00fc 3C       		.byte	60
 7134 00fd 80       		.byte	-128
 7135 00fe 24       		.byte	36
 7136 00ff 40       		.byte	64
 7137 0100 24       		.byte	36
 7138 0101 40       		.byte	64
ARM GAS  /tmp/cco7znPM.s 			page 176


 7139 0102 24       		.byte	36
 7140 0103 40       		.byte	64
 7141 0104 23       		.byte	35
 7142 0105 80       		.byte	-128
 7143 0106 00       		.byte	0
 7144 0107 00       		.byte	0
 7145 0108 1F       		.byte	31
 7146 0109 80       		.byte	-128
 7147 010a 24       		.byte	36
 7148 010b 40       		.byte	64
 7149 010c 24       		.byte	36
 7150 010d 40       		.byte	64
 7151 010e 34       		.byte	52
 7152 010f 40       		.byte	64
 7153 0110 03       		.byte	3
 7154 0111 80       		.byte	-128
 7155 0112 00       		.byte	0
 7156 0113 00       		.byte	0
 7157 0114 30       		.byte	48
 7158 0115 00       		.byte	0
 7159 0116 20       		.byte	32
 7160 0117 00       		.byte	0
 7161 0118 27       		.byte	39
 7162 0119 C0       		.byte	-64
 7163 011a 38       		.byte	56
 7164 011b 00       		.byte	0
 7165 011c 20       		.byte	32
 7166 011d 00       		.byte	0
 7167 011e 00       		.byte	0
 7168 011f 00       		.byte	0
 7169 0120 1B       		.byte	27
 7170 0121 80       		.byte	-128
 7171 0122 24       		.byte	36
 7172 0123 40       		.byte	64
 7173 0124 24       		.byte	36
 7174 0125 40       		.byte	64
 7175 0126 24       		.byte	36
 7176 0127 40       		.byte	64
 7177 0128 1B       		.byte	27
 7178 0129 80       		.byte	-128
 7179 012a 00       		.byte	0
 7180 012b 00       		.byte	0
 7181 012c 1C       		.byte	28
 7182 012d 00       		.byte	0
 7183 012e 22       		.byte	34
 7184 012f C0       		.byte	-64
 7185 0130 22       		.byte	34
 7186 0131 40       		.byte	64
 7187 0132 22       		.byte	34
 7188 0133 40       		.byte	64
 7189 0134 1F       		.byte	31
 7190 0135 80       		.byte	-128
 7191 0136 00       		.byte	0
 7192 0137 00       		.byte	0
 7193 0138 00       		.byte	0
 7194 0139 00       		.byte	0
 7195 013a 00       		.byte	0
ARM GAS  /tmp/cco7znPM.s 			page 177


 7196 013b 00       		.byte	0
 7197 013c 08       		.byte	8
 7198 013d 40       		.byte	64
 7199 013e 00       		.byte	0
 7200 013f 00       		.byte	0
 7201 0140 00       		.byte	0
 7202 0141 00       		.byte	0
 7203 0142 00       		.byte	0
 7204 0143 00       		.byte	0
 7205 0144 00       		.byte	0
 7206 0145 00       		.byte	0
 7207 0146 00       		.byte	0
 7208 0147 00       		.byte	0
 7209 0148 04       		.byte	4
 7210 0149 60       		.byte	96
 7211 014a 00       		.byte	0
 7212 014b 00       		.byte	0
 7213 014c 00       		.byte	0
 7214 014d 00       		.byte	0
 7215 014e 00       		.byte	0
 7216 014f 00       		.byte	0
 7217 0150 00       		.byte	0
 7218 0151 00       		.byte	0
 7219 0152 04       		.byte	4
 7220 0153 00       		.byte	0
 7221 0154 0A       		.byte	10
 7222 0155 00       		.byte	0
 7223 0156 11       		.byte	17
 7224 0157 00       		.byte	0
 7225 0158 20       		.byte	32
 7226 0159 80       		.byte	-128
 7227 015a 40       		.byte	64
 7228 015b 40       		.byte	64
 7229 015c 09       		.byte	9
 7230 015d 00       		.byte	0
 7231 015e 09       		.byte	9
 7232 015f 00       		.byte	0
 7233 0160 09       		.byte	9
 7234 0161 00       		.byte	0
 7235 0162 09       		.byte	9
 7236 0163 00       		.byte	0
 7237 0164 09       		.byte	9
 7238 0165 00       		.byte	0
 7239 0166 00       		.byte	0
 7240 0167 00       		.byte	0
 7241 0168 00       		.byte	0
 7242 0169 00       		.byte	0
 7243 016a 40       		.byte	64
 7244 016b 40       		.byte	64
 7245 016c 20       		.byte	32
 7246 016d 80       		.byte	-128
 7247 016e 11       		.byte	17
 7248 016f 00       		.byte	0
 7249 0170 0A       		.byte	10
 7250 0171 00       		.byte	0
 7251 0172 04       		.byte	4
 7252 0173 00       		.byte	0
ARM GAS  /tmp/cco7znPM.s 			page 178


 7253 0174 18       		.byte	24
 7254 0175 00       		.byte	0
 7255 0176 20       		.byte	32
 7256 0177 00       		.byte	0
 7257 0178 23       		.byte	35
 7258 0179 40       		.byte	64
 7259 017a 24       		.byte	36
 7260 017b 00       		.byte	0
 7261 017c 18       		.byte	24
 7262 017d 00       		.byte	0
 7263 017e 00       		.byte	0
 7264 017f 00       		.byte	0
 7265 0180 1F       		.byte	31
 7266 0181 80       		.byte	-128
 7267 0182 20       		.byte	32
 7268 0183 40       		.byte	64
 7269 0184 27       		.byte	39
 7270 0185 40       		.byte	64
 7271 0186 29       		.byte	41
 7272 0187 40       		.byte	64
 7273 0188 1F       		.byte	31
 7274 0189 40       		.byte	64
 7275 018a 00       		.byte	0
 7276 018b 00       		.byte	0
 7277 018c 00       		.byte	0
 7278 018d 40       		.byte	64
 7279 018e 07       		.byte	7
 7280 018f C0       		.byte	-64
 7281 0190 39       		.byte	57
 7282 0191 00       		.byte	0
 7283 0192 0F       		.byte	15
 7284 0193 00       		.byte	0
 7285 0194 01       		.byte	1
 7286 0195 C0       		.byte	-64
 7287 0196 00       		.byte	0
 7288 0197 40       		.byte	64
 7289 0198 20       		.byte	32
 7290 0199 40       		.byte	64
 7291 019a 3F       		.byte	63
 7292 019b C0       		.byte	-64
 7293 019c 24       		.byte	36
 7294 019d 40       		.byte	64
 7295 019e 24       		.byte	36
 7296 019f 40       		.byte	64
 7297 01a0 1B       		.byte	27
 7298 01a1 80       		.byte	-128
 7299 01a2 00       		.byte	0
 7300 01a3 00       		.byte	0
 7301 01a4 1F       		.byte	31
 7302 01a5 80       		.byte	-128
 7303 01a6 20       		.byte	32
 7304 01a7 40       		.byte	64
 7305 01a8 20       		.byte	32
 7306 01a9 40       		.byte	64
 7307 01aa 20       		.byte	32
 7308 01ab 40       		.byte	64
 7309 01ac 30       		.byte	48
ARM GAS  /tmp/cco7znPM.s 			page 179


 7310 01ad 80       		.byte	-128
 7311 01ae 00       		.byte	0
 7312 01af 00       		.byte	0
 7313 01b0 20       		.byte	32
 7314 01b1 40       		.byte	64
 7315 01b2 3F       		.byte	63
 7316 01b3 C0       		.byte	-64
 7317 01b4 20       		.byte	32
 7318 01b5 40       		.byte	64
 7319 01b6 20       		.byte	32
 7320 01b7 40       		.byte	64
 7321 01b8 1F       		.byte	31
 7322 01b9 80       		.byte	-128
 7323 01ba 00       		.byte	0
 7324 01bb 00       		.byte	0
 7325 01bc 20       		.byte	32
 7326 01bd 40       		.byte	64
 7327 01be 3F       		.byte	63
 7328 01bf C0       		.byte	-64
 7329 01c0 24       		.byte	36
 7330 01c1 40       		.byte	64
 7331 01c2 2E       		.byte	46
 7332 01c3 40       		.byte	64
 7333 01c4 30       		.byte	48
 7334 01c5 C0       		.byte	-64
 7335 01c6 00       		.byte	0
 7336 01c7 00       		.byte	0
 7337 01c8 20       		.byte	32
 7338 01c9 40       		.byte	64
 7339 01ca 3F       		.byte	63
 7340 01cb C0       		.byte	-64
 7341 01cc 24       		.byte	36
 7342 01cd 40       		.byte	64
 7343 01ce 2E       		.byte	46
 7344 01cf 00       		.byte	0
 7345 01d0 30       		.byte	48
 7346 01d1 00       		.byte	0
 7347 01d2 00       		.byte	0
 7348 01d3 00       		.byte	0
 7349 01d4 0F       		.byte	15
 7350 01d5 00       		.byte	0
 7351 01d6 10       		.byte	16
 7352 01d7 80       		.byte	-128
 7353 01d8 20       		.byte	32
 7354 01d9 40       		.byte	64
 7355 01da 22       		.byte	34
 7356 01db 40       		.byte	64
 7357 01dc 33       		.byte	51
 7358 01dd 80       		.byte	-128
 7359 01de 02       		.byte	2
 7360 01df 00       		.byte	0
 7361 01e0 20       		.byte	32
 7362 01e1 40       		.byte	64
 7363 01e2 3F       		.byte	63
 7364 01e3 C0       		.byte	-64
 7365 01e4 04       		.byte	4
 7366 01e5 00       		.byte	0
ARM GAS  /tmp/cco7znPM.s 			page 180


 7367 01e6 04       		.byte	4
 7368 01e7 00       		.byte	0
 7369 01e8 3F       		.byte	63
 7370 01e9 C0       		.byte	-64
 7371 01ea 20       		.byte	32
 7372 01eb 40       		.byte	64
 7373 01ec 20       		.byte	32
 7374 01ed 40       		.byte	64
 7375 01ee 20       		.byte	32
 7376 01ef 40       		.byte	64
 7377 01f0 3F       		.byte	63
 7378 01f1 C0       		.byte	-64
 7379 01f2 20       		.byte	32
 7380 01f3 40       		.byte	64
 7381 01f4 20       		.byte	32
 7382 01f5 40       		.byte	64
 7383 01f6 00       		.byte	0
 7384 01f7 00       		.byte	0
 7385 01f8 00       		.byte	0
 7386 01f9 60       		.byte	96
 7387 01fa 20       		.byte	32
 7388 01fb 20       		.byte	32
 7389 01fc 20       		.byte	32
 7390 01fd 20       		.byte	32
 7391 01fe 3F       		.byte	63
 7392 01ff C0       		.byte	-64
 7393 0200 20       		.byte	32
 7394 0201 00       		.byte	0
 7395 0202 20       		.byte	32
 7396 0203 00       		.byte	0
 7397 0204 20       		.byte	32
 7398 0205 40       		.byte	64
 7399 0206 3F       		.byte	63
 7400 0207 C0       		.byte	-64
 7401 0208 24       		.byte	36
 7402 0209 40       		.byte	64
 7403 020a 0B       		.byte	11
 7404 020b 00       		.byte	0
 7405 020c 30       		.byte	48
 7406 020d C0       		.byte	-64
 7407 020e 20       		.byte	32
 7408 020f 40       		.byte	64
 7409 0210 20       		.byte	32
 7410 0211 40       		.byte	64
 7411 0212 3F       		.byte	63
 7412 0213 C0       		.byte	-64
 7413 0214 20       		.byte	32
 7414 0215 40       		.byte	64
 7415 0216 00       		.byte	0
 7416 0217 40       		.byte	64
 7417 0218 00       		.byte	0
 7418 0219 40       		.byte	64
 7419 021a 00       		.byte	0
 7420 021b C0       		.byte	-64
 7421 021c 3F       		.byte	63
 7422 021d C0       		.byte	-64
 7423 021e 3C       		.byte	60
ARM GAS  /tmp/cco7znPM.s 			page 181


 7424 021f 00       		.byte	0
 7425 0220 03       		.byte	3
 7426 0221 C0       		.byte	-64
 7427 0222 3C       		.byte	60
 7428 0223 00       		.byte	0
 7429 0224 3F       		.byte	63
 7430 0225 C0       		.byte	-64
 7431 0226 00       		.byte	0
 7432 0227 00       		.byte	0
 7433 0228 20       		.byte	32
 7434 0229 40       		.byte	64
 7435 022a 3F       		.byte	63
 7436 022b C0       		.byte	-64
 7437 022c 0C       		.byte	12
 7438 022d 40       		.byte	64
 7439 022e 23       		.byte	35
 7440 022f 00       		.byte	0
 7441 0230 3F       		.byte	63
 7442 0231 C0       		.byte	-64
 7443 0232 20       		.byte	32
 7444 0233 00       		.byte	0
 7445 0234 1F       		.byte	31
 7446 0235 80       		.byte	-128
 7447 0236 20       		.byte	32
 7448 0237 40       		.byte	64
 7449 0238 20       		.byte	32
 7450 0239 40       		.byte	64
 7451 023a 20       		.byte	32
 7452 023b 40       		.byte	64
 7453 023c 1F       		.byte	31
 7454 023d 80       		.byte	-128
 7455 023e 00       		.byte	0
 7456 023f 00       		.byte	0
 7457 0240 20       		.byte	32
 7458 0241 40       		.byte	64
 7459 0242 3F       		.byte	63
 7460 0243 C0       		.byte	-64
 7461 0244 24       		.byte	36
 7462 0245 40       		.byte	64
 7463 0246 24       		.byte	36
 7464 0247 00       		.byte	0
 7465 0248 18       		.byte	24
 7466 0249 00       		.byte	0
 7467 024a 00       		.byte	0
 7468 024b 00       		.byte	0
 7469 024c 1F       		.byte	31
 7470 024d 80       		.byte	-128
 7471 024e 21       		.byte	33
 7472 024f 40       		.byte	64
 7473 0250 21       		.byte	33
 7474 0251 40       		.byte	64
 7475 0252 20       		.byte	32
 7476 0253 E0       		.byte	-32
 7477 0254 1F       		.byte	31
 7478 0255 A0       		.byte	-96
 7479 0256 00       		.byte	0
 7480 0257 00       		.byte	0
ARM GAS  /tmp/cco7znPM.s 			page 182


 7481 0258 20       		.byte	32
 7482 0259 40       		.byte	64
 7483 025a 3F       		.byte	63
 7484 025b C0       		.byte	-64
 7485 025c 24       		.byte	36
 7486 025d 40       		.byte	64
 7487 025e 26       		.byte	38
 7488 025f 00       		.byte	0
 7489 0260 19       		.byte	25
 7490 0261 C0       		.byte	-64
 7491 0262 00       		.byte	0
 7492 0263 40       		.byte	64
 7493 0264 18       		.byte	24
 7494 0265 C0       		.byte	-64
 7495 0266 24       		.byte	36
 7496 0267 40       		.byte	64
 7497 0268 24       		.byte	36
 7498 0269 40       		.byte	64
 7499 026a 22       		.byte	34
 7500 026b 40       		.byte	64
 7501 026c 31       		.byte	49
 7502 026d 80       		.byte	-128
 7503 026e 00       		.byte	0
 7504 026f 00       		.byte	0
 7505 0270 30       		.byte	48
 7506 0271 00       		.byte	0
 7507 0272 20       		.byte	32
 7508 0273 40       		.byte	64
 7509 0274 3F       		.byte	63
 7510 0275 C0       		.byte	-64
 7511 0276 20       		.byte	32
 7512 0277 40       		.byte	64
 7513 0278 30       		.byte	48
 7514 0279 00       		.byte	0
 7515 027a 00       		.byte	0
 7516 027b 00       		.byte	0
 7517 027c 20       		.byte	32
 7518 027d 00       		.byte	0
 7519 027e 3F       		.byte	63
 7520 027f 80       		.byte	-128
 7521 0280 00       		.byte	0
 7522 0281 40       		.byte	64
 7523 0282 00       		.byte	0
 7524 0283 40       		.byte	64
 7525 0284 3F       		.byte	63
 7526 0285 80       		.byte	-128
 7527 0286 20       		.byte	32
 7528 0287 00       		.byte	0
 7529 0288 20       		.byte	32
 7530 0289 00       		.byte	0
 7531 028a 3E       		.byte	62
 7532 028b 00       		.byte	0
 7533 028c 01       		.byte	1
 7534 028d C0       		.byte	-64
 7535 028e 07       		.byte	7
 7536 028f 00       		.byte	0
 7537 0290 38       		.byte	56
ARM GAS  /tmp/cco7znPM.s 			page 183


 7538 0291 00       		.byte	0
 7539 0292 20       		.byte	32
 7540 0293 00       		.byte	0
 7541 0294 38       		.byte	56
 7542 0295 00       		.byte	0
 7543 0296 07       		.byte	7
 7544 0297 C0       		.byte	-64
 7545 0298 3C       		.byte	60
 7546 0299 00       		.byte	0
 7547 029a 07       		.byte	7
 7548 029b C0       		.byte	-64
 7549 029c 38       		.byte	56
 7550 029d 00       		.byte	0
 7551 029e 00       		.byte	0
 7552 029f 00       		.byte	0
 7553 02a0 20       		.byte	32
 7554 02a1 40       		.byte	64
 7555 02a2 39       		.byte	57
 7556 02a3 C0       		.byte	-64
 7557 02a4 06       		.byte	6
 7558 02a5 00       		.byte	0
 7559 02a6 39       		.byte	57
 7560 02a7 C0       		.byte	-64
 7561 02a8 20       		.byte	32
 7562 02a9 40       		.byte	64
 7563 02aa 00       		.byte	0
 7564 02ab 00       		.byte	0
 7565 02ac 20       		.byte	32
 7566 02ad 00       		.byte	0
 7567 02ae 38       		.byte	56
 7568 02af 40       		.byte	64
 7569 02b0 07       		.byte	7
 7570 02b1 C0       		.byte	-64
 7571 02b2 38       		.byte	56
 7572 02b3 40       		.byte	64
 7573 02b4 20       		.byte	32
 7574 02b5 00       		.byte	0
 7575 02b6 00       		.byte	0
 7576 02b7 00       		.byte	0
 7577 02b8 30       		.byte	48
 7578 02b9 40       		.byte	64
 7579 02ba 21       		.byte	33
 7580 02bb C0       		.byte	-64
 7581 02bc 26       		.byte	38
 7582 02bd 40       		.byte	64
 7583 02be 38       		.byte	56
 7584 02bf 40       		.byte	64
 7585 02c0 20       		.byte	32
 7586 02c1 C0       		.byte	-64
 7587 02c2 00       		.byte	0
 7588 02c3 00       		.byte	0
 7589 02c4 00       		.byte	0
 7590 02c5 00       		.byte	0
 7591 02c6 00       		.byte	0
 7592 02c7 00       		.byte	0
 7593 02c8 7F       		.byte	127
 7594 02c9 E0       		.byte	-32
ARM GAS  /tmp/cco7znPM.s 			page 184


 7595 02ca 40       		.byte	64
 7596 02cb 20       		.byte	32
 7597 02cc 40       		.byte	64
 7598 02cd 20       		.byte	32
 7599 02ce 00       		.byte	0
 7600 02cf 00       		.byte	0
 7601 02d0 00       		.byte	0
 7602 02d1 00       		.byte	0
 7603 02d2 70       		.byte	112
 7604 02d3 00       		.byte	0
 7605 02d4 0C       		.byte	12
 7606 02d5 00       		.byte	0
 7607 02d6 03       		.byte	3
 7608 02d7 80       		.byte	-128
 7609 02d8 00       		.byte	0
 7610 02d9 40       		.byte	64
 7611 02da 00       		.byte	0
 7612 02db 00       		.byte	0
 7613 02dc 00       		.byte	0
 7614 02dd 00       		.byte	0
 7615 02de 40       		.byte	64
 7616 02df 20       		.byte	32
 7617 02e0 40       		.byte	64
 7618 02e1 20       		.byte	32
 7619 02e2 7F       		.byte	127
 7620 02e3 E0       		.byte	-32
 7621 02e4 00       		.byte	0
 7622 02e5 00       		.byte	0
 7623 02e6 00       		.byte	0
 7624 02e7 00       		.byte	0
 7625 02e8 00       		.byte	0
 7626 02e9 00       		.byte	0
 7627 02ea 20       		.byte	32
 7628 02eb 00       		.byte	0
 7629 02ec 40       		.byte	64
 7630 02ed 00       		.byte	0
 7631 02ee 20       		.byte	32
 7632 02ef 00       		.byte	0
 7633 02f0 00       		.byte	0
 7634 02f1 00       		.byte	0
 7635 02f2 00       		.byte	0
 7636 02f3 00       		.byte	0
 7637 02f4 00       		.byte	0
 7638 02f5 10       		.byte	16
 7639 02f6 00       		.byte	0
 7640 02f7 10       		.byte	16
 7641 02f8 00       		.byte	0
 7642 02f9 10       		.byte	16
 7643 02fa 00       		.byte	0
 7644 02fb 10       		.byte	16
 7645 02fc 00       		.byte	0
 7646 02fd 10       		.byte	16
 7647 02fe 00       		.byte	0
 7648 02ff 10       		.byte	16
 7649 0300 00       		.byte	0
 7650 0301 00       		.byte	0
 7651 0302 00       		.byte	0
ARM GAS  /tmp/cco7znPM.s 			page 185


 7652 0303 00       		.byte	0
 7653 0304 40       		.byte	64
 7654 0305 00       		.byte	0
 7655 0306 00       		.byte	0
 7656 0307 00       		.byte	0
 7657 0308 00       		.byte	0
 7658 0309 00       		.byte	0
 7659 030a 00       		.byte	0
 7660 030b 00       		.byte	0
 7661 030c 00       		.byte	0
 7662 030d 00       		.byte	0
 7663 030e 02       		.byte	2
 7664 030f 80       		.byte	-128
 7665 0310 05       		.byte	5
 7666 0311 40       		.byte	64
 7667 0312 05       		.byte	5
 7668 0313 40       		.byte	64
 7669 0314 03       		.byte	3
 7670 0315 C0       		.byte	-64
 7671 0316 00       		.byte	0
 7672 0317 40       		.byte	64
 7673 0318 20       		.byte	32
 7674 0319 00       		.byte	0
 7675 031a 3F       		.byte	63
 7676 031b C0       		.byte	-64
 7677 031c 04       		.byte	4
 7678 031d 40       		.byte	64
 7679 031e 04       		.byte	4
 7680 031f 40       		.byte	64
 7681 0320 03       		.byte	3
 7682 0321 80       		.byte	-128
 7683 0322 00       		.byte	0
 7684 0323 00       		.byte	0
 7685 0324 00       		.byte	0
 7686 0325 00       		.byte	0
 7687 0326 03       		.byte	3
 7688 0327 80       		.byte	-128
 7689 0328 04       		.byte	4
 7690 0329 40       		.byte	64
 7691 032a 04       		.byte	4
 7692 032b 40       		.byte	64
 7693 032c 06       		.byte	6
 7694 032d 40       		.byte	64
 7695 032e 00       		.byte	0
 7696 032f 00       		.byte	0
 7697 0330 00       		.byte	0
 7698 0331 00       		.byte	0
 7699 0332 03       		.byte	3
 7700 0333 80       		.byte	-128
 7701 0334 04       		.byte	4
 7702 0335 40       		.byte	64
 7703 0336 24       		.byte	36
 7704 0337 40       		.byte	64
 7705 0338 3F       		.byte	63
 7706 0339 C0       		.byte	-64
 7707 033a 00       		.byte	0
 7708 033b 40       		.byte	64
ARM GAS  /tmp/cco7znPM.s 			page 186


 7709 033c 00       		.byte	0
 7710 033d 00       		.byte	0
 7711 033e 03       		.byte	3
 7712 033f 80       		.byte	-128
 7713 0340 05       		.byte	5
 7714 0341 40       		.byte	64
 7715 0342 05       		.byte	5
 7716 0343 40       		.byte	64
 7717 0344 03       		.byte	3
 7718 0345 40       		.byte	64
 7719 0346 00       		.byte	0
 7720 0347 00       		.byte	0
 7721 0348 00       		.byte	0
 7722 0349 00       		.byte	0
 7723 034a 04       		.byte	4
 7724 034b 40       		.byte	64
 7725 034c 1F       		.byte	31
 7726 034d C0       		.byte	-64
 7727 034e 24       		.byte	36
 7728 034f 40       		.byte	64
 7729 0350 24       		.byte	36
 7730 0351 40       		.byte	64
 7731 0352 20       		.byte	32
 7732 0353 00       		.byte	0
 7733 0354 00       		.byte	0
 7734 0355 00       		.byte	0
 7735 0356 02       		.byte	2
 7736 0357 E0       		.byte	-32
 7737 0358 05       		.byte	5
 7738 0359 50       		.byte	80
 7739 035a 05       		.byte	5
 7740 035b 50       		.byte	80
 7741 035c 06       		.byte	6
 7742 035d 50       		.byte	80
 7743 035e 04       		.byte	4
 7744 035f 20       		.byte	32
 7745 0360 20       		.byte	32
 7746 0361 40       		.byte	64
 7747 0362 3F       		.byte	63
 7748 0363 C0       		.byte	-64
 7749 0364 04       		.byte	4
 7750 0365 40       		.byte	64
 7751 0366 04       		.byte	4
 7752 0367 00       		.byte	0
 7753 0368 03       		.byte	3
 7754 0369 C0       		.byte	-64
 7755 036a 00       		.byte	0
 7756 036b 40       		.byte	64
 7757 036c 00       		.byte	0
 7758 036d 00       		.byte	0
 7759 036e 04       		.byte	4
 7760 036f 40       		.byte	64
 7761 0370 27       		.byte	39
 7762 0371 C0       		.byte	-64
 7763 0372 00       		.byte	0
 7764 0373 40       		.byte	64
 7765 0374 00       		.byte	0
ARM GAS  /tmp/cco7znPM.s 			page 187


 7766 0375 00       		.byte	0
 7767 0376 00       		.byte	0
 7768 0377 00       		.byte	0
 7769 0378 00       		.byte	0
 7770 0379 10       		.byte	16
 7771 037a 00       		.byte	0
 7772 037b 10       		.byte	16
 7773 037c 04       		.byte	4
 7774 037d 10       		.byte	16
 7775 037e 27       		.byte	39
 7776 037f E0       		.byte	-32
 7777 0380 00       		.byte	0
 7778 0381 00       		.byte	0
 7779 0382 00       		.byte	0
 7780 0383 00       		.byte	0
 7781 0384 20       		.byte	32
 7782 0385 40       		.byte	64
 7783 0386 3F       		.byte	63
 7784 0387 C0       		.byte	-64
 7785 0388 01       		.byte	1
 7786 0389 40       		.byte	64
 7787 038a 07       		.byte	7
 7788 038b 00       		.byte	0
 7789 038c 04       		.byte	4
 7790 038d C0       		.byte	-64
 7791 038e 04       		.byte	4
 7792 038f 40       		.byte	64
 7793 0390 20       		.byte	32
 7794 0391 40       		.byte	64
 7795 0392 20       		.byte	32
 7796 0393 40       		.byte	64
 7797 0394 3F       		.byte	63
 7798 0395 C0       		.byte	-64
 7799 0396 00       		.byte	0
 7800 0397 40       		.byte	64
 7801 0398 00       		.byte	0
 7802 0399 40       		.byte	64
 7803 039a 00       		.byte	0
 7804 039b 00       		.byte	0
 7805 039c 07       		.byte	7
 7806 039d C0       		.byte	-64
 7807 039e 04       		.byte	4
 7808 039f 00       		.byte	0
 7809 03a0 07       		.byte	7
 7810 03a1 C0       		.byte	-64
 7811 03a2 04       		.byte	4
 7812 03a3 00       		.byte	0
 7813 03a4 03       		.byte	3
 7814 03a5 C0       		.byte	-64
 7815 03a6 00       		.byte	0
 7816 03a7 00       		.byte	0
 7817 03a8 04       		.byte	4
 7818 03a9 40       		.byte	64
 7819 03aa 07       		.byte	7
 7820 03ab C0       		.byte	-64
 7821 03ac 04       		.byte	4
 7822 03ad 40       		.byte	64
ARM GAS  /tmp/cco7znPM.s 			page 188


 7823 03ae 04       		.byte	4
 7824 03af 00       		.byte	0
 7825 03b0 03       		.byte	3
 7826 03b1 C0       		.byte	-64
 7827 03b2 00       		.byte	0
 7828 03b3 40       		.byte	64
 7829 03b4 00       		.byte	0
 7830 03b5 00       		.byte	0
 7831 03b6 03       		.byte	3
 7832 03b7 80       		.byte	-128
 7833 03b8 04       		.byte	4
 7834 03b9 40       		.byte	64
 7835 03ba 04       		.byte	4
 7836 03bb 40       		.byte	64
 7837 03bc 03       		.byte	3
 7838 03bd 80       		.byte	-128
 7839 03be 00       		.byte	0
 7840 03bf 00       		.byte	0
 7841 03c0 04       		.byte	4
 7842 03c1 10       		.byte	16
 7843 03c2 07       		.byte	7
 7844 03c3 F0       		.byte	-16
 7845 03c4 04       		.byte	4
 7846 03c5 50       		.byte	80
 7847 03c6 04       		.byte	4
 7848 03c7 40       		.byte	64
 7849 03c8 03       		.byte	3
 7850 03c9 80       		.byte	-128
 7851 03ca 00       		.byte	0
 7852 03cb 00       		.byte	0
 7853 03cc 00       		.byte	0
 7854 03cd 00       		.byte	0
 7855 03ce 03       		.byte	3
 7856 03cf 80       		.byte	-128
 7857 03d0 04       		.byte	4
 7858 03d1 40       		.byte	64
 7859 03d2 04       		.byte	4
 7860 03d3 50       		.byte	80
 7861 03d4 07       		.byte	7
 7862 03d5 F0       		.byte	-16
 7863 03d6 00       		.byte	0
 7864 03d7 10       		.byte	16
 7865 03d8 04       		.byte	4
 7866 03d9 40       		.byte	64
 7867 03da 07       		.byte	7
 7868 03db C0       		.byte	-64
 7869 03dc 02       		.byte	2
 7870 03dd 40       		.byte	64
 7871 03de 04       		.byte	4
 7872 03df 00       		.byte	0
 7873 03e0 04       		.byte	4
 7874 03e1 00       		.byte	0
 7875 03e2 00       		.byte	0
 7876 03e3 00       		.byte	0
 7877 03e4 00       		.byte	0
 7878 03e5 00       		.byte	0
 7879 03e6 06       		.byte	6
ARM GAS  /tmp/cco7znPM.s 			page 189


 7880 03e7 40       		.byte	64
 7881 03e8 05       		.byte	5
 7882 03e9 40       		.byte	64
 7883 03ea 05       		.byte	5
 7884 03eb 40       		.byte	64
 7885 03ec 04       		.byte	4
 7886 03ed C0       		.byte	-64
 7887 03ee 00       		.byte	0
 7888 03ef 00       		.byte	0
 7889 03f0 00       		.byte	0
 7890 03f1 00       		.byte	0
 7891 03f2 04       		.byte	4
 7892 03f3 00       		.byte	0
 7893 03f4 1F       		.byte	31
 7894 03f5 80       		.byte	-128
 7895 03f6 04       		.byte	4
 7896 03f7 40       		.byte	64
 7897 03f8 00       		.byte	0
 7898 03f9 40       		.byte	64
 7899 03fa 00       		.byte	0
 7900 03fb 00       		.byte	0
 7901 03fc 04       		.byte	4
 7902 03fd 00       		.byte	0
 7903 03fe 07       		.byte	7
 7904 03ff 80       		.byte	-128
 7905 0400 00       		.byte	0
 7906 0401 40       		.byte	64
 7907 0402 04       		.byte	4
 7908 0403 40       		.byte	64
 7909 0404 07       		.byte	7
 7910 0405 C0       		.byte	-64
 7911 0406 00       		.byte	0
 7912 0407 40       		.byte	64
 7913 0408 04       		.byte	4
 7914 0409 00       		.byte	0
 7915 040a 07       		.byte	7
 7916 040b 00       		.byte	0
 7917 040c 04       		.byte	4
 7918 040d C0       		.byte	-64
 7919 040e 01       		.byte	1
 7920 040f 80       		.byte	-128
 7921 0410 06       		.byte	6
 7922 0411 00       		.byte	0
 7923 0412 04       		.byte	4
 7924 0413 00       		.byte	0
 7925 0414 06       		.byte	6
 7926 0415 00       		.byte	0
 7927 0416 01       		.byte	1
 7928 0417 C0       		.byte	-64
 7929 0418 07       		.byte	7
 7930 0419 00       		.byte	0
 7931 041a 01       		.byte	1
 7932 041b C0       		.byte	-64
 7933 041c 06       		.byte	6
 7934 041d 00       		.byte	0
 7935 041e 00       		.byte	0
 7936 041f 00       		.byte	0
ARM GAS  /tmp/cco7znPM.s 			page 190


 7937 0420 04       		.byte	4
 7938 0421 40       		.byte	64
 7939 0422 06       		.byte	6
 7940 0423 C0       		.byte	-64
 7941 0424 01       		.byte	1
 7942 0425 00       		.byte	0
 7943 0426 06       		.byte	6
 7944 0427 C0       		.byte	-64
 7945 0428 04       		.byte	4
 7946 0429 40       		.byte	64
 7947 042a 00       		.byte	0
 7948 042b 00       		.byte	0
 7949 042c 04       		.byte	4
 7950 042d 10       		.byte	16
 7951 042e 07       		.byte	7
 7952 042f 10       		.byte	16
 7953 0430 04       		.byte	4
 7954 0431 E0       		.byte	-32
 7955 0432 01       		.byte	1
 7956 0433 80       		.byte	-128
 7957 0434 06       		.byte	6
 7958 0435 00       		.byte	0
 7959 0436 04       		.byte	4
 7960 0437 00       		.byte	0
 7961 0438 00       		.byte	0
 7962 0439 00       		.byte	0
 7963 043a 04       		.byte	4
 7964 043b 40       		.byte	64
 7965 043c 05       		.byte	5
 7966 043d C0       		.byte	-64
 7967 043e 06       		.byte	6
 7968 043f 40       		.byte	64
 7969 0440 04       		.byte	4
 7970 0441 40       		.byte	64
 7971 0442 00       		.byte	0
 7972 0443 00       		.byte	0
 7973 0444 00       		.byte	0
 7974 0445 00       		.byte	0
 7975 0446 00       		.byte	0
 7976 0447 00       		.byte	0
 7977 0448 04       		.byte	4
 7978 0449 00       		.byte	0
 7979 044a 7B       		.byte	123
 7980 044b E0       		.byte	-32
 7981 044c 40       		.byte	64
 7982 044d 20       		.byte	32
 7983 044e 00       		.byte	0
 7984 044f 00       		.byte	0
 7985 0450 00       		.byte	0
 7986 0451 00       		.byte	0
 7987 0452 00       		.byte	0
 7988 0453 00       		.byte	0
 7989 0454 00       		.byte	0
 7990 0455 00       		.byte	0
 7991 0456 FF       		.byte	-1
 7992 0457 F0       		.byte	-16
 7993 0458 00       		.byte	0
ARM GAS  /tmp/cco7znPM.s 			page 191


 7994 0459 00       		.byte	0
 7995 045a 00       		.byte	0
 7996 045b 00       		.byte	0
 7997 045c 00       		.byte	0
 7998 045d 00       		.byte	0
 7999 045e 40       		.byte	64
 8000 045f 20       		.byte	32
 8001 0460 7B       		.byte	123
 8002 0461 E0       		.byte	-32
 8003 0462 04       		.byte	4
 8004 0463 00       		.byte	0
 8005 0464 00       		.byte	0
 8006 0465 00       		.byte	0
 8007 0466 00       		.byte	0
 8008 0467 00       		.byte	0
 8009 0468 40       		.byte	64
 8010 0469 00       		.byte	0
 8011 046a 80       		.byte	-128
 8012 046b 00       		.byte	0
 8013 046c 40       		.byte	64
 8014 046d 00       		.byte	0
 8015 046e 20       		.byte	32
 8016 046f 00       		.byte	0
 8017 0470 20       		.byte	32
 8018 0471 00       		.byte	0
 8019 0472 40       		.byte	64
 8020 0473 00       		.byte	0
 8021              		.section	.rodata.asc2_1608,"a",%progbits
 8022              		.align	2
 8023              		.set	.LANCHOR2,. + 0
 8026              	asc2_1608:
 8027 0000 00       		.byte	0
 8028 0001 00       		.byte	0
 8029 0002 00       		.byte	0
 8030 0003 00       		.byte	0
 8031 0004 00       		.byte	0
 8032 0005 00       		.byte	0
 8033 0006 00       		.byte	0
 8034 0007 00       		.byte	0
 8035 0008 00       		.byte	0
 8036 0009 00       		.byte	0
 8037 000a 00       		.byte	0
 8038 000b 00       		.byte	0
 8039 000c 00       		.byte	0
 8040 000d 00       		.byte	0
 8041 000e 00       		.byte	0
 8042 000f 00       		.byte	0
 8043 0010 00       		.byte	0
 8044 0011 00       		.byte	0
 8045 0012 00       		.byte	0
 8046 0013 00       		.byte	0
 8047 0014 00       		.byte	0
 8048 0015 00       		.byte	0
 8049 0016 1F       		.byte	31
 8050 0017 CC       		.byte	-52
 8051 0018 00       		.byte	0
 8052 0019 0C       		.byte	12
ARM GAS  /tmp/cco7znPM.s 			page 192


 8053 001a 00       		.byte	0
 8054 001b 00       		.byte	0
 8055 001c 00       		.byte	0
 8056 001d 00       		.byte	0
 8057 001e 00       		.byte	0
 8058 001f 00       		.byte	0
 8059 0020 00       		.byte	0
 8060 0021 00       		.byte	0
 8061 0022 08       		.byte	8
 8062 0023 00       		.byte	0
 8063 0024 30       		.byte	48
 8064 0025 00       		.byte	0
 8065 0026 60       		.byte	96
 8066 0027 00       		.byte	0
 8067 0028 08       		.byte	8
 8068 0029 00       		.byte	0
 8069 002a 30       		.byte	48
 8070 002b 00       		.byte	0
 8071 002c 60       		.byte	96
 8072 002d 00       		.byte	0
 8073 002e 00       		.byte	0
 8074 002f 00       		.byte	0
 8075 0030 02       		.byte	2
 8076 0031 20       		.byte	32
 8077 0032 03       		.byte	3
 8078 0033 FC       		.byte	-4
 8079 0034 1E       		.byte	30
 8080 0035 20       		.byte	32
 8081 0036 02       		.byte	2
 8082 0037 20       		.byte	32
 8083 0038 03       		.byte	3
 8084 0039 FC       		.byte	-4
 8085 003a 1E       		.byte	30
 8086 003b 20       		.byte	32
 8087 003c 02       		.byte	2
 8088 003d 20       		.byte	32
 8089 003e 00       		.byte	0
 8090 003f 00       		.byte	0
 8091 0040 00       		.byte	0
 8092 0041 00       		.byte	0
 8093 0042 0E       		.byte	14
 8094 0043 18       		.byte	24
 8095 0044 11       		.byte	17
 8096 0045 04       		.byte	4
 8097 0046 3F       		.byte	63
 8098 0047 FF       		.byte	-1
 8099 0048 10       		.byte	16
 8100 0049 84       		.byte	-124
 8101 004a 0C       		.byte	12
 8102 004b 78       		.byte	120
 8103 004c 00       		.byte	0
 8104 004d 00       		.byte	0
 8105 004e 00       		.byte	0
 8106 004f 00       		.byte	0
 8107 0050 0F       		.byte	15
 8108 0051 00       		.byte	0
 8109 0052 10       		.byte	16
ARM GAS  /tmp/cco7znPM.s 			page 193


 8110 0053 84       		.byte	-124
 8111 0054 0F       		.byte	15
 8112 0055 38       		.byte	56
 8113 0056 00       		.byte	0
 8114 0057 C0       		.byte	-64
 8115 0058 07       		.byte	7
 8116 0059 78       		.byte	120
 8117 005a 18       		.byte	24
 8118 005b 84       		.byte	-124
 8119 005c 00       		.byte	0
 8120 005d 78       		.byte	120
 8121 005e 00       		.byte	0
 8122 005f 00       		.byte	0
 8123 0060 00       		.byte	0
 8124 0061 78       		.byte	120
 8125 0062 0F       		.byte	15
 8126 0063 84       		.byte	-124
 8127 0064 10       		.byte	16
 8128 0065 C4       		.byte	-60
 8129 0066 11       		.byte	17
 8130 0067 24       		.byte	36
 8131 0068 0E       		.byte	14
 8132 0069 98       		.byte	-104
 8133 006a 00       		.byte	0
 8134 006b E4       		.byte	-28
 8135 006c 00       		.byte	0
 8136 006d 84       		.byte	-124
 8137 006e 00       		.byte	0
 8138 006f 08       		.byte	8
 8139 0070 08       		.byte	8
 8140 0071 00       		.byte	0
 8141 0072 68       		.byte	104
 8142 0073 00       		.byte	0
 8143 0074 70       		.byte	112
 8144 0075 00       		.byte	0
 8145 0076 00       		.byte	0
 8146 0077 00       		.byte	0
 8147 0078 00       		.byte	0
 8148 0079 00       		.byte	0
 8149 007a 00       		.byte	0
 8150 007b 00       		.byte	0
 8151 007c 00       		.byte	0
 8152 007d 00       		.byte	0
 8153 007e 00       		.byte	0
 8154 007f 00       		.byte	0
 8155 0080 00       		.byte	0
 8156 0081 00       		.byte	0
 8157 0082 00       		.byte	0
 8158 0083 00       		.byte	0
 8159 0084 00       		.byte	0
 8160 0085 00       		.byte	0
 8161 0086 07       		.byte	7
 8162 0087 E0       		.byte	-32
 8163 0088 18       		.byte	24
 8164 0089 18       		.byte	24
 8165 008a 20       		.byte	32
 8166 008b 04       		.byte	4
ARM GAS  /tmp/cco7znPM.s 			page 194


 8167 008c 40       		.byte	64
 8168 008d 02       		.byte	2
 8169 008e 00       		.byte	0
 8170 008f 00       		.byte	0
 8171 0090 00       		.byte	0
 8172 0091 00       		.byte	0
 8173 0092 40       		.byte	64
 8174 0093 02       		.byte	2
 8175 0094 20       		.byte	32
 8176 0095 04       		.byte	4
 8177 0096 18       		.byte	24
 8178 0097 18       		.byte	24
 8179 0098 07       		.byte	7
 8180 0099 E0       		.byte	-32
 8181 009a 00       		.byte	0
 8182 009b 00       		.byte	0
 8183 009c 00       		.byte	0
 8184 009d 00       		.byte	0
 8185 009e 00       		.byte	0
 8186 009f 00       		.byte	0
 8187 00a0 02       		.byte	2
 8188 00a1 40       		.byte	64
 8189 00a2 02       		.byte	2
 8190 00a3 40       		.byte	64
 8191 00a4 01       		.byte	1
 8192 00a5 80       		.byte	-128
 8193 00a6 0F       		.byte	15
 8194 00a7 F0       		.byte	-16
 8195 00a8 01       		.byte	1
 8196 00a9 80       		.byte	-128
 8197 00aa 02       		.byte	2
 8198 00ab 40       		.byte	64
 8199 00ac 02       		.byte	2
 8200 00ad 40       		.byte	64
 8201 00ae 00       		.byte	0
 8202 00af 00       		.byte	0
 8203 00b0 00       		.byte	0
 8204 00b1 80       		.byte	-128
 8205 00b2 00       		.byte	0
 8206 00b3 80       		.byte	-128
 8207 00b4 00       		.byte	0
 8208 00b5 80       		.byte	-128
 8209 00b6 0F       		.byte	15
 8210 00b7 F8       		.byte	-8
 8211 00b8 00       		.byte	0
 8212 00b9 80       		.byte	-128
 8213 00ba 00       		.byte	0
 8214 00bb 80       		.byte	-128
 8215 00bc 00       		.byte	0
 8216 00bd 80       		.byte	-128
 8217 00be 00       		.byte	0
 8218 00bf 00       		.byte	0
 8219 00c0 00       		.byte	0
 8220 00c1 01       		.byte	1
 8221 00c2 00       		.byte	0
 8222 00c3 0D       		.byte	13
 8223 00c4 00       		.byte	0
ARM GAS  /tmp/cco7znPM.s 			page 195


 8224 00c5 0E       		.byte	14
 8225 00c6 00       		.byte	0
 8226 00c7 00       		.byte	0
 8227 00c8 00       		.byte	0
 8228 00c9 00       		.byte	0
 8229 00ca 00       		.byte	0
 8230 00cb 00       		.byte	0
 8231 00cc 00       		.byte	0
 8232 00cd 00       		.byte	0
 8233 00ce 00       		.byte	0
 8234 00cf 00       		.byte	0
 8235 00d0 00       		.byte	0
 8236 00d1 00       		.byte	0
 8237 00d2 00       		.byte	0
 8238 00d3 80       		.byte	-128
 8239 00d4 00       		.byte	0
 8240 00d5 80       		.byte	-128
 8241 00d6 00       		.byte	0
 8242 00d7 80       		.byte	-128
 8243 00d8 00       		.byte	0
 8244 00d9 80       		.byte	-128
 8245 00da 00       		.byte	0
 8246 00db 80       		.byte	-128
 8247 00dc 00       		.byte	0
 8248 00dd 80       		.byte	-128
 8249 00de 00       		.byte	0
 8250 00df 80       		.byte	-128
 8251 00e0 00       		.byte	0
 8252 00e1 00       		.byte	0
 8253 00e2 00       		.byte	0
 8254 00e3 0C       		.byte	12
 8255 00e4 00       		.byte	0
 8256 00e5 0C       		.byte	12
 8257 00e6 00       		.byte	0
 8258 00e7 00       		.byte	0
 8259 00e8 00       		.byte	0
 8260 00e9 00       		.byte	0
 8261 00ea 00       		.byte	0
 8262 00eb 00       		.byte	0
 8263 00ec 00       		.byte	0
 8264 00ed 00       		.byte	0
 8265 00ee 00       		.byte	0
 8266 00ef 00       		.byte	0
 8267 00f0 00       		.byte	0
 8268 00f1 00       		.byte	0
 8269 00f2 00       		.byte	0
 8270 00f3 06       		.byte	6
 8271 00f4 00       		.byte	0
 8272 00f5 18       		.byte	24
 8273 00f6 00       		.byte	0
 8274 00f7 60       		.byte	96
 8275 00f8 01       		.byte	1
 8276 00f9 80       		.byte	-128
 8277 00fa 06       		.byte	6
 8278 00fb 00       		.byte	0
 8279 00fc 18       		.byte	24
 8280 00fd 00       		.byte	0
ARM GAS  /tmp/cco7znPM.s 			page 196


 8281 00fe 20       		.byte	32
 8282 00ff 00       		.byte	0
 8283 0100 00       		.byte	0
 8284 0101 00       		.byte	0
 8285 0102 07       		.byte	7
 8286 0103 F0       		.byte	-16
 8287 0104 08       		.byte	8
 8288 0105 08       		.byte	8
 8289 0106 10       		.byte	16
 8290 0107 04       		.byte	4
 8291 0108 10       		.byte	16
 8292 0109 04       		.byte	4
 8293 010a 08       		.byte	8
 8294 010b 08       		.byte	8
 8295 010c 07       		.byte	7
 8296 010d F0       		.byte	-16
 8297 010e 00       		.byte	0
 8298 010f 00       		.byte	0
 8299 0110 00       		.byte	0
 8300 0111 00       		.byte	0
 8301 0112 08       		.byte	8
 8302 0113 04       		.byte	4
 8303 0114 08       		.byte	8
 8304 0115 04       		.byte	4
 8305 0116 1F       		.byte	31
 8306 0117 FC       		.byte	-4
 8307 0118 00       		.byte	0
 8308 0119 04       		.byte	4
 8309 011a 00       		.byte	0
 8310 011b 04       		.byte	4
 8311 011c 00       		.byte	0
 8312 011d 00       		.byte	0
 8313 011e 00       		.byte	0
 8314 011f 00       		.byte	0
 8315 0120 00       		.byte	0
 8316 0121 00       		.byte	0
 8317 0122 0E       		.byte	14
 8318 0123 0C       		.byte	12
 8319 0124 10       		.byte	16
 8320 0125 14       		.byte	20
 8321 0126 10       		.byte	16
 8322 0127 24       		.byte	36
 8323 0128 10       		.byte	16
 8324 0129 44       		.byte	68
 8325 012a 11       		.byte	17
 8326 012b 84       		.byte	-124
 8327 012c 0E       		.byte	14
 8328 012d 0C       		.byte	12
 8329 012e 00       		.byte	0
 8330 012f 00       		.byte	0
 8331 0130 00       		.byte	0
 8332 0131 00       		.byte	0
 8333 0132 0C       		.byte	12
 8334 0133 18       		.byte	24
 8335 0134 10       		.byte	16
 8336 0135 04       		.byte	4
 8337 0136 11       		.byte	17
ARM GAS  /tmp/cco7znPM.s 			page 197


 8338 0137 04       		.byte	4
 8339 0138 11       		.byte	17
 8340 0139 04       		.byte	4
 8341 013a 12       		.byte	18
 8342 013b 88       		.byte	-120
 8343 013c 0C       		.byte	12
 8344 013d 70       		.byte	112
 8345 013e 00       		.byte	0
 8346 013f 00       		.byte	0
 8347 0140 00       		.byte	0
 8348 0141 00       		.byte	0
 8349 0142 00       		.byte	0
 8350 0143 E0       		.byte	-32
 8351 0144 03       		.byte	3
 8352 0145 20       		.byte	32
 8353 0146 04       		.byte	4
 8354 0147 24       		.byte	36
 8355 0148 08       		.byte	8
 8356 0149 24       		.byte	36
 8357 014a 1F       		.byte	31
 8358 014b FC       		.byte	-4
 8359 014c 00       		.byte	0
 8360 014d 24       		.byte	36
 8361 014e 00       		.byte	0
 8362 014f 00       		.byte	0
 8363 0150 00       		.byte	0
 8364 0151 00       		.byte	0
 8365 0152 1F       		.byte	31
 8366 0153 98       		.byte	-104
 8367 0154 10       		.byte	16
 8368 0155 84       		.byte	-124
 8369 0156 11       		.byte	17
 8370 0157 04       		.byte	4
 8371 0158 11       		.byte	17
 8372 0159 04       		.byte	4
 8373 015a 10       		.byte	16
 8374 015b 88       		.byte	-120
 8375 015c 10       		.byte	16
 8376 015d 70       		.byte	112
 8377 015e 00       		.byte	0
 8378 015f 00       		.byte	0
 8379 0160 00       		.byte	0
 8380 0161 00       		.byte	0
 8381 0162 07       		.byte	7
 8382 0163 F0       		.byte	-16
 8383 0164 08       		.byte	8
 8384 0165 88       		.byte	-120
 8385 0166 11       		.byte	17
 8386 0167 04       		.byte	4
 8387 0168 11       		.byte	17
 8388 0169 04       		.byte	4
 8389 016a 18       		.byte	24
 8390 016b 88       		.byte	-120
 8391 016c 00       		.byte	0
 8392 016d 70       		.byte	112
 8393 016e 00       		.byte	0
 8394 016f 00       		.byte	0
ARM GAS  /tmp/cco7znPM.s 			page 198


 8395 0170 00       		.byte	0
 8396 0171 00       		.byte	0
 8397 0172 1C       		.byte	28
 8398 0173 00       		.byte	0
 8399 0174 10       		.byte	16
 8400 0175 00       		.byte	0
 8401 0176 10       		.byte	16
 8402 0177 FC       		.byte	-4
 8403 0178 13       		.byte	19
 8404 0179 00       		.byte	0
 8405 017a 1C       		.byte	28
 8406 017b 00       		.byte	0
 8407 017c 10       		.byte	16
 8408 017d 00       		.byte	0
 8409 017e 00       		.byte	0
 8410 017f 00       		.byte	0
 8411 0180 00       		.byte	0
 8412 0181 00       		.byte	0
 8413 0182 0E       		.byte	14
 8414 0183 38       		.byte	56
 8415 0184 11       		.byte	17
 8416 0185 44       		.byte	68
 8417 0186 10       		.byte	16
 8418 0187 84       		.byte	-124
 8419 0188 10       		.byte	16
 8420 0189 84       		.byte	-124
 8421 018a 11       		.byte	17
 8422 018b 44       		.byte	68
 8423 018c 0E       		.byte	14
 8424 018d 38       		.byte	56
 8425 018e 00       		.byte	0
 8426 018f 00       		.byte	0
 8427 0190 00       		.byte	0
 8428 0191 00       		.byte	0
 8429 0192 07       		.byte	7
 8430 0193 00       		.byte	0
 8431 0194 08       		.byte	8
 8432 0195 8C       		.byte	-116
 8433 0196 10       		.byte	16
 8434 0197 44       		.byte	68
 8435 0198 10       		.byte	16
 8436 0199 44       		.byte	68
 8437 019a 08       		.byte	8
 8438 019b 88       		.byte	-120
 8439 019c 07       		.byte	7
 8440 019d F0       		.byte	-16
 8441 019e 00       		.byte	0
 8442 019f 00       		.byte	0
 8443 01a0 00       		.byte	0
 8444 01a1 00       		.byte	0
 8445 01a2 00       		.byte	0
 8446 01a3 00       		.byte	0
 8447 01a4 00       		.byte	0
 8448 01a5 00       		.byte	0
 8449 01a6 03       		.byte	3
 8450 01a7 0C       		.byte	12
 8451 01a8 03       		.byte	3
ARM GAS  /tmp/cco7znPM.s 			page 199


 8452 01a9 0C       		.byte	12
 8453 01aa 00       		.byte	0
 8454 01ab 00       		.byte	0
 8455 01ac 00       		.byte	0
 8456 01ad 00       		.byte	0
 8457 01ae 00       		.byte	0
 8458 01af 00       		.byte	0
 8459 01b0 00       		.byte	0
 8460 01b1 00       		.byte	0
 8461 01b2 00       		.byte	0
 8462 01b3 00       		.byte	0
 8463 01b4 00       		.byte	0
 8464 01b5 01       		.byte	1
 8465 01b6 01       		.byte	1
 8466 01b7 06       		.byte	6
 8467 01b8 00       		.byte	0
 8468 01b9 00       		.byte	0
 8469 01ba 00       		.byte	0
 8470 01bb 00       		.byte	0
 8471 01bc 00       		.byte	0
 8472 01bd 00       		.byte	0
 8473 01be 00       		.byte	0
 8474 01bf 00       		.byte	0
 8475 01c0 00       		.byte	0
 8476 01c1 00       		.byte	0
 8477 01c2 00       		.byte	0
 8478 01c3 80       		.byte	-128
 8479 01c4 01       		.byte	1
 8480 01c5 40       		.byte	64
 8481 01c6 02       		.byte	2
 8482 01c7 20       		.byte	32
 8483 01c8 04       		.byte	4
 8484 01c9 10       		.byte	16
 8485 01ca 08       		.byte	8
 8486 01cb 08       		.byte	8
 8487 01cc 10       		.byte	16
 8488 01cd 04       		.byte	4
 8489 01ce 00       		.byte	0
 8490 01cf 00       		.byte	0
 8491 01d0 02       		.byte	2
 8492 01d1 20       		.byte	32
 8493 01d2 02       		.byte	2
 8494 01d3 20       		.byte	32
 8495 01d4 02       		.byte	2
 8496 01d5 20       		.byte	32
 8497 01d6 02       		.byte	2
 8498 01d7 20       		.byte	32
 8499 01d8 02       		.byte	2
 8500 01d9 20       		.byte	32
 8501 01da 02       		.byte	2
 8502 01db 20       		.byte	32
 8503 01dc 02       		.byte	2
 8504 01dd 20       		.byte	32
 8505 01de 00       		.byte	0
 8506 01df 00       		.byte	0
 8507 01e0 00       		.byte	0
 8508 01e1 00       		.byte	0
ARM GAS  /tmp/cco7znPM.s 			page 200


 8509 01e2 10       		.byte	16
 8510 01e3 04       		.byte	4
 8511 01e4 08       		.byte	8
 8512 01e5 08       		.byte	8
 8513 01e6 04       		.byte	4
 8514 01e7 10       		.byte	16
 8515 01e8 02       		.byte	2
 8516 01e9 20       		.byte	32
 8517 01ea 01       		.byte	1
 8518 01eb 40       		.byte	64
 8519 01ec 00       		.byte	0
 8520 01ed 80       		.byte	-128
 8521 01ee 00       		.byte	0
 8522 01ef 00       		.byte	0
 8523 01f0 00       		.byte	0
 8524 01f1 00       		.byte	0
 8525 01f2 0E       		.byte	14
 8526 01f3 00       		.byte	0
 8527 01f4 12       		.byte	18
 8528 01f5 00       		.byte	0
 8529 01f6 10       		.byte	16
 8530 01f7 0C       		.byte	12
 8531 01f8 10       		.byte	16
 8532 01f9 6C       		.byte	108
 8533 01fa 10       		.byte	16
 8534 01fb 80       		.byte	-128
 8535 01fc 0F       		.byte	15
 8536 01fd 00       		.byte	0
 8537 01fe 00       		.byte	0
 8538 01ff 00       		.byte	0
 8539 0200 03       		.byte	3
 8540 0201 E0       		.byte	-32
 8541 0202 0C       		.byte	12
 8542 0203 18       		.byte	24
 8543 0204 13       		.byte	19
 8544 0205 E4       		.byte	-28
 8545 0206 14       		.byte	20
 8546 0207 24       		.byte	36
 8547 0208 17       		.byte	23
 8548 0209 C4       		.byte	-60
 8549 020a 08       		.byte	8
 8550 020b 28       		.byte	40
 8551 020c 07       		.byte	7
 8552 020d D0       		.byte	-48
 8553 020e 00       		.byte	0
 8554 020f 00       		.byte	0
 8555 0210 00       		.byte	0
 8556 0211 04       		.byte	4
 8557 0212 00       		.byte	0
 8558 0213 3C       		.byte	60
 8559 0214 03       		.byte	3
 8560 0215 C4       		.byte	-60
 8561 0216 1C       		.byte	28
 8562 0217 40       		.byte	64
 8563 0218 07       		.byte	7
 8564 0219 40       		.byte	64
 8565 021a 00       		.byte	0
ARM GAS  /tmp/cco7znPM.s 			page 201


 8566 021b E4       		.byte	-28
 8567 021c 00       		.byte	0
 8568 021d 1C       		.byte	28
 8569 021e 00       		.byte	0
 8570 021f 04       		.byte	4
 8571 0220 10       		.byte	16
 8572 0221 04       		.byte	4
 8573 0222 1F       		.byte	31
 8574 0223 FC       		.byte	-4
 8575 0224 11       		.byte	17
 8576 0225 04       		.byte	4
 8577 0226 11       		.byte	17
 8578 0227 04       		.byte	4
 8579 0228 11       		.byte	17
 8580 0229 04       		.byte	4
 8581 022a 0E       		.byte	14
 8582 022b 88       		.byte	-120
 8583 022c 00       		.byte	0
 8584 022d 70       		.byte	112
 8585 022e 00       		.byte	0
 8586 022f 00       		.byte	0
 8587 0230 03       		.byte	3
 8588 0231 E0       		.byte	-32
 8589 0232 0C       		.byte	12
 8590 0233 18       		.byte	24
 8591 0234 10       		.byte	16
 8592 0235 04       		.byte	4
 8593 0236 10       		.byte	16
 8594 0237 04       		.byte	4
 8595 0238 10       		.byte	16
 8596 0239 04       		.byte	4
 8597 023a 10       		.byte	16
 8598 023b 08       		.byte	8
 8599 023c 1C       		.byte	28
 8600 023d 10       		.byte	16
 8601 023e 00       		.byte	0
 8602 023f 00       		.byte	0
 8603 0240 10       		.byte	16
 8604 0241 04       		.byte	4
 8605 0242 1F       		.byte	31
 8606 0243 FC       		.byte	-4
 8607 0244 10       		.byte	16
 8608 0245 04       		.byte	4
 8609 0246 10       		.byte	16
 8610 0247 04       		.byte	4
 8611 0248 10       		.byte	16
 8612 0249 04       		.byte	4
 8613 024a 08       		.byte	8
 8614 024b 08       		.byte	8
 8615 024c 07       		.byte	7
 8616 024d F0       		.byte	-16
 8617 024e 00       		.byte	0
 8618 024f 00       		.byte	0
 8619 0250 10       		.byte	16
 8620 0251 04       		.byte	4
 8621 0252 1F       		.byte	31
 8622 0253 FC       		.byte	-4
ARM GAS  /tmp/cco7znPM.s 			page 202


 8623 0254 11       		.byte	17
 8624 0255 04       		.byte	4
 8625 0256 11       		.byte	17
 8626 0257 04       		.byte	4
 8627 0258 17       		.byte	23
 8628 0259 C4       		.byte	-60
 8629 025a 10       		.byte	16
 8630 025b 04       		.byte	4
 8631 025c 08       		.byte	8
 8632 025d 18       		.byte	24
 8633 025e 00       		.byte	0
 8634 025f 00       		.byte	0
 8635 0260 10       		.byte	16
 8636 0261 04       		.byte	4
 8637 0262 1F       		.byte	31
 8638 0263 FC       		.byte	-4
 8639 0264 11       		.byte	17
 8640 0265 04       		.byte	4
 8641 0266 11       		.byte	17
 8642 0267 00       		.byte	0
 8643 0268 17       		.byte	23
 8644 0269 C0       		.byte	-64
 8645 026a 10       		.byte	16
 8646 026b 00       		.byte	0
 8647 026c 08       		.byte	8
 8648 026d 00       		.byte	0
 8649 026e 00       		.byte	0
 8650 026f 00       		.byte	0
 8651 0270 03       		.byte	3
 8652 0271 E0       		.byte	-32
 8653 0272 0C       		.byte	12
 8654 0273 18       		.byte	24
 8655 0274 10       		.byte	16
 8656 0275 04       		.byte	4
 8657 0276 10       		.byte	16
 8658 0277 04       		.byte	4
 8659 0278 10       		.byte	16
 8660 0279 44       		.byte	68
 8661 027a 1C       		.byte	28
 8662 027b 78       		.byte	120
 8663 027c 00       		.byte	0
 8664 027d 40       		.byte	64
 8665 027e 00       		.byte	0
 8666 027f 00       		.byte	0
 8667 0280 10       		.byte	16
 8668 0281 04       		.byte	4
 8669 0282 1F       		.byte	31
 8670 0283 FC       		.byte	-4
 8671 0284 10       		.byte	16
 8672 0285 84       		.byte	-124
 8673 0286 00       		.byte	0
 8674 0287 80       		.byte	-128
 8675 0288 00       		.byte	0
 8676 0289 80       		.byte	-128
 8677 028a 10       		.byte	16
 8678 028b 84       		.byte	-124
 8679 028c 1F       		.byte	31
ARM GAS  /tmp/cco7znPM.s 			page 203


 8680 028d FC       		.byte	-4
 8681 028e 10       		.byte	16
 8682 028f 04       		.byte	4
 8683 0290 00       		.byte	0
 8684 0291 00       		.byte	0
 8685 0292 10       		.byte	16
 8686 0293 04       		.byte	4
 8687 0294 10       		.byte	16
 8688 0295 04       		.byte	4
 8689 0296 1F       		.byte	31
 8690 0297 FC       		.byte	-4
 8691 0298 10       		.byte	16
 8692 0299 04       		.byte	4
 8693 029a 10       		.byte	16
 8694 029b 04       		.byte	4
 8695 029c 00       		.byte	0
 8696 029d 00       		.byte	0
 8697 029e 00       		.byte	0
 8698 029f 00       		.byte	0
 8699 02a0 00       		.byte	0
 8700 02a1 03       		.byte	3
 8701 02a2 00       		.byte	0
 8702 02a3 01       		.byte	1
 8703 02a4 10       		.byte	16
 8704 02a5 01       		.byte	1
 8705 02a6 10       		.byte	16
 8706 02a7 01       		.byte	1
 8707 02a8 1F       		.byte	31
 8708 02a9 FE       		.byte	-2
 8709 02aa 10       		.byte	16
 8710 02ab 00       		.byte	0
 8711 02ac 10       		.byte	16
 8712 02ad 00       		.byte	0
 8713 02ae 00       		.byte	0
 8714 02af 00       		.byte	0
 8715 02b0 10       		.byte	16
 8716 02b1 04       		.byte	4
 8717 02b2 1F       		.byte	31
 8718 02b3 FC       		.byte	-4
 8719 02b4 11       		.byte	17
 8720 02b5 04       		.byte	4
 8721 02b6 03       		.byte	3
 8722 02b7 80       		.byte	-128
 8723 02b8 14       		.byte	20
 8724 02b9 64       		.byte	100
 8725 02ba 18       		.byte	24
 8726 02bb 1C       		.byte	28
 8727 02bc 10       		.byte	16
 8728 02bd 04       		.byte	4
 8729 02be 00       		.byte	0
 8730 02bf 00       		.byte	0
 8731 02c0 10       		.byte	16
 8732 02c1 04       		.byte	4
 8733 02c2 1F       		.byte	31
 8734 02c3 FC       		.byte	-4
 8735 02c4 10       		.byte	16
 8736 02c5 04       		.byte	4
ARM GAS  /tmp/cco7znPM.s 			page 204


 8737 02c6 00       		.byte	0
 8738 02c7 04       		.byte	4
 8739 02c8 00       		.byte	0
 8740 02c9 04       		.byte	4
 8741 02ca 00       		.byte	0
 8742 02cb 04       		.byte	4
 8743 02cc 00       		.byte	0
 8744 02cd 0C       		.byte	12
 8745 02ce 00       		.byte	0
 8746 02cf 00       		.byte	0
 8747 02d0 10       		.byte	16
 8748 02d1 04       		.byte	4
 8749 02d2 1F       		.byte	31
 8750 02d3 FC       		.byte	-4
 8751 02d4 1F       		.byte	31
 8752 02d5 00       		.byte	0
 8753 02d6 00       		.byte	0
 8754 02d7 FC       		.byte	-4
 8755 02d8 1F       		.byte	31
 8756 02d9 00       		.byte	0
 8757 02da 1F       		.byte	31
 8758 02db FC       		.byte	-4
 8759 02dc 10       		.byte	16
 8760 02dd 04       		.byte	4
 8761 02de 00       		.byte	0
 8762 02df 00       		.byte	0
 8763 02e0 10       		.byte	16
 8764 02e1 04       		.byte	4
 8765 02e2 1F       		.byte	31
 8766 02e3 FC       		.byte	-4
 8767 02e4 0C       		.byte	12
 8768 02e5 04       		.byte	4
 8769 02e6 03       		.byte	3
 8770 02e7 00       		.byte	0
 8771 02e8 00       		.byte	0
 8772 02e9 E0       		.byte	-32
 8773 02ea 10       		.byte	16
 8774 02eb 18       		.byte	24
 8775 02ec 1F       		.byte	31
 8776 02ed FC       		.byte	-4
 8777 02ee 10       		.byte	16
 8778 02ef 00       		.byte	0
 8779 02f0 07       		.byte	7
 8780 02f1 F0       		.byte	-16
 8781 02f2 08       		.byte	8
 8782 02f3 08       		.byte	8
 8783 02f4 10       		.byte	16
 8784 02f5 04       		.byte	4
 8785 02f6 10       		.byte	16
 8786 02f7 04       		.byte	4
 8787 02f8 10       		.byte	16
 8788 02f9 04       		.byte	4
 8789 02fa 08       		.byte	8
 8790 02fb 08       		.byte	8
 8791 02fc 07       		.byte	7
 8792 02fd F0       		.byte	-16
 8793 02fe 00       		.byte	0
ARM GAS  /tmp/cco7znPM.s 			page 205


 8794 02ff 00       		.byte	0
 8795 0300 10       		.byte	16
 8796 0301 04       		.byte	4
 8797 0302 1F       		.byte	31
 8798 0303 FC       		.byte	-4
 8799 0304 10       		.byte	16
 8800 0305 84       		.byte	-124
 8801 0306 10       		.byte	16
 8802 0307 80       		.byte	-128
 8803 0308 10       		.byte	16
 8804 0309 80       		.byte	-128
 8805 030a 10       		.byte	16
 8806 030b 80       		.byte	-128
 8807 030c 0F       		.byte	15
 8808 030d 00       		.byte	0
 8809 030e 00       		.byte	0
 8810 030f 00       		.byte	0
 8811 0310 07       		.byte	7
 8812 0311 F0       		.byte	-16
 8813 0312 08       		.byte	8
 8814 0313 18       		.byte	24
 8815 0314 10       		.byte	16
 8816 0315 24       		.byte	36
 8817 0316 10       		.byte	16
 8818 0317 24       		.byte	36
 8819 0318 10       		.byte	16
 8820 0319 1C       		.byte	28
 8821 031a 08       		.byte	8
 8822 031b 0A       		.byte	10
 8823 031c 07       		.byte	7
 8824 031d F2       		.byte	-14
 8825 031e 00       		.byte	0
 8826 031f 00       		.byte	0
 8827 0320 10       		.byte	16
 8828 0321 04       		.byte	4
 8829 0322 1F       		.byte	31
 8830 0323 FC       		.byte	-4
 8831 0324 11       		.byte	17
 8832 0325 04       		.byte	4
 8833 0326 11       		.byte	17
 8834 0327 00       		.byte	0
 8835 0328 11       		.byte	17
 8836 0329 C0       		.byte	-64
 8837 032a 11       		.byte	17
 8838 032b 30       		.byte	48
 8839 032c 0E       		.byte	14
 8840 032d 0C       		.byte	12
 8841 032e 00       		.byte	0
 8842 032f 04       		.byte	4
 8843 0330 00       		.byte	0
 8844 0331 00       		.byte	0
 8845 0332 0E       		.byte	14
 8846 0333 1C       		.byte	28
 8847 0334 11       		.byte	17
 8848 0335 04       		.byte	4
 8849 0336 10       		.byte	16
 8850 0337 84       		.byte	-124
ARM GAS  /tmp/cco7znPM.s 			page 206


 8851 0338 10       		.byte	16
 8852 0339 84       		.byte	-124
 8853 033a 10       		.byte	16
 8854 033b 44       		.byte	68
 8855 033c 1C       		.byte	28
 8856 033d 38       		.byte	56
 8857 033e 00       		.byte	0
 8858 033f 00       		.byte	0
 8859 0340 18       		.byte	24
 8860 0341 00       		.byte	0
 8861 0342 10       		.byte	16
 8862 0343 00       		.byte	0
 8863 0344 10       		.byte	16
 8864 0345 04       		.byte	4
 8865 0346 1F       		.byte	31
 8866 0347 FC       		.byte	-4
 8867 0348 10       		.byte	16
 8868 0349 04       		.byte	4
 8869 034a 10       		.byte	16
 8870 034b 00       		.byte	0
 8871 034c 18       		.byte	24
 8872 034d 00       		.byte	0
 8873 034e 00       		.byte	0
 8874 034f 00       		.byte	0
 8875 0350 10       		.byte	16
 8876 0351 00       		.byte	0
 8877 0352 1F       		.byte	31
 8878 0353 F8       		.byte	-8
 8879 0354 10       		.byte	16
 8880 0355 04       		.byte	4
 8881 0356 00       		.byte	0
 8882 0357 04       		.byte	4
 8883 0358 00       		.byte	0
 8884 0359 04       		.byte	4
 8885 035a 10       		.byte	16
 8886 035b 04       		.byte	4
 8887 035c 1F       		.byte	31
 8888 035d F8       		.byte	-8
 8889 035e 10       		.byte	16
 8890 035f 00       		.byte	0
 8891 0360 10       		.byte	16
 8892 0361 00       		.byte	0
 8893 0362 1E       		.byte	30
 8894 0363 00       		.byte	0
 8895 0364 11       		.byte	17
 8896 0365 E0       		.byte	-32
 8897 0366 00       		.byte	0
 8898 0367 1C       		.byte	28
 8899 0368 00       		.byte	0
 8900 0369 70       		.byte	112
 8901 036a 13       		.byte	19
 8902 036b 80       		.byte	-128
 8903 036c 1C       		.byte	28
 8904 036d 00       		.byte	0
 8905 036e 10       		.byte	16
 8906 036f 00       		.byte	0
 8907 0370 1F       		.byte	31
ARM GAS  /tmp/cco7znPM.s 			page 207


 8908 0371 C0       		.byte	-64
 8909 0372 10       		.byte	16
 8910 0373 3C       		.byte	60
 8911 0374 00       		.byte	0
 8912 0375 E0       		.byte	-32
 8913 0376 1F       		.byte	31
 8914 0377 00       		.byte	0
 8915 0378 00       		.byte	0
 8916 0379 E0       		.byte	-32
 8917 037a 10       		.byte	16
 8918 037b 3C       		.byte	60
 8919 037c 1F       		.byte	31
 8920 037d C0       		.byte	-64
 8921 037e 00       		.byte	0
 8922 037f 00       		.byte	0
 8923 0380 10       		.byte	16
 8924 0381 04       		.byte	4
 8925 0382 18       		.byte	24
 8926 0383 0C       		.byte	12
 8927 0384 16       		.byte	22
 8928 0385 34       		.byte	52
 8929 0386 01       		.byte	1
 8930 0387 C0       		.byte	-64
 8931 0388 01       		.byte	1
 8932 0389 C0       		.byte	-64
 8933 038a 16       		.byte	22
 8934 038b 34       		.byte	52
 8935 038c 18       		.byte	24
 8936 038d 0C       		.byte	12
 8937 038e 10       		.byte	16
 8938 038f 04       		.byte	4
 8939 0390 10       		.byte	16
 8940 0391 00       		.byte	0
 8941 0392 1C       		.byte	28
 8942 0393 00       		.byte	0
 8943 0394 13       		.byte	19
 8944 0395 04       		.byte	4
 8945 0396 00       		.byte	0
 8946 0397 FC       		.byte	-4
 8947 0398 13       		.byte	19
 8948 0399 04       		.byte	4
 8949 039a 1C       		.byte	28
 8950 039b 00       		.byte	0
 8951 039c 10       		.byte	16
 8952 039d 00       		.byte	0
 8953 039e 00       		.byte	0
 8954 039f 00       		.byte	0
 8955 03a0 08       		.byte	8
 8956 03a1 04       		.byte	4
 8957 03a2 10       		.byte	16
 8958 03a3 1C       		.byte	28
 8959 03a4 10       		.byte	16
 8960 03a5 64       		.byte	100
 8961 03a6 10       		.byte	16
 8962 03a7 84       		.byte	-124
 8963 03a8 13       		.byte	19
 8964 03a9 04       		.byte	4
ARM GAS  /tmp/cco7znPM.s 			page 208


 8965 03aa 1C       		.byte	28
 8966 03ab 04       		.byte	4
 8967 03ac 10       		.byte	16
 8968 03ad 18       		.byte	24
 8969 03ae 00       		.byte	0
 8970 03af 00       		.byte	0
 8971 03b0 00       		.byte	0
 8972 03b1 00       		.byte	0
 8973 03b2 00       		.byte	0
 8974 03b3 00       		.byte	0
 8975 03b4 00       		.byte	0
 8976 03b5 00       		.byte	0
 8977 03b6 7F       		.byte	127
 8978 03b7 FE       		.byte	-2
 8979 03b8 40       		.byte	64
 8980 03b9 02       		.byte	2
 8981 03ba 40       		.byte	64
 8982 03bb 02       		.byte	2
 8983 03bc 40       		.byte	64
 8984 03bd 02       		.byte	2
 8985 03be 00       		.byte	0
 8986 03bf 00       		.byte	0
 8987 03c0 00       		.byte	0
 8988 03c1 00       		.byte	0
 8989 03c2 30       		.byte	48
 8990 03c3 00       		.byte	0
 8991 03c4 0C       		.byte	12
 8992 03c5 00       		.byte	0
 8993 03c6 03       		.byte	3
 8994 03c7 80       		.byte	-128
 8995 03c8 00       		.byte	0
 8996 03c9 60       		.byte	96
 8997 03ca 00       		.byte	0
 8998 03cb 1C       		.byte	28
 8999 03cc 00       		.byte	0
 9000 03cd 03       		.byte	3
 9001 03ce 00       		.byte	0
 9002 03cf 00       		.byte	0
 9003 03d0 00       		.byte	0
 9004 03d1 00       		.byte	0
 9005 03d2 40       		.byte	64
 9006 03d3 02       		.byte	2
 9007 03d4 40       		.byte	64
 9008 03d5 02       		.byte	2
 9009 03d6 40       		.byte	64
 9010 03d7 02       		.byte	2
 9011 03d8 7F       		.byte	127
 9012 03d9 FE       		.byte	-2
 9013 03da 00       		.byte	0
 9014 03db 00       		.byte	0
 9015 03dc 00       		.byte	0
 9016 03dd 00       		.byte	0
 9017 03de 00       		.byte	0
 9018 03df 00       		.byte	0
 9019 03e0 00       		.byte	0
 9020 03e1 00       		.byte	0
 9021 03e2 00       		.byte	0
ARM GAS  /tmp/cco7znPM.s 			page 209


 9022 03e3 00       		.byte	0
 9023 03e4 20       		.byte	32
 9024 03e5 00       		.byte	0
 9025 03e6 40       		.byte	64
 9026 03e7 00       		.byte	0
 9027 03e8 40       		.byte	64
 9028 03e9 00       		.byte	0
 9029 03ea 40       		.byte	64
 9030 03eb 00       		.byte	0
 9031 03ec 20       		.byte	32
 9032 03ed 00       		.byte	0
 9033 03ee 00       		.byte	0
 9034 03ef 00       		.byte	0
 9035 03f0 00       		.byte	0
 9036 03f1 01       		.byte	1
 9037 03f2 00       		.byte	0
 9038 03f3 01       		.byte	1
 9039 03f4 00       		.byte	0
 9040 03f5 01       		.byte	1
 9041 03f6 00       		.byte	0
 9042 03f7 01       		.byte	1
 9043 03f8 00       		.byte	0
 9044 03f9 01       		.byte	1
 9045 03fa 00       		.byte	0
 9046 03fb 01       		.byte	1
 9047 03fc 00       		.byte	0
 9048 03fd 01       		.byte	1
 9049 03fe 00       		.byte	0
 9050 03ff 01       		.byte	1
 9051 0400 00       		.byte	0
 9052 0401 00       		.byte	0
 9053 0402 40       		.byte	64
 9054 0403 00       		.byte	0
 9055 0404 40       		.byte	64
 9056 0405 00       		.byte	0
 9057 0406 20       		.byte	32
 9058 0407 00       		.byte	0
 9059 0408 00       		.byte	0
 9060 0409 00       		.byte	0
 9061 040a 00       		.byte	0
 9062 040b 00       		.byte	0
 9063 040c 00       		.byte	0
 9064 040d 00       		.byte	0
 9065 040e 00       		.byte	0
 9066 040f 00       		.byte	0
 9067 0410 00       		.byte	0
 9068 0411 00       		.byte	0
 9069 0412 00       		.byte	0
 9070 0413 98       		.byte	-104
 9071 0414 01       		.byte	1
 9072 0415 24       		.byte	36
 9073 0416 01       		.byte	1
 9074 0417 44       		.byte	68
 9075 0418 01       		.byte	1
 9076 0419 44       		.byte	68
 9077 041a 01       		.byte	1
 9078 041b 44       		.byte	68
ARM GAS  /tmp/cco7znPM.s 			page 210


 9079 041c 00       		.byte	0
 9080 041d FC       		.byte	-4
 9081 041e 00       		.byte	0
 9082 041f 04       		.byte	4
 9083 0420 10       		.byte	16
 9084 0421 00       		.byte	0
 9085 0422 1F       		.byte	31
 9086 0423 FC       		.byte	-4
 9087 0424 00       		.byte	0
 9088 0425 88       		.byte	-120
 9089 0426 01       		.byte	1
 9090 0427 04       		.byte	4
 9091 0428 01       		.byte	1
 9092 0429 04       		.byte	4
 9093 042a 00       		.byte	0
 9094 042b 88       		.byte	-120
 9095 042c 00       		.byte	0
 9096 042d 70       		.byte	112
 9097 042e 00       		.byte	0
 9098 042f 00       		.byte	0
 9099 0430 00       		.byte	0
 9100 0431 00       		.byte	0
 9101 0432 00       		.byte	0
 9102 0433 70       		.byte	112
 9103 0434 00       		.byte	0
 9104 0435 88       		.byte	-120
 9105 0436 01       		.byte	1
 9106 0437 04       		.byte	4
 9107 0438 01       		.byte	1
 9108 0439 04       		.byte	4
 9109 043a 01       		.byte	1
 9110 043b 04       		.byte	4
 9111 043c 00       		.byte	0
 9112 043d 88       		.byte	-120
 9113 043e 00       		.byte	0
 9114 043f 00       		.byte	0
 9115 0440 00       		.byte	0
 9116 0441 00       		.byte	0
 9117 0442 00       		.byte	0
 9118 0443 70       		.byte	112
 9119 0444 00       		.byte	0
 9120 0445 88       		.byte	-120
 9121 0446 01       		.byte	1
 9122 0447 04       		.byte	4
 9123 0448 01       		.byte	1
 9124 0449 04       		.byte	4
 9125 044a 11       		.byte	17
 9126 044b 08       		.byte	8
 9127 044c 1F       		.byte	31
 9128 044d FC       		.byte	-4
 9129 044e 00       		.byte	0
 9130 044f 04       		.byte	4
 9131 0450 00       		.byte	0
 9132 0451 00       		.byte	0
 9133 0452 00       		.byte	0
 9134 0453 F8       		.byte	-8
 9135 0454 01       		.byte	1
ARM GAS  /tmp/cco7znPM.s 			page 211


 9136 0455 44       		.byte	68
 9137 0456 01       		.byte	1
 9138 0457 44       		.byte	68
 9139 0458 01       		.byte	1
 9140 0459 44       		.byte	68
 9141 045a 01       		.byte	1
 9142 045b 44       		.byte	68
 9143 045c 00       		.byte	0
 9144 045d C8       		.byte	-56
 9145 045e 00       		.byte	0
 9146 045f 00       		.byte	0
 9147 0460 00       		.byte	0
 9148 0461 00       		.byte	0
 9149 0462 01       		.byte	1
 9150 0463 04       		.byte	4
 9151 0464 01       		.byte	1
 9152 0465 04       		.byte	4
 9153 0466 0F       		.byte	15
 9154 0467 FC       		.byte	-4
 9155 0468 11       		.byte	17
 9156 0469 04       		.byte	4
 9157 046a 11       		.byte	17
 9158 046b 04       		.byte	4
 9159 046c 11       		.byte	17
 9160 046d 00       		.byte	0
 9161 046e 18       		.byte	24
 9162 046f 00       		.byte	0
 9163 0470 00       		.byte	0
 9164 0471 00       		.byte	0
 9165 0472 00       		.byte	0
 9166 0473 D6       		.byte	-42
 9167 0474 01       		.byte	1
 9168 0475 29       		.byte	41
 9169 0476 01       		.byte	1
 9170 0477 29       		.byte	41
 9171 0478 01       		.byte	1
 9172 0479 29       		.byte	41
 9173 047a 01       		.byte	1
 9174 047b C9       		.byte	-55
 9175 047c 01       		.byte	1
 9176 047d 06       		.byte	6
 9177 047e 00       		.byte	0
 9178 047f 00       		.byte	0
 9179 0480 10       		.byte	16
 9180 0481 04       		.byte	4
 9181 0482 1F       		.byte	31
 9182 0483 FC       		.byte	-4
 9183 0484 00       		.byte	0
 9184 0485 84       		.byte	-124
 9185 0486 01       		.byte	1
 9186 0487 00       		.byte	0
 9187 0488 01       		.byte	1
 9188 0489 00       		.byte	0
 9189 048a 01       		.byte	1
 9190 048b 04       		.byte	4
 9191 048c 00       		.byte	0
 9192 048d FC       		.byte	-4
ARM GAS  /tmp/cco7znPM.s 			page 212


 9193 048e 00       		.byte	0
 9194 048f 04       		.byte	4
 9195 0490 00       		.byte	0
 9196 0491 00       		.byte	0
 9197 0492 01       		.byte	1
 9198 0493 04       		.byte	4
 9199 0494 19       		.byte	25
 9200 0495 04       		.byte	4
 9201 0496 19       		.byte	25
 9202 0497 FC       		.byte	-4
 9203 0498 00       		.byte	0
 9204 0499 04       		.byte	4
 9205 049a 00       		.byte	0
 9206 049b 04       		.byte	4
 9207 049c 00       		.byte	0
 9208 049d 00       		.byte	0
 9209 049e 00       		.byte	0
 9210 049f 00       		.byte	0
 9211 04a0 00       		.byte	0
 9212 04a1 00       		.byte	0
 9213 04a2 00       		.byte	0
 9214 04a3 03       		.byte	3
 9215 04a4 00       		.byte	0
 9216 04a5 01       		.byte	1
 9217 04a6 01       		.byte	1
 9218 04a7 01       		.byte	1
 9219 04a8 19       		.byte	25
 9220 04a9 01       		.byte	1
 9221 04aa 19       		.byte	25
 9222 04ab FE       		.byte	-2
 9223 04ac 00       		.byte	0
 9224 04ad 00       		.byte	0
 9225 04ae 00       		.byte	0
 9226 04af 00       		.byte	0
 9227 04b0 10       		.byte	16
 9228 04b1 04       		.byte	4
 9229 04b2 1F       		.byte	31
 9230 04b3 FC       		.byte	-4
 9231 04b4 00       		.byte	0
 9232 04b5 24       		.byte	36
 9233 04b6 00       		.byte	0
 9234 04b7 40       		.byte	64
 9235 04b8 01       		.byte	1
 9236 04b9 B4       		.byte	-76
 9237 04ba 01       		.byte	1
 9238 04bb 0C       		.byte	12
 9239 04bc 01       		.byte	1
 9240 04bd 04       		.byte	4
 9241 04be 00       		.byte	0
 9242 04bf 00       		.byte	0
 9243 04c0 00       		.byte	0
 9244 04c1 00       		.byte	0
 9245 04c2 10       		.byte	16
 9246 04c3 04       		.byte	4
 9247 04c4 10       		.byte	16
 9248 04c5 04       		.byte	4
 9249 04c6 1F       		.byte	31
ARM GAS  /tmp/cco7znPM.s 			page 213


 9250 04c7 FC       		.byte	-4
 9251 04c8 00       		.byte	0
 9252 04c9 04       		.byte	4
 9253 04ca 00       		.byte	0
 9254 04cb 04       		.byte	4
 9255 04cc 00       		.byte	0
 9256 04cd 00       		.byte	0
 9257 04ce 00       		.byte	0
 9258 04cf 00       		.byte	0
 9259 04d0 01       		.byte	1
 9260 04d1 04       		.byte	4
 9261 04d2 01       		.byte	1
 9262 04d3 FC       		.byte	-4
 9263 04d4 01       		.byte	1
 9264 04d5 04       		.byte	4
 9265 04d6 01       		.byte	1
 9266 04d7 00       		.byte	0
 9267 04d8 01       		.byte	1
 9268 04d9 FC       		.byte	-4
 9269 04da 01       		.byte	1
 9270 04db 04       		.byte	4
 9271 04dc 01       		.byte	1
 9272 04dd 00       		.byte	0
 9273 04de 00       		.byte	0
 9274 04df FC       		.byte	-4
 9275 04e0 01       		.byte	1
 9276 04e1 04       		.byte	4
 9277 04e2 01       		.byte	1
 9278 04e3 FC       		.byte	-4
 9279 04e4 00       		.byte	0
 9280 04e5 84       		.byte	-124
 9281 04e6 01       		.byte	1
 9282 04e7 00       		.byte	0
 9283 04e8 01       		.byte	1
 9284 04e9 00       		.byte	0
 9285 04ea 01       		.byte	1
 9286 04eb 04       		.byte	4
 9287 04ec 00       		.byte	0
 9288 04ed FC       		.byte	-4
 9289 04ee 00       		.byte	0
 9290 04ef 04       		.byte	4
 9291 04f0 00       		.byte	0
 9292 04f1 00       		.byte	0
 9293 04f2 00       		.byte	0
 9294 04f3 F8       		.byte	-8
 9295 04f4 01       		.byte	1
 9296 04f5 04       		.byte	4
 9297 04f6 01       		.byte	1
 9298 04f7 04       		.byte	4
 9299 04f8 01       		.byte	1
 9300 04f9 04       		.byte	4
 9301 04fa 01       		.byte	1
 9302 04fb 04       		.byte	4
 9303 04fc 00       		.byte	0
 9304 04fd F8       		.byte	-8
 9305 04fe 00       		.byte	0
 9306 04ff 00       		.byte	0
ARM GAS  /tmp/cco7znPM.s 			page 214


 9307 0500 01       		.byte	1
 9308 0501 01       		.byte	1
 9309 0502 01       		.byte	1
 9310 0503 FF       		.byte	-1
 9311 0504 00       		.byte	0
 9312 0505 85       		.byte	-123
 9313 0506 01       		.byte	1
 9314 0507 04       		.byte	4
 9315 0508 01       		.byte	1
 9316 0509 04       		.byte	4
 9317 050a 00       		.byte	0
 9318 050b 88       		.byte	-120
 9319 050c 00       		.byte	0
 9320 050d 70       		.byte	112
 9321 050e 00       		.byte	0
 9322 050f 00       		.byte	0
 9323 0510 00       		.byte	0
 9324 0511 00       		.byte	0
 9325 0512 00       		.byte	0
 9326 0513 70       		.byte	112
 9327 0514 00       		.byte	0
 9328 0515 88       		.byte	-120
 9329 0516 01       		.byte	1
 9330 0517 04       		.byte	4
 9331 0518 01       		.byte	1
 9332 0519 04       		.byte	4
 9333 051a 01       		.byte	1
 9334 051b 05       		.byte	5
 9335 051c 01       		.byte	1
 9336 051d FF       		.byte	-1
 9337 051e 00       		.byte	0
 9338 051f 01       		.byte	1
 9339 0520 01       		.byte	1
 9340 0521 04       		.byte	4
 9341 0522 01       		.byte	1
 9342 0523 04       		.byte	4
 9343 0524 01       		.byte	1
 9344 0525 FC       		.byte	-4
 9345 0526 00       		.byte	0
 9346 0527 84       		.byte	-124
 9347 0528 01       		.byte	1
 9348 0529 04       		.byte	4
 9349 052a 01       		.byte	1
 9350 052b 00       		.byte	0
 9351 052c 01       		.byte	1
 9352 052d 80       		.byte	-128
 9353 052e 00       		.byte	0
 9354 052f 00       		.byte	0
 9355 0530 00       		.byte	0
 9356 0531 00       		.byte	0
 9357 0532 00       		.byte	0
 9358 0533 CC       		.byte	-52
 9359 0534 01       		.byte	1
 9360 0535 24       		.byte	36
 9361 0536 01       		.byte	1
 9362 0537 24       		.byte	36
 9363 0538 01       		.byte	1
ARM GAS  /tmp/cco7znPM.s 			page 215


 9364 0539 24       		.byte	36
 9365 053a 01       		.byte	1
 9366 053b 24       		.byte	36
 9367 053c 01       		.byte	1
 9368 053d 98       		.byte	-104
 9369 053e 00       		.byte	0
 9370 053f 00       		.byte	0
 9371 0540 00       		.byte	0
 9372 0541 00       		.byte	0
 9373 0542 01       		.byte	1
 9374 0543 00       		.byte	0
 9375 0544 01       		.byte	1
 9376 0545 00       		.byte	0
 9377 0546 07       		.byte	7
 9378 0547 F8       		.byte	-8
 9379 0548 01       		.byte	1
 9380 0549 04       		.byte	4
 9381 054a 01       		.byte	1
 9382 054b 04       		.byte	4
 9383 054c 00       		.byte	0
 9384 054d 00       		.byte	0
 9385 054e 00       		.byte	0
 9386 054f 00       		.byte	0
 9387 0550 01       		.byte	1
 9388 0551 00       		.byte	0
 9389 0552 01       		.byte	1
 9390 0553 F8       		.byte	-8
 9391 0554 00       		.byte	0
 9392 0555 04       		.byte	4
 9393 0556 00       		.byte	0
 9394 0557 04       		.byte	4
 9395 0558 00       		.byte	0
 9396 0559 04       		.byte	4
 9397 055a 01       		.byte	1
 9398 055b 08       		.byte	8
 9399 055c 01       		.byte	1
 9400 055d FC       		.byte	-4
 9401 055e 00       		.byte	0
 9402 055f 04       		.byte	4
 9403 0560 01       		.byte	1
 9404 0561 00       		.byte	0
 9405 0562 01       		.byte	1
 9406 0563 80       		.byte	-128
 9407 0564 01       		.byte	1
 9408 0565 70       		.byte	112
 9409 0566 00       		.byte	0
 9410 0567 0C       		.byte	12
 9411 0568 00       		.byte	0
 9412 0569 10       		.byte	16
 9413 056a 01       		.byte	1
 9414 056b 60       		.byte	96
 9415 056c 01       		.byte	1
 9416 056d 80       		.byte	-128
 9417 056e 01       		.byte	1
 9418 056f 00       		.byte	0
 9419 0570 01       		.byte	1
 9420 0571 F0       		.byte	-16
ARM GAS  /tmp/cco7znPM.s 			page 216


 9421 0572 01       		.byte	1
 9422 0573 0C       		.byte	12
 9423 0574 00       		.byte	0
 9424 0575 30       		.byte	48
 9425 0576 01       		.byte	1
 9426 0577 C0       		.byte	-64
 9427 0578 00       		.byte	0
 9428 0579 30       		.byte	48
 9429 057a 01       		.byte	1
 9430 057b 0C       		.byte	12
 9431 057c 01       		.byte	1
 9432 057d F0       		.byte	-16
 9433 057e 01       		.byte	1
 9434 057f 00       		.byte	0
 9435 0580 00       		.byte	0
 9436 0581 00       		.byte	0
 9437 0582 01       		.byte	1
 9438 0583 04       		.byte	4
 9439 0584 01       		.byte	1
 9440 0585 8C       		.byte	-116
 9441 0586 00       		.byte	0
 9442 0587 74       		.byte	116
 9443 0588 01       		.byte	1
 9444 0589 70       		.byte	112
 9445 058a 01       		.byte	1
 9446 058b 8C       		.byte	-116
 9447 058c 01       		.byte	1
 9448 058d 04       		.byte	4
 9449 058e 00       		.byte	0
 9450 058f 00       		.byte	0
 9451 0590 01       		.byte	1
 9452 0591 01       		.byte	1
 9453 0592 01       		.byte	1
 9454 0593 81       		.byte	-127
 9455 0594 01       		.byte	1
 9456 0595 71       		.byte	113
 9457 0596 00       		.byte	0
 9458 0597 0E       		.byte	14
 9459 0598 00       		.byte	0
 9460 0599 18       		.byte	24
 9461 059a 01       		.byte	1
 9462 059b 60       		.byte	96
 9463 059c 01       		.byte	1
 9464 059d 80       		.byte	-128
 9465 059e 01       		.byte	1
 9466 059f 00       		.byte	0
 9467 05a0 00       		.byte	0
 9468 05a1 00       		.byte	0
 9469 05a2 01       		.byte	1
 9470 05a3 84       		.byte	-124
 9471 05a4 01       		.byte	1
 9472 05a5 0C       		.byte	12
 9473 05a6 01       		.byte	1
 9474 05a7 34       		.byte	52
 9475 05a8 01       		.byte	1
 9476 05a9 44       		.byte	68
 9477 05aa 01       		.byte	1
ARM GAS  /tmp/cco7znPM.s 			page 217


 9478 05ab 84       		.byte	-124
 9479 05ac 01       		.byte	1
 9480 05ad 0C       		.byte	12
 9481 05ae 00       		.byte	0
 9482 05af 00       		.byte	0
 9483 05b0 00       		.byte	0
 9484 05b1 00       		.byte	0
 9485 05b2 00       		.byte	0
 9486 05b3 00       		.byte	0
 9487 05b4 00       		.byte	0
 9488 05b5 00       		.byte	0
 9489 05b6 00       		.byte	0
 9490 05b7 00       		.byte	0
 9491 05b8 01       		.byte	1
 9492 05b9 00       		.byte	0
 9493 05ba 3E       		.byte	62
 9494 05bb FC       		.byte	-4
 9495 05bc 40       		.byte	64
 9496 05bd 02       		.byte	2
 9497 05be 40       		.byte	64
 9498 05bf 02       		.byte	2
 9499 05c0 00       		.byte	0
 9500 05c1 00       		.byte	0
 9501 05c2 00       		.byte	0
 9502 05c3 00       		.byte	0
 9503 05c4 00       		.byte	0
 9504 05c5 00       		.byte	0
 9505 05c6 00       		.byte	0
 9506 05c7 00       		.byte	0
 9507 05c8 FF       		.byte	-1
 9508 05c9 FF       		.byte	-1
 9509 05ca 00       		.byte	0
 9510 05cb 00       		.byte	0
 9511 05cc 00       		.byte	0
 9512 05cd 00       		.byte	0
 9513 05ce 00       		.byte	0
 9514 05cf 00       		.byte	0
 9515 05d0 00       		.byte	0
 9516 05d1 00       		.byte	0
 9517 05d2 40       		.byte	64
 9518 05d3 02       		.byte	2
 9519 05d4 40       		.byte	64
 9520 05d5 02       		.byte	2
 9521 05d6 3E       		.byte	62
 9522 05d7 FC       		.byte	-4
 9523 05d8 01       		.byte	1
 9524 05d9 00       		.byte	0
 9525 05da 00       		.byte	0
 9526 05db 00       		.byte	0
 9527 05dc 00       		.byte	0
 9528 05dd 00       		.byte	0
 9529 05de 00       		.byte	0
 9530 05df 00       		.byte	0
 9531 05e0 00       		.byte	0
 9532 05e1 00       		.byte	0
 9533 05e2 60       		.byte	96
 9534 05e3 00       		.byte	0
ARM GAS  /tmp/cco7znPM.s 			page 218


 9535 05e4 80       		.byte	-128
 9536 05e5 00       		.byte	0
 9537 05e6 80       		.byte	-128
 9538 05e7 00       		.byte	0
 9539 05e8 40       		.byte	64
 9540 05e9 00       		.byte	0
 9541 05ea 40       		.byte	64
 9542 05eb 00       		.byte	0
 9543 05ec 20       		.byte	32
 9544 05ed 00       		.byte	0
 9545 05ee 20       		.byte	32
 9546 05ef 00       		.byte	0
 9547              		.section	.rodata.asc2_2412,"a",%progbits
 9548              		.align	2
 9549              		.set	.LANCHOR3,. + 0
 9552              	asc2_2412:
 9553 0000 00       		.byte	0
 9554 0001 00       		.byte	0
 9555 0002 00       		.byte	0
 9556 0003 00       		.byte	0
 9557 0004 00       		.byte	0
 9558 0005 00       		.byte	0
 9559 0006 00       		.byte	0
 9560 0007 00       		.byte	0
 9561 0008 00       		.byte	0
 9562 0009 00       		.byte	0
 9563 000a 00       		.byte	0
 9564 000b 00       		.byte	0
 9565 000c 00       		.byte	0
 9566 000d 00       		.byte	0
 9567 000e 00       		.byte	0
 9568 000f 00       		.byte	0
 9569 0010 00       		.byte	0
 9570 0011 00       		.byte	0
 9571 0012 00       		.byte	0
 9572 0013 00       		.byte	0
 9573 0014 00       		.byte	0
 9574 0015 00       		.byte	0
 9575 0016 00       		.byte	0
 9576 0017 00       		.byte	0
 9577 0018 00       		.byte	0
 9578 0019 00       		.byte	0
 9579 001a 00       		.byte	0
 9580 001b 00       		.byte	0
 9581 001c 00       		.byte	0
 9582 001d 00       		.byte	0
 9583 001e 00       		.byte	0
 9584 001f 00       		.byte	0
 9585 0020 00       		.byte	0
 9586 0021 00       		.byte	0
 9587 0022 00       		.byte	0
 9588 0023 00       		.byte	0
 9589 0024 00       		.byte	0
 9590 0025 00       		.byte	0
 9591 0026 00       		.byte	0
 9592 0027 00       		.byte	0
 9593 0028 00       		.byte	0
ARM GAS  /tmp/cco7znPM.s 			page 219


 9594 0029 00       		.byte	0
 9595 002a 00       		.byte	0
 9596 002b 00       		.byte	0
 9597 002c 00       		.byte	0
 9598 002d 00       		.byte	0
 9599 002e 00       		.byte	0
 9600 002f 00       		.byte	0
 9601 0030 00       		.byte	0
 9602 0031 00       		.byte	0
 9603 0032 00       		.byte	0
 9604 0033 0F       		.byte	15
 9605 0034 80       		.byte	-128
 9606 0035 38       		.byte	56
 9607 0036 0F       		.byte	15
 9608 0037 FE       		.byte	-2
 9609 0038 38       		.byte	56
 9610 0039 0F       		.byte	15
 9611 003a 80       		.byte	-128
 9612 003b 38       		.byte	56
 9613 003c 00       		.byte	0
 9614 003d 00       		.byte	0
 9615 003e 00       		.byte	0
 9616 003f 00       		.byte	0
 9617 0040 00       		.byte	0
 9618 0041 00       		.byte	0
 9619 0042 00       		.byte	0
 9620 0043 00       		.byte	0
 9621 0044 00       		.byte	0
 9622 0045 00       		.byte	0
 9623 0046 00       		.byte	0
 9624 0047 00       		.byte	0
 9625 0048 00       		.byte	0
 9626 0049 00       		.byte	0
 9627 004a 00       		.byte	0
 9628 004b 00       		.byte	0
 9629 004c 00       		.byte	0
 9630 004d 00       		.byte	0
 9631 004e 01       		.byte	1
 9632 004f 00       		.byte	0
 9633 0050 00       		.byte	0
 9634 0051 06       		.byte	6
 9635 0052 00       		.byte	0
 9636 0053 00       		.byte	0
 9637 0054 0C       		.byte	12
 9638 0055 00       		.byte	0
 9639 0056 00       		.byte	0
 9640 0057 38       		.byte	56
 9641 0058 00       		.byte	0
 9642 0059 00       		.byte	0
 9643 005a 31       		.byte	49
 9644 005b 00       		.byte	0
 9645 005c 00       		.byte	0
 9646 005d 06       		.byte	6
 9647 005e 00       		.byte	0
 9648 005f 00       		.byte	0
 9649 0060 0C       		.byte	12
 9650 0061 00       		.byte	0
ARM GAS  /tmp/cco7znPM.s 			page 220


 9651 0062 00       		.byte	0
 9652 0063 38       		.byte	56
 9653 0064 00       		.byte	0
 9654 0065 00       		.byte	0
 9655 0066 30       		.byte	48
 9656 0067 00       		.byte	0
 9657 0068 00       		.byte	0
 9658 0069 00       		.byte	0
 9659 006a 00       		.byte	0
 9660 006b 00       		.byte	0
 9661 006c 00       		.byte	0
 9662 006d 00       		.byte	0
 9663 006e 00       		.byte	0
 9664 006f 00       		.byte	0
 9665 0070 61       		.byte	97
 9666 0071 80       		.byte	-128
 9667 0072 00       		.byte	0
 9668 0073 67       		.byte	103
 9669 0074 F8       		.byte	-8
 9670 0075 07       		.byte	7
 9671 0076 F9       		.byte	-7
 9672 0077 80       		.byte	-128
 9673 0078 00       		.byte	0
 9674 0079 61       		.byte	97
 9675 007a 80       		.byte	-128
 9676 007b 00       		.byte	0
 9677 007c 61       		.byte	97
 9678 007d 80       		.byte	-128
 9679 007e 00       		.byte	0
 9680 007f 61       		.byte	97
 9681 0080 80       		.byte	-128
 9682 0081 00       		.byte	0
 9683 0082 61       		.byte	97
 9684 0083 80       		.byte	-128
 9685 0084 00       		.byte	0
 9686 0085 67       		.byte	103
 9687 0086 F8       		.byte	-8
 9688 0087 07       		.byte	7
 9689 0088 F9       		.byte	-7
 9690 0089 80       		.byte	-128
 9691 008a 00       		.byte	0
 9692 008b 61       		.byte	97
 9693 008c 80       		.byte	-128
 9694 008d 00       		.byte	0
 9695 008e 00       		.byte	0
 9696 008f 00       		.byte	0
 9697 0090 00       		.byte	0
 9698 0091 00       		.byte	0
 9699 0092 00       		.byte	0
 9700 0093 00       		.byte	0
 9701 0094 00       		.byte	0
 9702 0095 00       		.byte	0
 9703 0096 01       		.byte	1
 9704 0097 C0       		.byte	-64
 9705 0098 E0       		.byte	-32
 9706 0099 03       		.byte	3
 9707 009a E0       		.byte	-32
ARM GAS  /tmp/cco7znPM.s 			page 221


 9708 009b F0       		.byte	-16
 9709 009c 06       		.byte	6
 9710 009d 30       		.byte	48
 9711 009e 08       		.byte	8
 9712 009f 04       		.byte	4
 9713 00a0 18       		.byte	24
 9714 00a1 08       		.byte	8
 9715 00a2 1F       		.byte	31
 9716 00a3 FF       		.byte	-1
 9717 00a4 FE       		.byte	-2
 9718 00a5 04       		.byte	4
 9719 00a6 0E       		.byte	14
 9720 00a7 08       		.byte	8
 9721 00a8 07       		.byte	7
 9722 00a9 87       		.byte	-121
 9723 00aa F0       		.byte	-16
 9724 00ab 03       		.byte	3
 9725 00ac 81       		.byte	-127
 9726 00ad E0       		.byte	-32
 9727 00ae 00       		.byte	0
 9728 00af 00       		.byte	0
 9729 00b0 00       		.byte	0
 9730 00b1 00       		.byte	0
 9731 00b2 00       		.byte	0
 9732 00b3 00       		.byte	0
 9733 00b4 01       		.byte	1
 9734 00b5 F0       		.byte	-16
 9735 00b6 00       		.byte	0
 9736 00b7 06       		.byte	6
 9737 00b8 0C       		.byte	12
 9738 00b9 00       		.byte	0
 9739 00ba 04       		.byte	4
 9740 00bb 04       		.byte	4
 9741 00bc 08       		.byte	8
 9742 00bd 06       		.byte	6
 9743 00be 0C       		.byte	12
 9744 00bf 70       		.byte	112
 9745 00c0 01       		.byte	1
 9746 00c1 F9       		.byte	-7
 9747 00c2 C0       		.byte	-64
 9748 00c3 00       		.byte	0
 9749 00c4 0E       		.byte	14
 9750 00c5 00       		.byte	0
 9751 00c6 00       		.byte	0
 9752 00c7 3B       		.byte	59
 9753 00c8 E0       		.byte	-32
 9754 00c9 00       		.byte	0
 9755 00ca EC       		.byte	-20
 9756 00cb 18       		.byte	24
 9757 00cc 07       		.byte	7
 9758 00cd 08       		.byte	8
 9759 00ce 08       		.byte	8
 9760 00cf 04       		.byte	4
 9761 00d0 0C       		.byte	12
 9762 00d1 18       		.byte	24
 9763 00d2 00       		.byte	0
 9764 00d3 03       		.byte	3
ARM GAS  /tmp/cco7znPM.s 			page 222


 9765 00d4 E0       		.byte	-32
 9766 00d5 00       		.byte	0
 9767 00d6 00       		.byte	0
 9768 00d7 00       		.byte	0
 9769 00d8 00       		.byte	0
 9770 00d9 01       		.byte	1
 9771 00da E0       		.byte	-32
 9772 00db 00       		.byte	0
 9773 00dc 07       		.byte	7
 9774 00dd F0       		.byte	-16
 9775 00de 03       		.byte	3
 9776 00df F8       		.byte	-8
 9777 00e0 18       		.byte	24
 9778 00e1 04       		.byte	4
 9779 00e2 1C       		.byte	28
 9780 00e3 08       		.byte	8
 9781 00e4 04       		.byte	4
 9782 00e5 17       		.byte	23
 9783 00e6 08       		.byte	8
 9784 00e7 07       		.byte	7
 9785 00e8 E1       		.byte	-31
 9786 00e9 D0       		.byte	-48
 9787 00ea 03       		.byte	3
 9788 00eb C0       		.byte	-64
 9789 00ec E0       		.byte	-32
 9790 00ed 00       		.byte	0
 9791 00ee 23       		.byte	35
 9792 00ef B0       		.byte	-80
 9793 00f0 00       		.byte	0
 9794 00f1 3C       		.byte	60
 9795 00f2 08       		.byte	8
 9796 00f3 00       		.byte	0
 9797 00f4 20       		.byte	32
 9798 00f5 08       		.byte	8
 9799 00f6 00       		.byte	0
 9800 00f7 00       		.byte	0
 9801 00f8 10       		.byte	16
 9802 00f9 00       		.byte	0
 9803 00fa 00       		.byte	0
 9804 00fb 00       		.byte	0
 9805 00fc 00       		.byte	0
 9806 00fd 00       		.byte	0
 9807 00fe 00       		.byte	0
 9808 00ff 01       		.byte	1
 9809 0100 00       		.byte	0
 9810 0101 00       		.byte	0
 9811 0102 31       		.byte	49
 9812 0103 00       		.byte	0
 9813 0104 00       		.byte	0
 9814 0105 32       		.byte	50
 9815 0106 00       		.byte	0
 9816 0107 00       		.byte	0
 9817 0108 1C       		.byte	28
 9818 0109 00       		.byte	0
 9819 010a 00       		.byte	0
 9820 010b 00       		.byte	0
 9821 010c 00       		.byte	0
ARM GAS  /tmp/cco7znPM.s 			page 223


 9822 010d 00       		.byte	0
 9823 010e 00       		.byte	0
 9824 010f 00       		.byte	0
 9825 0110 00       		.byte	0
 9826 0111 00       		.byte	0
 9827 0112 00       		.byte	0
 9828 0113 00       		.byte	0
 9829 0114 00       		.byte	0
 9830 0115 00       		.byte	0
 9831 0116 00       		.byte	0
 9832 0117 00       		.byte	0
 9833 0118 00       		.byte	0
 9834 0119 00       		.byte	0
 9835 011a 00       		.byte	0
 9836 011b 00       		.byte	0
 9837 011c 00       		.byte	0
 9838 011d 00       		.byte	0
 9839 011e 00       		.byte	0
 9840 011f 00       		.byte	0
 9841 0120 00       		.byte	0
 9842 0121 00       		.byte	0
 9843 0122 00       		.byte	0
 9844 0123 00       		.byte	0
 9845 0124 00       		.byte	0
 9846 0125 00       		.byte	0
 9847 0126 00       		.byte	0
 9848 0127 00       		.byte	0
 9849 0128 00       		.byte	0
 9850 0129 00       		.byte	0
 9851 012a 00       		.byte	0
 9852 012b 00       		.byte	0
 9853 012c 00       		.byte	0
 9854 012d 00       		.byte	0
 9855 012e 00       		.byte	0
 9856 012f 00       		.byte	0
 9857 0130 7F       		.byte	127
 9858 0131 00       		.byte	0
 9859 0132 01       		.byte	1
 9860 0133 FF       		.byte	-1
 9861 0134 C0       		.byte	-64
 9862 0135 07       		.byte	7
 9863 0136 80       		.byte	-128
 9864 0137 F0       		.byte	-16
 9865 0138 0C       		.byte	12
 9866 0139 00       		.byte	0
 9867 013a 18       		.byte	24
 9868 013b 10       		.byte	16
 9869 013c 00       		.byte	0
 9870 013d 04       		.byte	4
 9871 013e 20       		.byte	32
 9872 013f 00       		.byte	0
 9873 0140 02       		.byte	2
 9874 0141 00       		.byte	0
 9875 0142 00       		.byte	0
 9876 0143 00       		.byte	0
 9877 0144 00       		.byte	0
 9878 0145 00       		.byte	0
ARM GAS  /tmp/cco7znPM.s 			page 224


 9879 0146 00       		.byte	0
 9880 0147 20       		.byte	32
 9881 0148 00       		.byte	0
 9882 0149 02       		.byte	2
 9883 014a 10       		.byte	16
 9884 014b 00       		.byte	0
 9885 014c 04       		.byte	4
 9886 014d 0C       		.byte	12
 9887 014e 00       		.byte	0
 9888 014f 18       		.byte	24
 9889 0150 07       		.byte	7
 9890 0151 80       		.byte	-128
 9891 0152 F0       		.byte	-16
 9892 0153 01       		.byte	1
 9893 0154 FF       		.byte	-1
 9894 0155 C0       		.byte	-64
 9895 0156 00       		.byte	0
 9896 0157 7F       		.byte	127
 9897 0158 00       		.byte	0
 9898 0159 00       		.byte	0
 9899 015a 00       		.byte	0
 9900 015b 00       		.byte	0
 9901 015c 00       		.byte	0
 9902 015d 00       		.byte	0
 9903 015e 00       		.byte	0
 9904 015f 00       		.byte	0
 9905 0160 00       		.byte	0
 9906 0161 00       		.byte	0
 9907 0162 00       		.byte	0
 9908 0163 00       		.byte	0
 9909 0164 00       		.byte	0
 9910 0165 00       		.byte	0
 9911 0166 00       		.byte	0
 9912 0167 00       		.byte	0
 9913 0168 00       		.byte	0
 9914 0169 00       		.byte	0
 9915 016a 00       		.byte	0
 9916 016b 00       		.byte	0
 9917 016c 42       		.byte	66
 9918 016d 00       		.byte	0
 9919 016e 00       		.byte	0
 9920 016f 66       		.byte	102
 9921 0170 00       		.byte	0
 9922 0171 00       		.byte	0
 9923 0172 66       		.byte	102
 9924 0173 00       		.byte	0
 9925 0174 00       		.byte	0
 9926 0175 3C       		.byte	60
 9927 0176 00       		.byte	0
 9928 0177 00       		.byte	0
 9929 0178 18       		.byte	24
 9930 0179 00       		.byte	0
 9931 017a 03       		.byte	3
 9932 017b FF       		.byte	-1
 9933 017c C0       		.byte	-64
 9934 017d 00       		.byte	0
 9935 017e 18       		.byte	24
ARM GAS  /tmp/cco7znPM.s 			page 225


 9936 017f 00       		.byte	0
 9937 0180 00       		.byte	0
 9938 0181 3C       		.byte	60
 9939 0182 00       		.byte	0
 9940 0183 00       		.byte	0
 9941 0184 66       		.byte	102
 9942 0185 00       		.byte	0
 9943 0186 00       		.byte	0
 9944 0187 66       		.byte	102
 9945 0188 00       		.byte	0
 9946 0189 00       		.byte	0
 9947 018a 42       		.byte	66
 9948 018b 00       		.byte	0
 9949 018c 00       		.byte	0
 9950 018d 00       		.byte	0
 9951 018e 00       		.byte	0
 9952 018f 00       		.byte	0
 9953 0190 08       		.byte	8
 9954 0191 00       		.byte	0
 9955 0192 00       		.byte	0
 9956 0193 08       		.byte	8
 9957 0194 00       		.byte	0
 9958 0195 00       		.byte	0
 9959 0196 08       		.byte	8
 9960 0197 00       		.byte	0
 9961 0198 00       		.byte	0
 9962 0199 08       		.byte	8
 9963 019a 00       		.byte	0
 9964 019b 00       		.byte	0
 9965 019c 08       		.byte	8
 9966 019d 00       		.byte	0
 9967 019e 01       		.byte	1
 9968 019f FF       		.byte	-1
 9969 01a0 C0       		.byte	-64
 9970 01a1 00       		.byte	0
 9971 01a2 08       		.byte	8
 9972 01a3 00       		.byte	0
 9973 01a4 00       		.byte	0
 9974 01a5 08       		.byte	8
 9975 01a6 00       		.byte	0
 9976 01a7 00       		.byte	0
 9977 01a8 08       		.byte	8
 9978 01a9 00       		.byte	0
 9979 01aa 00       		.byte	0
 9980 01ab 08       		.byte	8
 9981 01ac 00       		.byte	0
 9982 01ad 00       		.byte	0
 9983 01ae 08       		.byte	8
 9984 01af 00       		.byte	0
 9985 01b0 00       		.byte	0
 9986 01b1 00       		.byte	0
 9987 01b2 00       		.byte	0
 9988 01b3 00       		.byte	0
 9989 01b4 00       		.byte	0
 9990 01b5 01       		.byte	1
 9991 01b6 00       		.byte	0
 9992 01b7 00       		.byte	0
ARM GAS  /tmp/cco7znPM.s 			page 226


 9993 01b8 31       		.byte	49
 9994 01b9 00       		.byte	0
 9995 01ba 00       		.byte	0
 9996 01bb 32       		.byte	50
 9997 01bc 00       		.byte	0
 9998 01bd 00       		.byte	0
 9999 01be 1C       		.byte	28
 10000 01bf 00       		.byte	0
 10001 01c0 00       		.byte	0
 10002 01c1 00       		.byte	0
 10003 01c2 00       		.byte	0
 10004 01c3 00       		.byte	0
 10005 01c4 00       		.byte	0
 10006 01c5 00       		.byte	0
 10007 01c6 00       		.byte	0
 10008 01c7 00       		.byte	0
 10009 01c8 00       		.byte	0
 10010 01c9 00       		.byte	0
 10011 01ca 00       		.byte	0
 10012 01cb 00       		.byte	0
 10013 01cc 00       		.byte	0
 10014 01cd 00       		.byte	0
 10015 01ce 00       		.byte	0
 10016 01cf 00       		.byte	0
 10017 01d0 00       		.byte	0
 10018 01d1 00       		.byte	0
 10019 01d2 00       		.byte	0
 10020 01d3 00       		.byte	0
 10021 01d4 00       		.byte	0
 10022 01d5 00       		.byte	0
 10023 01d6 00       		.byte	0
 10024 01d7 00       		.byte	0
 10025 01d8 08       		.byte	8
 10026 01d9 00       		.byte	0
 10027 01da 00       		.byte	0
 10028 01db 08       		.byte	8
 10029 01dc 00       		.byte	0
 10030 01dd 00       		.byte	0
 10031 01de 08       		.byte	8
 10032 01df 00       		.byte	0
 10033 01e0 00       		.byte	0
 10034 01e1 08       		.byte	8
 10035 01e2 00       		.byte	0
 10036 01e3 00       		.byte	0
 10037 01e4 08       		.byte	8
 10038 01e5 00       		.byte	0
 10039 01e6 00       		.byte	0
 10040 01e7 08       		.byte	8
 10041 01e8 00       		.byte	0
 10042 01e9 00       		.byte	0
 10043 01ea 08       		.byte	8
 10044 01eb 00       		.byte	0
 10045 01ec 00       		.byte	0
 10046 01ed 08       		.byte	8
 10047 01ee 00       		.byte	0
 10048 01ef 00       		.byte	0
 10049 01f0 08       		.byte	8
ARM GAS  /tmp/cco7znPM.s 			page 227


 10050 01f1 00       		.byte	0
 10051 01f2 00       		.byte	0
 10052 01f3 08       		.byte	8
 10053 01f4 00       		.byte	0
 10054 01f5 00       		.byte	0
 10055 01f6 00       		.byte	0
 10056 01f7 00       		.byte	0
 10057 01f8 00       		.byte	0
 10058 01f9 00       		.byte	0
 10059 01fa 00       		.byte	0
 10060 01fb 00       		.byte	0
 10061 01fc 00       		.byte	0
 10062 01fd 00       		.byte	0
 10063 01fe 00       		.byte	0
 10064 01ff 00       		.byte	0
 10065 0200 38       		.byte	56
 10066 0201 00       		.byte	0
 10067 0202 00       		.byte	0
 10068 0203 38       		.byte	56
 10069 0204 00       		.byte	0
 10070 0205 00       		.byte	0
 10071 0206 38       		.byte	56
 10072 0207 00       		.byte	0
 10073 0208 00       		.byte	0
 10074 0209 00       		.byte	0
 10075 020a 00       		.byte	0
 10076 020b 00       		.byte	0
 10077 020c 00       		.byte	0
 10078 020d 00       		.byte	0
 10079 020e 00       		.byte	0
 10080 020f 00       		.byte	0
 10081 0210 00       		.byte	0
 10082 0211 00       		.byte	0
 10083 0212 00       		.byte	0
 10084 0213 00       		.byte	0
 10085 0214 00       		.byte	0
 10086 0215 00       		.byte	0
 10087 0216 00       		.byte	0
 10088 0217 00       		.byte	0
 10089 0218 00       		.byte	0
 10090 0219 00       		.byte	0
 10091 021a 00       		.byte	0
 10092 021b 00       		.byte	0
 10093 021c 00       		.byte	0
 10094 021d 00       		.byte	0
 10095 021e 00       		.byte	0
 10096 021f 00       		.byte	0
 10097 0220 00       		.byte	0
 10098 0221 06       		.byte	6
 10099 0222 00       		.byte	0
 10100 0223 00       		.byte	0
 10101 0224 1C       		.byte	28
 10102 0225 00       		.byte	0
 10103 0226 00       		.byte	0
 10104 0227 70       		.byte	112
 10105 0228 00       		.byte	0
 10106 0229 01       		.byte	1
ARM GAS  /tmp/cco7znPM.s 			page 228


 10107 022a 80       		.byte	-128
 10108 022b 00       		.byte	0
 10109 022c 0E       		.byte	14
 10110 022d 00       		.byte	0
 10111 022e 00       		.byte	0
 10112 022f 38       		.byte	56
 10113 0230 00       		.byte	0
 10114 0231 00       		.byte	0
 10115 0232 C0       		.byte	-64
 10116 0233 00       		.byte	0
 10117 0234 07       		.byte	7
 10118 0235 00       		.byte	0
 10119 0236 00       		.byte	0
 10120 0237 1C       		.byte	28
 10121 0238 00       		.byte	0
 10122 0239 00       		.byte	0
 10123 023a 30       		.byte	48
 10124 023b 00       		.byte	0
 10125 023c 00       		.byte	0
 10126 023d 00       		.byte	0
 10127 023e 00       		.byte	0
 10128 023f 00       		.byte	0
 10129 0240 00       		.byte	0
 10130 0241 00       		.byte	0
 10131 0242 00       		.byte	0
 10132 0243 00       		.byte	0
 10133 0244 7F       		.byte	127
 10134 0245 80       		.byte	-128
 10135 0246 01       		.byte	1
 10136 0247 FF       		.byte	-1
 10137 0248 E0       		.byte	-32
 10138 0249 03       		.byte	3
 10139 024a 80       		.byte	-128
 10140 024b 70       		.byte	112
 10141 024c 06       		.byte	6
 10142 024d 00       		.byte	0
 10143 024e 18       		.byte	24
 10144 024f 04       		.byte	4
 10145 0250 00       		.byte	0
 10146 0251 08       		.byte	8
 10147 0252 04       		.byte	4
 10148 0253 00       		.byte	0
 10149 0254 08       		.byte	8
 10150 0255 06       		.byte	6
 10151 0256 00       		.byte	0
 10152 0257 18       		.byte	24
 10153 0258 03       		.byte	3
 10154 0259 80       		.byte	-128
 10155 025a 70       		.byte	112
 10156 025b 01       		.byte	1
 10157 025c FF       		.byte	-1
 10158 025d E0       		.byte	-32
 10159 025e 00       		.byte	0
 10160 025f 7F       		.byte	127
 10161 0260 80       		.byte	-128
 10162 0261 00       		.byte	0
 10163 0262 00       		.byte	0
ARM GAS  /tmp/cco7znPM.s 			page 229


 10164 0263 00       		.byte	0
 10165 0264 00       		.byte	0
 10166 0265 00       		.byte	0
 10167 0266 00       		.byte	0
 10168 0267 00       		.byte	0
 10169 0268 00       		.byte	0
 10170 0269 00       		.byte	0
 10171 026a 01       		.byte	1
 10172 026b 00       		.byte	0
 10173 026c 08       		.byte	8
 10174 026d 01       		.byte	1
 10175 026e 00       		.byte	0
 10176 026f 08       		.byte	8
 10177 0270 01       		.byte	1
 10178 0271 00       		.byte	0
 10179 0272 08       		.byte	8
 10180 0273 03       		.byte	3
 10181 0274 FF       		.byte	-1
 10182 0275 F8       		.byte	-8
 10183 0276 07       		.byte	7
 10184 0277 FF       		.byte	-1
 10185 0278 F8       		.byte	-8
 10186 0279 00       		.byte	0
 10187 027a 00       		.byte	0
 10188 027b 08       		.byte	8
 10189 027c 00       		.byte	0
 10190 027d 00       		.byte	0
 10191 027e 08       		.byte	8
 10192 027f 00       		.byte	0
 10193 0280 00       		.byte	0
 10194 0281 08       		.byte	8
 10195 0282 00       		.byte	0
 10196 0283 00       		.byte	0
 10197 0284 00       		.byte	0
 10198 0285 00       		.byte	0
 10199 0286 00       		.byte	0
 10200 0287 00       		.byte	0
 10201 0288 00       		.byte	0
 10202 0289 00       		.byte	0
 10203 028a 00       		.byte	0
 10204 028b 01       		.byte	1
 10205 028c C0       		.byte	-64
 10206 028d 38       		.byte	56
 10207 028e 02       		.byte	2
 10208 028f C0       		.byte	-64
 10209 0290 58       		.byte	88
 10210 0291 04       		.byte	4
 10211 0292 00       		.byte	0
 10212 0293 98       		.byte	-104
 10213 0294 04       		.byte	4
 10214 0295 01       		.byte	1
 10215 0296 18       		.byte	24
 10216 0297 04       		.byte	4
 10217 0298 02       		.byte	2
 10218 0299 18       		.byte	24
 10219 029a 04       		.byte	4
 10220 029b 04       		.byte	4
ARM GAS  /tmp/cco7znPM.s 			page 230


 10221 029c 18       		.byte	24
 10222 029d 06       		.byte	6
 10223 029e 1C       		.byte	28
 10224 029f 18       		.byte	24
 10225 02a0 03       		.byte	3
 10226 02a1 F8       		.byte	-8
 10227 02a2 18       		.byte	24
 10228 02a3 01       		.byte	1
 10229 02a4 E0       		.byte	-32
 10230 02a5 F8       		.byte	-8
 10231 02a6 00       		.byte	0
 10232 02a7 00       		.byte	0
 10233 02a8 00       		.byte	0
 10234 02a9 00       		.byte	0
 10235 02aa 00       		.byte	0
 10236 02ab 00       		.byte	0
 10237 02ac 00       		.byte	0
 10238 02ad 00       		.byte	0
 10239 02ae 00       		.byte	0
 10240 02af 01       		.byte	1
 10241 02b0 C0       		.byte	-64
 10242 02b1 E0       		.byte	-32
 10243 02b2 03       		.byte	3
 10244 02b3 C0       		.byte	-64
 10245 02b4 F0       		.byte	-16
 10246 02b5 04       		.byte	4
 10247 02b6 00       		.byte	0
 10248 02b7 08       		.byte	8
 10249 02b8 04       		.byte	4
 10250 02b9 08       		.byte	8
 10251 02ba 08       		.byte	8
 10252 02bb 04       		.byte	4
 10253 02bc 08       		.byte	8
 10254 02bd 08       		.byte	8
 10255 02be 06       		.byte	6
 10256 02bf 18       		.byte	24
 10257 02c0 08       		.byte	8
 10258 02c1 03       		.byte	3
 10259 02c2 F4       		.byte	-12
 10260 02c3 18       		.byte	24
 10261 02c4 01       		.byte	1
 10262 02c5 E7       		.byte	-25
 10263 02c6 F0       		.byte	-16
 10264 02c7 00       		.byte	0
 10265 02c8 01       		.byte	1
 10266 02c9 E0       		.byte	-32
 10267 02ca 00       		.byte	0
 10268 02cb 00       		.byte	0
 10269 02cc 00       		.byte	0
 10270 02cd 00       		.byte	0
 10271 02ce 00       		.byte	0
 10272 02cf 00       		.byte	0
 10273 02d0 00       		.byte	0
 10274 02d1 00       		.byte	0
 10275 02d2 00       		.byte	0
 10276 02d3 00       		.byte	0
 10277 02d4 03       		.byte	3
ARM GAS  /tmp/cco7znPM.s 			page 231


 10278 02d5 00       		.byte	0
 10279 02d6 00       		.byte	0
 10280 02d7 0D       		.byte	13
 10281 02d8 00       		.byte	0
 10282 02d9 00       		.byte	0
 10283 02da 11       		.byte	17
 10284 02db 00       		.byte	0
 10285 02dc 00       		.byte	0
 10286 02dd 61       		.byte	97
 10287 02de 00       		.byte	0
 10288 02df 00       		.byte	0
 10289 02e0 81       		.byte	-127
 10290 02e1 08       		.byte	8
 10291 02e2 03       		.byte	3
 10292 02e3 01       		.byte	1
 10293 02e4 08       		.byte	8
 10294 02e5 07       		.byte	7
 10295 02e6 FF       		.byte	-1
 10296 02e7 F8       		.byte	-8
 10297 02e8 0F       		.byte	15
 10298 02e9 FF       		.byte	-1
 10299 02ea F8       		.byte	-8
 10300 02eb 00       		.byte	0
 10301 02ec 01       		.byte	1
 10302 02ed 08       		.byte	8
 10303 02ee 00       		.byte	0
 10304 02ef 01       		.byte	1
 10305 02f0 08       		.byte	8
 10306 02f1 00       		.byte	0
 10307 02f2 00       		.byte	0
 10308 02f3 00       		.byte	0
 10309 02f4 00       		.byte	0
 10310 02f5 00       		.byte	0
 10311 02f6 00       		.byte	0
 10312 02f7 00       		.byte	0
 10313 02f8 00       		.byte	0
 10314 02f9 E0       		.byte	-32
 10315 02fa 07       		.byte	7
 10316 02fb FC       		.byte	-4
 10317 02fc D0       		.byte	-48
 10318 02fd 06       		.byte	6
 10319 02fe 08       		.byte	8
 10320 02ff 08       		.byte	8
 10321 0300 06       		.byte	6
 10322 0301 10       		.byte	16
 10323 0302 08       		.byte	8
 10324 0303 06       		.byte	6
 10325 0304 10       		.byte	16
 10326 0305 08       		.byte	8
 10327 0306 06       		.byte	6
 10328 0307 10       		.byte	16
 10329 0308 08       		.byte	8
 10330 0309 06       		.byte	6
 10331 030a 18       		.byte	24
 10332 030b 38       		.byte	56
 10333 030c 06       		.byte	6
 10334 030d 0F       		.byte	15
ARM GAS  /tmp/cco7znPM.s 			page 232


 10335 030e F0       		.byte	-16
 10336 030f 06       		.byte	6
 10337 0310 07       		.byte	7
 10338 0311 C0       		.byte	-64
 10339 0312 00       		.byte	0
 10340 0313 00       		.byte	0
 10341 0314 00       		.byte	0
 10342 0315 00       		.byte	0
 10343 0316 00       		.byte	0
 10344 0317 00       		.byte	0
 10345 0318 00       		.byte	0
 10346 0319 00       		.byte	0
 10347 031a 00       		.byte	0
 10348 031b 00       		.byte	0
 10349 031c 3F       		.byte	63
 10350 031d 80       		.byte	-128
 10351 031e 01       		.byte	1
 10352 031f FF       		.byte	-1
 10353 0320 E0       		.byte	-32
 10354 0321 03       		.byte	3
 10355 0322 84       		.byte	-124
 10356 0323 30       		.byte	48
 10357 0324 02       		.byte	2
 10358 0325 08       		.byte	8
 10359 0326 18       		.byte	24
 10360 0327 04       		.byte	4
 10361 0328 10       		.byte	16
 10362 0329 08       		.byte	8
 10363 032a 04       		.byte	4
 10364 032b 10       		.byte	16
 10365 032c 08       		.byte	8
 10366 032d 04       		.byte	4
 10367 032e 10       		.byte	16
 10368 032f 08       		.byte	8
 10369 0330 07       		.byte	7
 10370 0331 18       		.byte	24
 10371 0332 10       		.byte	16
 10372 0333 03       		.byte	3
 10373 0334 0F       		.byte	15
 10374 0335 F0       		.byte	-16
 10375 0336 00       		.byte	0
 10376 0337 07       		.byte	7
 10377 0338 C0       		.byte	-64
 10378 0339 00       		.byte	0
 10379 033a 00       		.byte	0
 10380 033b 00       		.byte	0
 10381 033c 00       		.byte	0
 10382 033d 00       		.byte	0
 10383 033e 00       		.byte	0
 10384 033f 00       		.byte	0
 10385 0340 00       		.byte	0
 10386 0341 00       		.byte	0
 10387 0342 03       		.byte	3
 10388 0343 C0       		.byte	-64
 10389 0344 00       		.byte	0
 10390 0345 07       		.byte	7
 10391 0346 00       		.byte	0
ARM GAS  /tmp/cco7znPM.s 			page 233


 10392 0347 00       		.byte	0
 10393 0348 06       		.byte	6
 10394 0349 00       		.byte	0
 10395 034a 00       		.byte	0
 10396 034b 06       		.byte	6
 10397 034c 00       		.byte	0
 10398 034d F8       		.byte	-8
 10399 034e 06       		.byte	6
 10400 034f 07       		.byte	7
 10401 0350 F8       		.byte	-8
 10402 0351 06       		.byte	6
 10403 0352 18       		.byte	24
 10404 0353 00       		.byte	0
 10405 0354 06       		.byte	6
 10406 0355 E0       		.byte	-32
 10407 0356 00       		.byte	0
 10408 0357 07       		.byte	7
 10409 0358 00       		.byte	0
 10410 0359 00       		.byte	0
 10411 035a 06       		.byte	6
 10412 035b 00       		.byte	0
 10413 035c 00       		.byte	0
 10414 035d 00       		.byte	0
 10415 035e 00       		.byte	0
 10416 035f 00       		.byte	0
 10417 0360 00       		.byte	0
 10418 0361 00       		.byte	0
 10419 0362 00       		.byte	0
 10420 0363 01       		.byte	1
 10421 0364 E1       		.byte	-31
 10422 0365 E0       		.byte	-32
 10423 0366 03       		.byte	3
 10424 0367 F7       		.byte	-9
 10425 0368 F0       		.byte	-16
 10426 0369 06       		.byte	6
 10427 036a 34       		.byte	52
 10428 036b 10       		.byte	16
 10429 036c 04       		.byte	4
 10430 036d 18       		.byte	24
 10431 036e 08       		.byte	8
 10432 036f 04       		.byte	4
 10433 0370 18       		.byte	24
 10434 0371 08       		.byte	8
 10435 0372 04       		.byte	4
 10436 0373 0C       		.byte	12
 10437 0374 08       		.byte	8
 10438 0375 04       		.byte	4
 10439 0376 0C       		.byte	12
 10440 0377 08       		.byte	8
 10441 0378 06       		.byte	6
 10442 0379 16       		.byte	22
 10443 037a 18       		.byte	24
 10444 037b 03       		.byte	3
 10445 037c F3       		.byte	-13
 10446 037d F0       		.byte	-16
 10447 037e 01       		.byte	1
 10448 037f C1       		.byte	-63
ARM GAS  /tmp/cco7znPM.s 			page 234


 10449 0380 E0       		.byte	-32
 10450 0381 00       		.byte	0
 10451 0382 00       		.byte	0
 10452 0383 00       		.byte	0
 10453 0384 00       		.byte	0
 10454 0385 00       		.byte	0
 10455 0386 00       		.byte	0
 10456 0387 00       		.byte	0
 10457 0388 F8       		.byte	-8
 10458 0389 00       		.byte	0
 10459 038a 03       		.byte	3
 10460 038b FC       		.byte	-4
 10461 038c 30       		.byte	48
 10462 038d 03       		.byte	3
 10463 038e 06       		.byte	6
 10464 038f 38       		.byte	56
 10465 0390 04       		.byte	4
 10466 0391 02       		.byte	2
 10467 0392 08       		.byte	8
 10468 0393 04       		.byte	4
 10469 0394 02       		.byte	2
 10470 0395 08       		.byte	8
 10471 0396 04       		.byte	4
 10472 0397 02       		.byte	2
 10473 0398 08       		.byte	8
 10474 0399 04       		.byte	4
 10475 039a 04       		.byte	4
 10476 039b 10       		.byte	16
 10477 039c 03       		.byte	3
 10478 039d 08       		.byte	8
 10479 039e F0       		.byte	-16
 10480 039f 01       		.byte	1
 10481 03a0 FF       		.byte	-1
 10482 03a1 C0       		.byte	-64
 10483 03a2 00       		.byte	0
 10484 03a3 7F       		.byte	127
 10485 03a4 00       		.byte	0
 10486 03a5 00       		.byte	0
 10487 03a6 00       		.byte	0
 10488 03a7 00       		.byte	0
 10489 03a8 00       		.byte	0
 10490 03a9 00       		.byte	0
 10491 03aa 00       		.byte	0
 10492 03ab 00       		.byte	0
 10493 03ac 00       		.byte	0
 10494 03ad 00       		.byte	0
 10495 03ae 00       		.byte	0
 10496 03af 00       		.byte	0
 10497 03b0 00       		.byte	0
 10498 03b1 00       		.byte	0
 10499 03b2 00       		.byte	0
 10500 03b3 00       		.byte	0
 10501 03b4 00       		.byte	0
 10502 03b5 00       		.byte	0
 10503 03b6 00       		.byte	0
 10504 03b7 00       		.byte	0
 10505 03b8 70       		.byte	112
ARM GAS  /tmp/cco7znPM.s 			page 235


 10506 03b9 38       		.byte	56
 10507 03ba 00       		.byte	0
 10508 03bb 70       		.byte	112
 10509 03bc 38       		.byte	56
 10510 03bd 00       		.byte	0
 10511 03be 70       		.byte	112
 10512 03bf 38       		.byte	56
 10513 03c0 00       		.byte	0
 10514 03c1 00       		.byte	0
 10515 03c2 00       		.byte	0
 10516 03c3 00       		.byte	0
 10517 03c4 00       		.byte	0
 10518 03c5 00       		.byte	0
 10519 03c6 00       		.byte	0
 10520 03c7 00       		.byte	0
 10521 03c8 00       		.byte	0
 10522 03c9 00       		.byte	0
 10523 03ca 00       		.byte	0
 10524 03cb 00       		.byte	0
 10525 03cc 00       		.byte	0
 10526 03cd 00       		.byte	0
 10527 03ce 00       		.byte	0
 10528 03cf 00       		.byte	0
 10529 03d0 00       		.byte	0
 10530 03d1 00       		.byte	0
 10531 03d2 00       		.byte	0
 10532 03d3 00       		.byte	0
 10533 03d4 00       		.byte	0
 10534 03d5 00       		.byte	0
 10535 03d6 00       		.byte	0
 10536 03d7 00       		.byte	0
 10537 03d8 00       		.byte	0
 10538 03d9 00       		.byte	0
 10539 03da 00       		.byte	0
 10540 03db 00       		.byte	0
 10541 03dc 30       		.byte	48
 10542 03dd 1A       		.byte	26
 10543 03de 00       		.byte	0
 10544 03df 30       		.byte	48
 10545 03e0 1C       		.byte	28
 10546 03e1 00       		.byte	0
 10547 03e2 00       		.byte	0
 10548 03e3 00       		.byte	0
 10549 03e4 00       		.byte	0
 10550 03e5 00       		.byte	0
 10551 03e6 00       		.byte	0
 10552 03e7 00       		.byte	0
 10553 03e8 00       		.byte	0
 10554 03e9 00       		.byte	0
 10555 03ea 00       		.byte	0
 10556 03eb 00       		.byte	0
 10557 03ec 00       		.byte	0
 10558 03ed 00       		.byte	0
 10559 03ee 00       		.byte	0
 10560 03ef 00       		.byte	0
 10561 03f0 00       		.byte	0
 10562 03f1 00       		.byte	0
ARM GAS  /tmp/cco7znPM.s 			page 236


 10563 03f2 00       		.byte	0
 10564 03f3 00       		.byte	0
 10565 03f4 00       		.byte	0
 10566 03f5 00       		.byte	0
 10567 03f6 00       		.byte	0
 10568 03f7 08       		.byte	8
 10569 03f8 00       		.byte	0
 10570 03f9 00       		.byte	0
 10571 03fa 14       		.byte	20
 10572 03fb 00       		.byte	0
 10573 03fc 00       		.byte	0
 10574 03fd 22       		.byte	34
 10575 03fe 00       		.byte	0
 10576 03ff 00       		.byte	0
 10577 0400 41       		.byte	65
 10578 0401 00       		.byte	0
 10579 0402 00       		.byte	0
 10580 0403 80       		.byte	-128
 10581 0404 80       		.byte	-128
 10582 0405 01       		.byte	1
 10583 0406 00       		.byte	0
 10584 0407 40       		.byte	64
 10585 0408 02       		.byte	2
 10586 0409 00       		.byte	0
 10587 040a 20       		.byte	32
 10588 040b 04       		.byte	4
 10589 040c 00       		.byte	0
 10590 040d 10       		.byte	16
 10591 040e 08       		.byte	8
 10592 040f 00       		.byte	0
 10593 0410 08       		.byte	8
 10594 0411 00       		.byte	0
 10595 0412 00       		.byte	0
 10596 0413 00       		.byte	0
 10597 0414 00       		.byte	0
 10598 0415 00       		.byte	0
 10599 0416 00       		.byte	0
 10600 0417 00       		.byte	0
 10601 0418 21       		.byte	33
 10602 0419 00       		.byte	0
 10603 041a 00       		.byte	0
 10604 041b 21       		.byte	33
 10605 041c 00       		.byte	0
 10606 041d 00       		.byte	0
 10607 041e 21       		.byte	33
 10608 041f 00       		.byte	0
 10609 0420 00       		.byte	0
 10610 0421 21       		.byte	33
 10611 0422 00       		.byte	0
 10612 0423 00       		.byte	0
 10613 0424 21       		.byte	33
 10614 0425 00       		.byte	0
 10615 0426 00       		.byte	0
 10616 0427 21       		.byte	33
 10617 0428 00       		.byte	0
 10618 0429 00       		.byte	0
 10619 042a 21       		.byte	33
ARM GAS  /tmp/cco7znPM.s 			page 237


 10620 042b 00       		.byte	0
 10621 042c 00       		.byte	0
 10622 042d 21       		.byte	33
 10623 042e 00       		.byte	0
 10624 042f 00       		.byte	0
 10625 0430 21       		.byte	33
 10626 0431 00       		.byte	0
 10627 0432 00       		.byte	0
 10628 0433 21       		.byte	33
 10629 0434 00       		.byte	0
 10630 0435 00       		.byte	0
 10631 0436 00       		.byte	0
 10632 0437 00       		.byte	0
 10633 0438 00       		.byte	0
 10634 0439 00       		.byte	0
 10635 043a 00       		.byte	0
 10636 043b 00       		.byte	0
 10637 043c 00       		.byte	0
 10638 043d 00       		.byte	0
 10639 043e 08       		.byte	8
 10640 043f 00       		.byte	0
 10641 0440 08       		.byte	8
 10642 0441 04       		.byte	4
 10643 0442 00       		.byte	0
 10644 0443 10       		.byte	16
 10645 0444 02       		.byte	2
 10646 0445 00       		.byte	0
 10647 0446 20       		.byte	32
 10648 0447 01       		.byte	1
 10649 0448 00       		.byte	0
 10650 0449 40       		.byte	64
 10651 044a 00       		.byte	0
 10652 044b 80       		.byte	-128
 10653 044c 80       		.byte	-128
 10654 044d 00       		.byte	0
 10655 044e 41       		.byte	65
 10656 044f 00       		.byte	0
 10657 0450 00       		.byte	0
 10658 0451 22       		.byte	34
 10659 0452 00       		.byte	0
 10660 0453 00       		.byte	0
 10661 0454 14       		.byte	20
 10662 0455 00       		.byte	0
 10663 0456 00       		.byte	0
 10664 0457 08       		.byte	8
 10665 0458 00       		.byte	0
 10666 0459 00       		.byte	0
 10667 045a 00       		.byte	0
 10668 045b 00       		.byte	0
 10669 045c 00       		.byte	0
 10670 045d 00       		.byte	0
 10671 045e 00       		.byte	0
 10672 045f 03       		.byte	3
 10673 0460 C0       		.byte	-64
 10674 0461 00       		.byte	0
 10675 0462 04       		.byte	4
 10676 0463 C0       		.byte	-64
ARM GAS  /tmp/cco7znPM.s 			page 238


 10677 0464 00       		.byte	0
 10678 0465 04       		.byte	4
 10679 0466 00       		.byte	0
 10680 0467 00       		.byte	0
 10681 0468 08       		.byte	8
 10682 0469 00       		.byte	0
 10683 046a 38       		.byte	56
 10684 046b 08       		.byte	8
 10685 046c 0F       		.byte	15
 10686 046d 38       		.byte	56
 10687 046e 08       		.byte	8
 10688 046f 08       		.byte	8
 10689 0470 38       		.byte	56
 10690 0471 08       		.byte	8
 10691 0472 10       		.byte	16
 10692 0473 00       		.byte	0
 10693 0474 0C       		.byte	12
 10694 0475 30       		.byte	48
 10695 0476 00       		.byte	0
 10696 0477 07       		.byte	7
 10697 0478 E0       		.byte	-32
 10698 0479 00       		.byte	0
 10699 047a 03       		.byte	3
 10700 047b C0       		.byte	-64
 10701 047c 00       		.byte	0
 10702 047d 00       		.byte	0
 10703 047e 00       		.byte	0
 10704 047f 00       		.byte	0
 10705 0480 00       		.byte	0
 10706 0481 00       		.byte	0
 10707 0482 00       		.byte	0
 10708 0483 00       		.byte	0
 10709 0484 3F       		.byte	63
 10710 0485 80       		.byte	-128
 10711 0486 00       		.byte	0
 10712 0487 FF       		.byte	-1
 10713 0488 E0       		.byte	-32
 10714 0489 03       		.byte	3
 10715 048a 80       		.byte	-128
 10716 048b 70       		.byte	112
 10717 048c 02       		.byte	2
 10718 048d 0F       		.byte	15
 10719 048e 10       		.byte	16
 10720 048f 06       		.byte	6
 10721 0490 70       		.byte	112
 10722 0491 88       		.byte	-120
 10723 0492 04       		.byte	4
 10724 0493 C0       		.byte	-64
 10725 0494 88       		.byte	-120
 10726 0495 04       		.byte	4
 10727 0496 83       		.byte	-125
 10728 0497 08       		.byte	8
 10729 0498 04       		.byte	4
 10730 0499 7F       		.byte	127
 10731 049a 88       		.byte	-120
 10732 049b 02       		.byte	2
 10733 049c C0       		.byte	-64
ARM GAS  /tmp/cco7znPM.s 			page 239


 10734 049d 90       		.byte	-112
 10735 049e 03       		.byte	3
 10736 049f 01       		.byte	1
 10737 04a0 20       		.byte	32
 10738 04a1 00       		.byte	0
 10739 04a2 FE       		.byte	-2
 10740 04a3 40       		.byte	64
 10741 04a4 00       		.byte	0
 10742 04a5 00       		.byte	0
 10743 04a6 08       		.byte	8
 10744 04a7 00       		.byte	0
 10745 04a8 00       		.byte	0
 10746 04a9 18       		.byte	24
 10747 04aa 00       		.byte	0
 10748 04ab 01       		.byte	1
 10749 04ac F8       		.byte	-8
 10750 04ad 00       		.byte	0
 10751 04ae 3E       		.byte	62
 10752 04af 08       		.byte	8
 10753 04b0 01       		.byte	1
 10754 04b1 C2       		.byte	-62
 10755 04b2 00       		.byte	0
 10756 04b3 07       		.byte	7
 10757 04b4 02       		.byte	2
 10758 04b5 00       		.byte	0
 10759 04b6 07       		.byte	7
 10760 04b7 E2       		.byte	-30
 10761 04b8 00       		.byte	0
 10762 04b9 00       		.byte	0
 10763 04ba FE       		.byte	-2
 10764 04bb 00       		.byte	0
 10765 04bc 00       		.byte	0
 10766 04bd 1F       		.byte	31
 10767 04be C8       		.byte	-56
 10768 04bf 00       		.byte	0
 10769 04c0 01       		.byte	1
 10770 04c1 F8       		.byte	-8
 10771 04c2 00       		.byte	0
 10772 04c3 00       		.byte	0
 10773 04c4 38       		.byte	56
 10774 04c5 00       		.byte	0
 10775 04c6 00       		.byte	0
 10776 04c7 08       		.byte	8
 10777 04c8 04       		.byte	4
 10778 04c9 00       		.byte	0
 10779 04ca 08       		.byte	8
 10780 04cb 07       		.byte	7
 10781 04cc FF       		.byte	-1
 10782 04cd F8       		.byte	-8
 10783 04ce 07       		.byte	7
 10784 04cf FF       		.byte	-1
 10785 04d0 F8       		.byte	-8
 10786 04d1 04       		.byte	4
 10787 04d2 08       		.byte	8
 10788 04d3 08       		.byte	8
 10789 04d4 04       		.byte	4
 10790 04d5 08       		.byte	8
ARM GAS  /tmp/cco7znPM.s 			page 240


 10791 04d6 08       		.byte	8
 10792 04d7 04       		.byte	4
 10793 04d8 08       		.byte	8
 10794 04d9 08       		.byte	8
 10795 04da 04       		.byte	4
 10796 04db 08       		.byte	8
 10797 04dc 08       		.byte	8
 10798 04dd 06       		.byte	6
 10799 04de 18       		.byte	24
 10800 04df 08       		.byte	8
 10801 04e0 03       		.byte	3
 10802 04e1 F4       		.byte	-12
 10803 04e2 18       		.byte	24
 10804 04e3 01       		.byte	1
 10805 04e4 E7       		.byte	-25
 10806 04e5 F0       		.byte	-16
 10807 04e6 00       		.byte	0
 10808 04e7 01       		.byte	1
 10809 04e8 E0       		.byte	-32
 10810 04e9 00       		.byte	0
 10811 04ea 00       		.byte	0
 10812 04eb 00       		.byte	0
 10813 04ec 00       		.byte	0
 10814 04ed 00       		.byte	0
 10815 04ee 00       		.byte	0
 10816 04ef 00       		.byte	0
 10817 04f0 3F       		.byte	63
 10818 04f1 80       		.byte	-128
 10819 04f2 01       		.byte	1
 10820 04f3 FF       		.byte	-1
 10821 04f4 E0       		.byte	-32
 10822 04f5 03       		.byte	3
 10823 04f6 80       		.byte	-128
 10824 04f7 70       		.byte	112
 10825 04f8 02       		.byte	2
 10826 04f9 00       		.byte	0
 10827 04fa 18       		.byte	24
 10828 04fb 04       		.byte	4
 10829 04fc 00       		.byte	0
 10830 04fd 08       		.byte	8
 10831 04fe 04       		.byte	4
 10832 04ff 00       		.byte	0
 10833 0500 08       		.byte	8
 10834 0501 04       		.byte	4
 10835 0502 00       		.byte	0
 10836 0503 08       		.byte	8
 10837 0504 04       		.byte	4
 10838 0505 00       		.byte	0
 10839 0506 10       		.byte	16
 10840 0507 06       		.byte	6
 10841 0508 00       		.byte	0
 10842 0509 20       		.byte	32
 10843 050a 07       		.byte	7
 10844 050b 80       		.byte	-128
 10845 050c C0       		.byte	-64
 10846 050d 00       		.byte	0
 10847 050e 00       		.byte	0
ARM GAS  /tmp/cco7znPM.s 			page 241


 10848 050f 00       		.byte	0
 10849 0510 04       		.byte	4
 10850 0511 00       		.byte	0
 10851 0512 08       		.byte	8
 10852 0513 07       		.byte	7
 10853 0514 FF       		.byte	-1
 10854 0515 F8       		.byte	-8
 10855 0516 07       		.byte	7
 10856 0517 FF       		.byte	-1
 10857 0518 F8       		.byte	-8
 10858 0519 04       		.byte	4
 10859 051a 00       		.byte	0
 10860 051b 08       		.byte	8
 10861 051c 04       		.byte	4
 10862 051d 00       		.byte	0
 10863 051e 08       		.byte	8
 10864 051f 04       		.byte	4
 10865 0520 00       		.byte	0
 10866 0521 08       		.byte	8
 10867 0522 04       		.byte	4
 10868 0523 00       		.byte	0
 10869 0524 18       		.byte	24
 10870 0525 02       		.byte	2
 10871 0526 00       		.byte	0
 10872 0527 10       		.byte	16
 10873 0528 03       		.byte	3
 10874 0529 80       		.byte	-128
 10875 052a 70       		.byte	112
 10876 052b 01       		.byte	1
 10877 052c FF       		.byte	-1
 10878 052d E0       		.byte	-32
 10879 052e 00       		.byte	0
 10880 052f 7F       		.byte	127
 10881 0530 80       		.byte	-128
 10882 0531 00       		.byte	0
 10883 0532 00       		.byte	0
 10884 0533 00       		.byte	0
 10885 0534 04       		.byte	4
 10886 0535 00       		.byte	0
 10887 0536 08       		.byte	8
 10888 0537 07       		.byte	7
 10889 0538 FF       		.byte	-1
 10890 0539 F8       		.byte	-8
 10891 053a 07       		.byte	7
 10892 053b FF       		.byte	-1
 10893 053c F8       		.byte	-8
 10894 053d 04       		.byte	4
 10895 053e 08       		.byte	8
 10896 053f 08       		.byte	8
 10897 0540 04       		.byte	4
 10898 0541 08       		.byte	8
 10899 0542 08       		.byte	8
 10900 0543 04       		.byte	4
 10901 0544 08       		.byte	8
 10902 0545 08       		.byte	8
 10903 0546 04       		.byte	4
 10904 0547 08       		.byte	8
ARM GAS  /tmp/cco7znPM.s 			page 242


 10905 0548 08       		.byte	8
 10906 0549 04       		.byte	4
 10907 054a 3E       		.byte	62
 10908 054b 08       		.byte	8
 10909 054c 04       		.byte	4
 10910 054d 00       		.byte	0
 10911 054e 08       		.byte	8
 10912 054f 06       		.byte	6
 10913 0550 00       		.byte	0
 10914 0551 18       		.byte	24
 10915 0552 01       		.byte	1
 10916 0553 00       		.byte	0
 10917 0554 60       		.byte	96
 10918 0555 00       		.byte	0
 10919 0556 00       		.byte	0
 10920 0557 00       		.byte	0
 10921 0558 04       		.byte	4
 10922 0559 00       		.byte	0
 10923 055a 08       		.byte	8
 10924 055b 07       		.byte	7
 10925 055c FF       		.byte	-1
 10926 055d F8       		.byte	-8
 10927 055e 07       		.byte	7
 10928 055f FF       		.byte	-1
 10929 0560 F8       		.byte	-8
 10930 0561 04       		.byte	4
 10931 0562 08       		.byte	8
 10932 0563 08       		.byte	8
 10933 0564 04       		.byte	4
 10934 0565 08       		.byte	8
 10935 0566 00       		.byte	0
 10936 0567 04       		.byte	4
 10937 0568 08       		.byte	8
 10938 0569 00       		.byte	0
 10939 056a 04       		.byte	4
 10940 056b 08       		.byte	8
 10941 056c 00       		.byte	0
 10942 056d 04       		.byte	4
 10943 056e 3E       		.byte	62
 10944 056f 00       		.byte	0
 10945 0570 06       		.byte	6
 10946 0571 00       		.byte	0
 10947 0572 00       		.byte	0
 10948 0573 06       		.byte	6
 10949 0574 00       		.byte	0
 10950 0575 00       		.byte	0
 10951 0576 01       		.byte	1
 10952 0577 80       		.byte	-128
 10953 0578 00       		.byte	0
 10954 0579 00       		.byte	0
 10955 057a 00       		.byte	0
 10956 057b 00       		.byte	0
 10957 057c 00       		.byte	0
 10958 057d 00       		.byte	0
 10959 057e 00       		.byte	0
 10960 057f 00       		.byte	0
 10961 0580 3F       		.byte	63
ARM GAS  /tmp/cco7znPM.s 			page 243


 10962 0581 80       		.byte	-128
 10963 0582 01       		.byte	1
 10964 0583 FF       		.byte	-1
 10965 0584 E0       		.byte	-32
 10966 0585 03       		.byte	3
 10967 0586 80       		.byte	-128
 10968 0587 70       		.byte	112
 10969 0588 06       		.byte	6
 10970 0589 00       		.byte	0
 10971 058a 18       		.byte	24
 10972 058b 04       		.byte	4
 10973 058c 00       		.byte	0
 10974 058d 08       		.byte	8
 10975 058e 04       		.byte	4
 10976 058f 02       		.byte	2
 10977 0590 08       		.byte	8
 10978 0591 04       		.byte	4
 10979 0592 02       		.byte	2
 10980 0593 08       		.byte	8
 10981 0594 02       		.byte	2
 10982 0595 03       		.byte	3
 10983 0596 F0       		.byte	-16
 10984 0597 07       		.byte	7
 10985 0598 83       		.byte	-125
 10986 0599 F0       		.byte	-16
 10987 059a 00       		.byte	0
 10988 059b 02       		.byte	2
 10989 059c 00       		.byte	0
 10990 059d 00       		.byte	0
 10991 059e 02       		.byte	2
 10992 059f 00       		.byte	0
 10993 05a0 04       		.byte	4
 10994 05a1 00       		.byte	0
 10995 05a2 08       		.byte	8
 10996 05a3 07       		.byte	7
 10997 05a4 FF       		.byte	-1
 10998 05a5 F8       		.byte	-8
 10999 05a6 07       		.byte	7
 11000 05a7 FF       		.byte	-1
 11001 05a8 F8       		.byte	-8
 11002 05a9 04       		.byte	4
 11003 05aa 08       		.byte	8
 11004 05ab 08       		.byte	8
 11005 05ac 00       		.byte	0
 11006 05ad 08       		.byte	8
 11007 05ae 00       		.byte	0
 11008 05af 00       		.byte	0
 11009 05b0 08       		.byte	8
 11010 05b1 00       		.byte	0
 11011 05b2 00       		.byte	0
 11012 05b3 08       		.byte	8
 11013 05b4 00       		.byte	0
 11014 05b5 00       		.byte	0
 11015 05b6 08       		.byte	8
 11016 05b7 00       		.byte	0
 11017 05b8 04       		.byte	4
 11018 05b9 08       		.byte	8
ARM GAS  /tmp/cco7znPM.s 			page 244


 11019 05ba 08       		.byte	8
 11020 05bb 07       		.byte	7
 11021 05bc FF       		.byte	-1
 11022 05bd F8       		.byte	-8
 11023 05be 07       		.byte	7
 11024 05bf FF       		.byte	-1
 11025 05c0 F8       		.byte	-8
 11026 05c1 04       		.byte	4
 11027 05c2 00       		.byte	0
 11028 05c3 08       		.byte	8
 11029 05c4 00       		.byte	0
 11030 05c5 00       		.byte	0
 11031 05c6 00       		.byte	0
 11032 05c7 00       		.byte	0
 11033 05c8 00       		.byte	0
 11034 05c9 00       		.byte	0
 11035 05ca 04       		.byte	4
 11036 05cb 00       		.byte	0
 11037 05cc 08       		.byte	8
 11038 05cd 04       		.byte	4
 11039 05ce 00       		.byte	0
 11040 05cf 08       		.byte	8
 11041 05d0 04       		.byte	4
 11042 05d1 00       		.byte	0
 11043 05d2 08       		.byte	8
 11044 05d3 07       		.byte	7
 11045 05d4 FF       		.byte	-1
 11046 05d5 F8       		.byte	-8
 11047 05d6 07       		.byte	7
 11048 05d7 FF       		.byte	-1
 11049 05d8 F8       		.byte	-8
 11050 05d9 04       		.byte	4
 11051 05da 00       		.byte	0
 11052 05db 08       		.byte	8
 11053 05dc 04       		.byte	4
 11054 05dd 00       		.byte	0
 11055 05de 08       		.byte	8
 11056 05df 04       		.byte	4
 11057 05e0 00       		.byte	0
 11058 05e1 08       		.byte	8
 11059 05e2 00       		.byte	0
 11060 05e3 00       		.byte	0
 11061 05e4 00       		.byte	0
 11062 05e5 00       		.byte	0
 11063 05e6 00       		.byte	0
 11064 05e7 00       		.byte	0
 11065 05e8 00       		.byte	0
 11066 05e9 00       		.byte	0
 11067 05ea 00       		.byte	0
 11068 05eb 00       		.byte	0
 11069 05ec 00       		.byte	0
 11070 05ed 06       		.byte	6
 11071 05ee 00       		.byte	0
 11072 05ef 00       		.byte	0
 11073 05f0 07       		.byte	7
 11074 05f1 00       		.byte	0
 11075 05f2 00       		.byte	0
ARM GAS  /tmp/cco7znPM.s 			page 245


 11076 05f3 01       		.byte	1
 11077 05f4 04       		.byte	4
 11078 05f5 00       		.byte	0
 11079 05f6 01       		.byte	1
 11080 05f7 04       		.byte	4
 11081 05f8 00       		.byte	0
 11082 05f9 01       		.byte	1
 11083 05fa 04       		.byte	4
 11084 05fb 00       		.byte	0
 11085 05fc 03       		.byte	3
 11086 05fd 07       		.byte	7
 11087 05fe FF       		.byte	-1
 11088 05ff FE       		.byte	-2
 11089 0600 07       		.byte	7
 11090 0601 FF       		.byte	-1
 11091 0602 FC       		.byte	-4
 11092 0603 04       		.byte	4
 11093 0604 00       		.byte	0
 11094 0605 00       		.byte	0
 11095 0606 04       		.byte	4
 11096 0607 00       		.byte	0
 11097 0608 00       		.byte	0
 11098 0609 04       		.byte	4
 11099 060a 00       		.byte	0
 11100 060b 00       		.byte	0
 11101 060c 04       		.byte	4
 11102 060d 00       		.byte	0
 11103 060e 08       		.byte	8
 11104 060f 07       		.byte	7
 11105 0610 FF       		.byte	-1
 11106 0611 F8       		.byte	-8
 11107 0612 07       		.byte	7
 11108 0613 FF       		.byte	-1
 11109 0614 F8       		.byte	-8
 11110 0615 04       		.byte	4
 11111 0616 0C       		.byte	12
 11112 0617 08       		.byte	8
 11113 0618 00       		.byte	0
 11114 0619 18       		.byte	24
 11115 061a 00       		.byte	0
 11116 061b 00       		.byte	0
 11117 061c 3E       		.byte	62
 11118 061d 00       		.byte	0
 11119 061e 04       		.byte	4
 11120 061f C7       		.byte	-57
 11121 0620 80       		.byte	-128
 11122 0621 05       		.byte	5
 11123 0622 03       		.byte	3
 11124 0623 C8       		.byte	-56
 11125 0624 06       		.byte	6
 11126 0625 00       		.byte	0
 11127 0626 F8       		.byte	-8
 11128 0627 04       		.byte	4
 11129 0628 00       		.byte	0
 11130 0629 38       		.byte	56
 11131 062a 04       		.byte	4
 11132 062b 00       		.byte	0
ARM GAS  /tmp/cco7znPM.s 			page 246


 11133 062c 18       		.byte	24
 11134 062d 00       		.byte	0
 11135 062e 00       		.byte	0
 11136 062f 08       		.byte	8
 11137 0630 04       		.byte	4
 11138 0631 00       		.byte	0
 11139 0632 08       		.byte	8
 11140 0633 07       		.byte	7
 11141 0634 FF       		.byte	-1
 11142 0635 F8       		.byte	-8
 11143 0636 07       		.byte	7
 11144 0637 FF       		.byte	-1
 11145 0638 F8       		.byte	-8
 11146 0639 04       		.byte	4
 11147 063a 00       		.byte	0
 11148 063b 08       		.byte	8
 11149 063c 00       		.byte	0
 11150 063d 00       		.byte	0
 11151 063e 08       		.byte	8
 11152 063f 00       		.byte	0
 11153 0640 00       		.byte	0
 11154 0641 08       		.byte	8
 11155 0642 00       		.byte	0
 11156 0643 00       		.byte	0
 11157 0644 08       		.byte	8
 11158 0645 00       		.byte	0
 11159 0646 00       		.byte	0
 11160 0647 08       		.byte	8
 11161 0648 00       		.byte	0
 11162 0649 00       		.byte	0
 11163 064a 08       		.byte	8
 11164 064b 00       		.byte	0
 11165 064c 00       		.byte	0
 11166 064d 18       		.byte	24
 11167 064e 00       		.byte	0
 11168 064f 00       		.byte	0
 11169 0650 60       		.byte	96
 11170 0651 00       		.byte	0
 11171 0652 00       		.byte	0
 11172 0653 00       		.byte	0
 11173 0654 04       		.byte	4
 11174 0655 00       		.byte	0
 11175 0656 08       		.byte	8
 11176 0657 07       		.byte	7
 11177 0658 FF       		.byte	-1
 11178 0659 F8       		.byte	-8
 11179 065a 07       		.byte	7
 11180 065b 80       		.byte	-128
 11181 065c 08       		.byte	8
 11182 065d 07       		.byte	7
 11183 065e FC       		.byte	-4
 11184 065f 00       		.byte	0
 11185 0660 00       		.byte	0
 11186 0661 7F       		.byte	127
 11187 0662 C0       		.byte	-64
 11188 0663 00       		.byte	0
 11189 0664 03       		.byte	3
ARM GAS  /tmp/cco7znPM.s 			page 247


 11190 0665 F8       		.byte	-8
 11191 0666 00       		.byte	0
 11192 0667 07       		.byte	7
 11193 0668 C0       		.byte	-64
 11194 0669 00       		.byte	0
 11195 066a 78       		.byte	120
 11196 066b 00       		.byte	0
 11197 066c 07       		.byte	7
 11198 066d 80       		.byte	-128
 11199 066e 08       		.byte	8
 11200 066f 07       		.byte	7
 11201 0670 FF       		.byte	-1
 11202 0671 F8       		.byte	-8
 11203 0672 07       		.byte	7
 11204 0673 FF       		.byte	-1
 11205 0674 F8       		.byte	-8
 11206 0675 04       		.byte	4
 11207 0676 00       		.byte	0
 11208 0677 08       		.byte	8
 11209 0678 04       		.byte	4
 11210 0679 00       		.byte	0
 11211 067a 08       		.byte	8
 11212 067b 07       		.byte	7
 11213 067c FF       		.byte	-1
 11214 067d F8       		.byte	-8
 11215 067e 07       		.byte	7
 11216 067f 00       		.byte	0
 11217 0680 08       		.byte	8
 11218 0681 03       		.byte	3
 11219 0682 C0       		.byte	-64
 11220 0683 00       		.byte	0
 11221 0684 00       		.byte	0
 11222 0685 E0       		.byte	-32
 11223 0686 00       		.byte	0
 11224 0687 00       		.byte	0
 11225 0688 38       		.byte	56
 11226 0689 00       		.byte	0
 11227 068a 00       		.byte	0
 11228 068b 1E       		.byte	30
 11229 068c 00       		.byte	0
 11230 068d 00       		.byte	0
 11231 068e 07       		.byte	7
 11232 068f 00       		.byte	0
 11233 0690 00       		.byte	0
 11234 0691 01       		.byte	1
 11235 0692 C0       		.byte	-64
 11236 0693 04       		.byte	4
 11237 0694 00       		.byte	0
 11238 0695 F0       		.byte	-16
 11239 0696 07       		.byte	7
 11240 0697 FF       		.byte	-1
 11241 0698 F8       		.byte	-8
 11242 0699 04       		.byte	4
 11243 069a 00       		.byte	0
 11244 069b 00       		.byte	0
 11245 069c 00       		.byte	0
 11246 069d 00       		.byte	0
ARM GAS  /tmp/cco7znPM.s 			page 248


 11247 069e 00       		.byte	0
 11248 069f 00       		.byte	0
 11249 06a0 7F       		.byte	127
 11250 06a1 80       		.byte	-128
 11251 06a2 01       		.byte	1
 11252 06a3 FF       		.byte	-1
 11253 06a4 E0       		.byte	-32
 11254 06a5 03       		.byte	3
 11255 06a6 80       		.byte	-128
 11256 06a7 70       		.byte	112
 11257 06a8 06       		.byte	6
 11258 06a9 00       		.byte	0
 11259 06aa 18       		.byte	24
 11260 06ab 04       		.byte	4
 11261 06ac 00       		.byte	0
 11262 06ad 08       		.byte	8
 11263 06ae 04       		.byte	4
 11264 06af 00       		.byte	0
 11265 06b0 08       		.byte	8
 11266 06b1 06       		.byte	6
 11267 06b2 00       		.byte	0
 11268 06b3 18       		.byte	24
 11269 06b4 03       		.byte	3
 11270 06b5 00       		.byte	0
 11271 06b6 30       		.byte	48
 11272 06b7 01       		.byte	1
 11273 06b8 FF       		.byte	-1
 11274 06b9 E0       		.byte	-32
 11275 06ba 00       		.byte	0
 11276 06bb 7F       		.byte	127
 11277 06bc 80       		.byte	-128
 11278 06bd 00       		.byte	0
 11279 06be 00       		.byte	0
 11280 06bf 00       		.byte	0
 11281 06c0 04       		.byte	4
 11282 06c1 00       		.byte	0
 11283 06c2 08       		.byte	8
 11284 06c3 07       		.byte	7
 11285 06c4 FF       		.byte	-1
 11286 06c5 F8       		.byte	-8
 11287 06c6 07       		.byte	7
 11288 06c7 FF       		.byte	-1
 11289 06c8 F8       		.byte	-8
 11290 06c9 04       		.byte	4
 11291 06ca 04       		.byte	4
 11292 06cb 08       		.byte	8
 11293 06cc 04       		.byte	4
 11294 06cd 04       		.byte	4
 11295 06ce 00       		.byte	0
 11296 06cf 04       		.byte	4
 11297 06d0 04       		.byte	4
 11298 06d1 00       		.byte	0
 11299 06d2 04       		.byte	4
 11300 06d3 04       		.byte	4
 11301 06d4 00       		.byte	0
 11302 06d5 04       		.byte	4
 11303 06d6 04       		.byte	4
ARM GAS  /tmp/cco7znPM.s 			page 249


 11304 06d7 00       		.byte	0
 11305 06d8 06       		.byte	6
 11306 06d9 0C       		.byte	12
 11307 06da 00       		.byte	0
 11308 06db 03       		.byte	3
 11309 06dc F8       		.byte	-8
 11310 06dd 00       		.byte	0
 11311 06de 01       		.byte	1
 11312 06df F0       		.byte	-16
 11313 06e0 00       		.byte	0
 11314 06e1 00       		.byte	0
 11315 06e2 00       		.byte	0
 11316 06e3 00       		.byte	0
 11317 06e4 00       		.byte	0
 11318 06e5 00       		.byte	0
 11319 06e6 00       		.byte	0
 11320 06e7 00       		.byte	0
 11321 06e8 7F       		.byte	127
 11322 06e9 80       		.byte	-128
 11323 06ea 01       		.byte	1
 11324 06eb FF       		.byte	-1
 11325 06ec E0       		.byte	-32
 11326 06ed 03       		.byte	3
 11327 06ee 80       		.byte	-128
 11328 06ef 70       		.byte	112
 11329 06f0 06       		.byte	6
 11330 06f1 00       		.byte	0
 11331 06f2 88       		.byte	-120
 11332 06f3 04       		.byte	4
 11333 06f4 00       		.byte	0
 11334 06f5 88       		.byte	-120
 11335 06f6 04       		.byte	4
 11336 06f7 00       		.byte	0
 11337 06f8 C8       		.byte	-56
 11338 06f9 06       		.byte	6
 11339 06fa 00       		.byte	0
 11340 06fb 3C       		.byte	60
 11341 06fc 03       		.byte	3
 11342 06fd 00       		.byte	0
 11343 06fe 3E       		.byte	62
 11344 06ff 01       		.byte	1
 11345 0700 FF       		.byte	-1
 11346 0701 E6       		.byte	-26
 11347 0702 00       		.byte	0
 11348 0703 7F       		.byte	127
 11349 0704 84       		.byte	-124
 11350 0705 00       		.byte	0
 11351 0706 00       		.byte	0
 11352 0707 00       		.byte	0
 11353 0708 04       		.byte	4
 11354 0709 00       		.byte	0
 11355 070a 08       		.byte	8
 11356 070b 07       		.byte	7
 11357 070c FF       		.byte	-1
 11358 070d F8       		.byte	-8
 11359 070e 07       		.byte	7
 11360 070f FF       		.byte	-1
ARM GAS  /tmp/cco7znPM.s 			page 250


 11361 0710 F8       		.byte	-8
 11362 0711 04       		.byte	4
 11363 0712 08       		.byte	8
 11364 0713 08       		.byte	8
 11365 0714 04       		.byte	4
 11366 0715 08       		.byte	8
 11367 0716 00       		.byte	0
 11368 0717 04       		.byte	4
 11369 0718 0C       		.byte	12
 11370 0719 00       		.byte	0
 11371 071a 04       		.byte	4
 11372 071b 0F       		.byte	15
 11373 071c 00       		.byte	0
 11374 071d 04       		.byte	4
 11375 071e 0B       		.byte	11
 11376 071f C0       		.byte	-64
 11377 0720 06       		.byte	6
 11378 0721 10       		.byte	16
 11379 0722 F0       		.byte	-16
 11380 0723 03       		.byte	3
 11381 0724 F0       		.byte	-16
 11382 0725 38       		.byte	56
 11383 0726 01       		.byte	1
 11384 0727 E0       		.byte	-32
 11385 0728 08       		.byte	8
 11386 0729 00       		.byte	0
 11387 072a 00       		.byte	0
 11388 072b 08       		.byte	8
 11389 072c 00       		.byte	0
 11390 072d 00       		.byte	0
 11391 072e 00       		.byte	0
 11392 072f 01       		.byte	1
 11393 0730 E0       		.byte	-32
 11394 0731 F8       		.byte	-8
 11395 0732 03       		.byte	3
 11396 0733 F0       		.byte	-16
 11397 0734 30       		.byte	48
 11398 0735 06       		.byte	6
 11399 0736 30       		.byte	48
 11400 0737 10       		.byte	16
 11401 0738 04       		.byte	4
 11402 0739 18       		.byte	24
 11403 073a 08       		.byte	8
 11404 073b 04       		.byte	4
 11405 073c 18       		.byte	24
 11406 073d 08       		.byte	8
 11407 073e 04       		.byte	4
 11408 073f 0C       		.byte	12
 11409 0740 08       		.byte	8
 11410 0741 04       		.byte	4
 11411 0742 0C       		.byte	12
 11412 0743 08       		.byte	8
 11413 0744 02       		.byte	2
 11414 0745 06       		.byte	6
 11415 0746 18       		.byte	24
 11416 0747 02       		.byte	2
 11417 0748 07       		.byte	7
ARM GAS  /tmp/cco7znPM.s 			page 251


 11418 0749 F0       		.byte	-16
 11419 074a 07       		.byte	7
 11420 074b 81       		.byte	-127
 11421 074c E0       		.byte	-32
 11422 074d 00       		.byte	0
 11423 074e 00       		.byte	0
 11424 074f 00       		.byte	0
 11425 0750 01       		.byte	1
 11426 0751 80       		.byte	-128
 11427 0752 00       		.byte	0
 11428 0753 06       		.byte	6
 11429 0754 00       		.byte	0
 11430 0755 00       		.byte	0
 11431 0756 04       		.byte	4
 11432 0757 00       		.byte	0
 11433 0758 00       		.byte	0
 11434 0759 04       		.byte	4
 11435 075a 00       		.byte	0
 11436 075b 00       		.byte	0
 11437 075c 04       		.byte	4
 11438 075d 00       		.byte	0
 11439 075e 08       		.byte	8
 11440 075f 07       		.byte	7
 11441 0760 FF       		.byte	-1
 11442 0761 F8       		.byte	-8
 11443 0762 07       		.byte	7
 11444 0763 FF       		.byte	-1
 11445 0764 F8       		.byte	-8
 11446 0765 04       		.byte	4
 11447 0766 00       		.byte	0
 11448 0767 08       		.byte	8
 11449 0768 04       		.byte	4
 11450 0769 00       		.byte	0
 11451 076a 00       		.byte	0
 11452 076b 04       		.byte	4
 11453 076c 00       		.byte	0
 11454 076d 00       		.byte	0
 11455 076e 06       		.byte	6
 11456 076f 00       		.byte	0
 11457 0770 00       		.byte	0
 11458 0771 01       		.byte	1
 11459 0772 80       		.byte	-128
 11460 0773 00       		.byte	0
 11461 0774 04       		.byte	4
 11462 0775 00       		.byte	0
 11463 0776 00       		.byte	0
 11464 0777 07       		.byte	7
 11465 0778 FF       		.byte	-1
 11466 0779 E0       		.byte	-32
 11467 077a 07       		.byte	7
 11468 077b FF       		.byte	-1
 11469 077c F0       		.byte	-16
 11470 077d 04       		.byte	4
 11471 077e 00       		.byte	0
 11472 077f 18       		.byte	24
 11473 0780 00       		.byte	0
 11474 0781 00       		.byte	0
ARM GAS  /tmp/cco7znPM.s 			page 252


 11475 0782 08       		.byte	8
 11476 0783 00       		.byte	0
 11477 0784 00       		.byte	0
 11478 0785 08       		.byte	8
 11479 0786 00       		.byte	0
 11480 0787 00       		.byte	0
 11481 0788 08       		.byte	8
 11482 0789 00       		.byte	0
 11483 078a 00       		.byte	0
 11484 078b 08       		.byte	8
 11485 078c 00       		.byte	0
 11486 078d 00       		.byte	0
 11487 078e 08       		.byte	8
 11488 078f 04       		.byte	4
 11489 0790 00       		.byte	0
 11490 0791 10       		.byte	16
 11491 0792 07       		.byte	7
 11492 0793 FF       		.byte	-1
 11493 0794 E0       		.byte	-32
 11494 0795 04       		.byte	4
 11495 0796 00       		.byte	0
 11496 0797 00       		.byte	0
 11497 0798 04       		.byte	4
 11498 0799 00       		.byte	0
 11499 079a 00       		.byte	0
 11500 079b 06       		.byte	6
 11501 079c 00       		.byte	0
 11502 079d 00       		.byte	0
 11503 079e 07       		.byte	7
 11504 079f E0       		.byte	-32
 11505 07a0 00       		.byte	0
 11506 07a1 07       		.byte	7
 11507 07a2 FE       		.byte	-2
 11508 07a3 00       		.byte	0
 11509 07a4 04       		.byte	4
 11510 07a5 1F       		.byte	31
 11511 07a6 E0       		.byte	-32
 11512 07a7 00       		.byte	0
 11513 07a8 01       		.byte	1
 11514 07a9 F8       		.byte	-8
 11515 07aa 00       		.byte	0
 11516 07ab 00       		.byte	0
 11517 07ac 38       		.byte	56
 11518 07ad 00       		.byte	0
 11519 07ae 01       		.byte	1
 11520 07af E0       		.byte	-32
 11521 07b0 04       		.byte	4
 11522 07b1 3E       		.byte	62
 11523 07b2 00       		.byte	0
 11524 07b3 07       		.byte	7
 11525 07b4 C0       		.byte	-64
 11526 07b5 00       		.byte	0
 11527 07b6 06       		.byte	6
 11528 07b7 00       		.byte	0
 11529 07b8 00       		.byte	0
 11530 07b9 04       		.byte	4
 11531 07ba 00       		.byte	0
ARM GAS  /tmp/cco7znPM.s 			page 253


 11532 07bb 00       		.byte	0
 11533 07bc 04       		.byte	4
 11534 07bd 00       		.byte	0
 11535 07be 00       		.byte	0
 11536 07bf 07       		.byte	7
 11537 07c0 E0       		.byte	-32
 11538 07c1 00       		.byte	0
 11539 07c2 07       		.byte	7
 11540 07c3 FF       		.byte	-1
 11541 07c4 C0       		.byte	-64
 11542 07c5 04       		.byte	4
 11543 07c6 1F       		.byte	31
 11544 07c7 F8       		.byte	-8
 11545 07c8 00       		.byte	0
 11546 07c9 07       		.byte	7
 11547 07ca C0       		.byte	-64
 11548 07cb 07       		.byte	7
 11549 07cc F8       		.byte	-8
 11550 07cd 00       		.byte	0
 11551 07ce 07       		.byte	7
 11552 07cf FF       		.byte	-1
 11553 07d0 80       		.byte	-128
 11554 07d1 04       		.byte	4
 11555 07d2 3F       		.byte	63
 11556 07d3 F8       		.byte	-8
 11557 07d4 00       		.byte	0
 11558 07d5 07       		.byte	7
 11559 07d6 C0       		.byte	-64
 11560 07d7 04       		.byte	4
 11561 07d8 F8       		.byte	-8
 11562 07d9 00       		.byte	0
 11563 07da 07       		.byte	7
 11564 07db 00       		.byte	0
 11565 07dc 00       		.byte	0
 11566 07dd 04       		.byte	4
 11567 07de 00       		.byte	0
 11568 07df 00       		.byte	0
 11569 07e0 00       		.byte	0
 11570 07e1 00       		.byte	0
 11571 07e2 00       		.byte	0
 11572 07e3 04       		.byte	4
 11573 07e4 00       		.byte	0
 11574 07e5 08       		.byte	8
 11575 07e6 06       		.byte	6
 11576 07e7 00       		.byte	0
 11577 07e8 18       		.byte	24
 11578 07e9 07       		.byte	7
 11579 07ea C0       		.byte	-64
 11580 07eb 78       		.byte	120
 11581 07ec 05       		.byte	5
 11582 07ed F1       		.byte	-15
 11583 07ee C8       		.byte	-56
 11584 07ef 00       		.byte	0
 11585 07f0 3E       		.byte	62
 11586 07f1 00       		.byte	0
 11587 07f2 00       		.byte	0
 11588 07f3 1F       		.byte	31
ARM GAS  /tmp/cco7znPM.s 			page 254


 11589 07f4 80       		.byte	-128
 11590 07f5 04       		.byte	4
 11591 07f6 63       		.byte	99
 11592 07f7 E8       		.byte	-24
 11593 07f8 07       		.byte	7
 11594 07f9 80       		.byte	-128
 11595 07fa F8       		.byte	-8
 11596 07fb 06       		.byte	6
 11597 07fc 00       		.byte	0
 11598 07fd 18       		.byte	24
 11599 07fe 04       		.byte	4
 11600 07ff 00       		.byte	0
 11601 0800 08       		.byte	8
 11602 0801 00       		.byte	0
 11603 0802 00       		.byte	0
 11604 0803 00       		.byte	0
 11605 0804 04       		.byte	4
 11606 0805 00       		.byte	0
 11607 0806 00       		.byte	0
 11608 0807 06       		.byte	6
 11609 0808 00       		.byte	0
 11610 0809 00       		.byte	0
 11611 080a 07       		.byte	7
 11612 080b 80       		.byte	-128
 11613 080c 00       		.byte	0
 11614 080d 07       		.byte	7
 11615 080e E0       		.byte	-32
 11616 080f 08       		.byte	8
 11617 0810 04       		.byte	4
 11618 0811 7C       		.byte	124
 11619 0812 08       		.byte	8
 11620 0813 00       		.byte	0
 11621 0814 1F       		.byte	31
 11622 0815 F8       		.byte	-8
 11623 0816 00       		.byte	0
 11624 0817 07       		.byte	7
 11625 0818 F8       		.byte	-8
 11626 0819 00       		.byte	0
 11627 081a 18       		.byte	24
 11628 081b 08       		.byte	8
 11629 081c 04       		.byte	4
 11630 081d E0       		.byte	-32
 11631 081e 08       		.byte	8
 11632 081f 07       		.byte	7
 11633 0820 00       		.byte	0
 11634 0821 00       		.byte	0
 11635 0822 06       		.byte	6
 11636 0823 00       		.byte	0
 11637 0824 00       		.byte	0
 11638 0825 04       		.byte	4
 11639 0826 00       		.byte	0
 11640 0827 00       		.byte	0
 11641 0828 00       		.byte	0
 11642 0829 00       		.byte	0
 11643 082a 00       		.byte	0
 11644 082b 01       		.byte	1
 11645 082c 00       		.byte	0
ARM GAS  /tmp/cco7znPM.s 			page 255


 11646 082d 08       		.byte	8
 11647 082e 06       		.byte	6
 11648 082f 00       		.byte	0
 11649 0830 38       		.byte	56
 11650 0831 04       		.byte	4
 11651 0832 00       		.byte	0
 11652 0833 F8       		.byte	-8
 11653 0834 04       		.byte	4
 11654 0835 03       		.byte	3
 11655 0836 E8       		.byte	-24
 11656 0837 04       		.byte	4
 11657 0838 0F       		.byte	15
 11658 0839 08       		.byte	8
 11659 083a 04       		.byte	4
 11660 083b 7C       		.byte	124
 11661 083c 08       		.byte	8
 11662 083d 05       		.byte	5
 11663 083e F0       		.byte	-16
 11664 083f 08       		.byte	8
 11665 0840 07       		.byte	7
 11666 0841 C0       		.byte	-64
 11667 0842 08       		.byte	8
 11668 0843 07       		.byte	7
 11669 0844 00       		.byte	0
 11670 0845 18       		.byte	24
 11671 0846 04       		.byte	4
 11672 0847 00       		.byte	0
 11673 0848 60       		.byte	96
 11674 0849 00       		.byte	0
 11675 084a 00       		.byte	0
 11676 084b 00       		.byte	0
 11677 084c 00       		.byte	0
 11678 084d 00       		.byte	0
 11679 084e 00       		.byte	0
 11680 084f 00       		.byte	0
 11681 0850 00       		.byte	0
 11682 0851 00       		.byte	0
 11683 0852 00       		.byte	0
 11684 0853 00       		.byte	0
 11685 0854 00       		.byte	0
 11686 0855 00       		.byte	0
 11687 0856 00       		.byte	0
 11688 0857 00       		.byte	0
 11689 0858 00       		.byte	0
 11690 0859 00       		.byte	0
 11691 085a 00       		.byte	0
 11692 085b 3F       		.byte	63
 11693 085c FF       		.byte	-1
 11694 085d FE       		.byte	-2
 11695 085e 20       		.byte	32
 11696 085f 00       		.byte	0
 11697 0860 02       		.byte	2
 11698 0861 20       		.byte	32
 11699 0862 00       		.byte	0
 11700 0863 02       		.byte	2
 11701 0864 20       		.byte	32
 11702 0865 00       		.byte	0
ARM GAS  /tmp/cco7znPM.s 			page 256


 11703 0866 02       		.byte	2
 11704 0867 20       		.byte	32
 11705 0868 00       		.byte	0
 11706 0869 02       		.byte	2
 11707 086a 20       		.byte	32
 11708 086b 00       		.byte	0
 11709 086c 02       		.byte	2
 11710 086d 00       		.byte	0
 11711 086e 00       		.byte	0
 11712 086f 00       		.byte	0
 11713 0870 00       		.byte	0
 11714 0871 00       		.byte	0
 11715 0872 00       		.byte	0
 11716 0873 00       		.byte	0
 11717 0874 00       		.byte	0
 11718 0875 00       		.byte	0
 11719 0876 08       		.byte	8
 11720 0877 00       		.byte	0
 11721 0878 00       		.byte	0
 11722 0879 07       		.byte	7
 11723 087a 00       		.byte	0
 11724 087b 00       		.byte	0
 11725 087c 00       		.byte	0
 11726 087d C0       		.byte	-64
 11727 087e 00       		.byte	0
 11728 087f 00       		.byte	0
 11729 0880 38       		.byte	56
 11730 0881 00       		.byte	0
 11731 0882 00       		.byte	0
 11732 0883 06       		.byte	6
 11733 0884 00       		.byte	0
 11734 0885 00       		.byte	0
 11735 0886 01       		.byte	1
 11736 0887 C0       		.byte	-64
 11737 0888 00       		.byte	0
 11738 0889 00       		.byte	0
 11739 088a 30       		.byte	48
 11740 088b 00       		.byte	0
 11741 088c 00       		.byte	0
 11742 088d 0E       		.byte	14
 11743 088e 00       		.byte	0
 11744 088f 00       		.byte	0
 11745 0890 01       		.byte	1
 11746 0891 00       		.byte	0
 11747 0892 00       		.byte	0
 11748 0893 00       		.byte	0
 11749 0894 00       		.byte	0
 11750 0895 00       		.byte	0
 11751 0896 00       		.byte	0
 11752 0897 00       		.byte	0
 11753 0898 00       		.byte	0
 11754 0899 00       		.byte	0
 11755 089a 20       		.byte	32
 11756 089b 00       		.byte	0
 11757 089c 02       		.byte	2
 11758 089d 20       		.byte	32
 11759 089e 00       		.byte	0
ARM GAS  /tmp/cco7znPM.s 			page 257


 11760 089f 02       		.byte	2
 11761 08a0 20       		.byte	32
 11762 08a1 00       		.byte	0
 11763 08a2 02       		.byte	2
 11764 08a3 20       		.byte	32
 11765 08a4 00       		.byte	0
 11766 08a5 02       		.byte	2
 11767 08a6 20       		.byte	32
 11768 08a7 00       		.byte	0
 11769 08a8 02       		.byte	2
 11770 08a9 3F       		.byte	63
 11771 08aa FF       		.byte	-1
 11772 08ab FE       		.byte	-2
 11773 08ac 00       		.byte	0
 11774 08ad 00       		.byte	0
 11775 08ae 00       		.byte	0
 11776 08af 00       		.byte	0
 11777 08b0 00       		.byte	0
 11778 08b1 00       		.byte	0
 11779 08b2 00       		.byte	0
 11780 08b3 00       		.byte	0
 11781 08b4 00       		.byte	0
 11782 08b5 00       		.byte	0
 11783 08b6 00       		.byte	0
 11784 08b7 00       		.byte	0
 11785 08b8 00       		.byte	0
 11786 08b9 00       		.byte	0
 11787 08ba 00       		.byte	0
 11788 08bb 00       		.byte	0
 11789 08bc 00       		.byte	0
 11790 08bd 00       		.byte	0
 11791 08be 00       		.byte	0
 11792 08bf 00       		.byte	0
 11793 08c0 00       		.byte	0
 11794 08c1 08       		.byte	8
 11795 08c2 00       		.byte	0
 11796 08c3 00       		.byte	0
 11797 08c4 10       		.byte	16
 11798 08c5 00       		.byte	0
 11799 08c6 00       		.byte	0
 11800 08c7 30       		.byte	48
 11801 08c8 00       		.byte	0
 11802 08c9 00       		.byte	0
 11803 08ca 20       		.byte	32
 11804 08cb 00       		.byte	0
 11805 08cc 00       		.byte	0
 11806 08cd 30       		.byte	48
 11807 08ce 00       		.byte	0
 11808 08cf 00       		.byte	0
 11809 08d0 10       		.byte	16
 11810 08d1 00       		.byte	0
 11811 08d2 00       		.byte	0
 11812 08d3 08       		.byte	8
 11813 08d4 00       		.byte	0
 11814 08d5 00       		.byte	0
 11815 08d6 00       		.byte	0
 11816 08d7 00       		.byte	0
ARM GAS  /tmp/cco7znPM.s 			page 258


 11817 08d8 00       		.byte	0
 11818 08d9 00       		.byte	0
 11819 08da 00       		.byte	0
 11820 08db 00       		.byte	0
 11821 08dc 00       		.byte	0
 11822 08dd 00       		.byte	0
 11823 08de 01       		.byte	1
 11824 08df 00       		.byte	0
 11825 08e0 00       		.byte	0
 11826 08e1 01       		.byte	1
 11827 08e2 00       		.byte	0
 11828 08e3 00       		.byte	0
 11829 08e4 01       		.byte	1
 11830 08e5 00       		.byte	0
 11831 08e6 00       		.byte	0
 11832 08e7 01       		.byte	1
 11833 08e8 00       		.byte	0
 11834 08e9 00       		.byte	0
 11835 08ea 01       		.byte	1
 11836 08eb 00       		.byte	0
 11837 08ec 00       		.byte	0
 11838 08ed 01       		.byte	1
 11839 08ee 00       		.byte	0
 11840 08ef 00       		.byte	0
 11841 08f0 01       		.byte	1
 11842 08f1 00       		.byte	0
 11843 08f2 00       		.byte	0
 11844 08f3 01       		.byte	1
 11845 08f4 00       		.byte	0
 11846 08f5 00       		.byte	0
 11847 08f6 01       		.byte	1
 11848 08f7 00       		.byte	0
 11849 08f8 00       		.byte	0
 11850 08f9 01       		.byte	1
 11851 08fa 00       		.byte	0
 11852 08fb 00       		.byte	0
 11853 08fc 01       		.byte	1
 11854 08fd 00       		.byte	0
 11855 08fe 00       		.byte	0
 11856 08ff 01       		.byte	1
 11857 0900 00       		.byte	0
 11858 0901 00       		.byte	0
 11859 0902 00       		.byte	0
 11860 0903 00       		.byte	0
 11861 0904 00       		.byte	0
 11862 0905 00       		.byte	0
 11863 0906 00       		.byte	0
 11864 0907 00       		.byte	0
 11865 0908 00       		.byte	0
 11866 0909 20       		.byte	32
 11867 090a 00       		.byte	0
 11868 090b 00       		.byte	0
 11869 090c 20       		.byte	32
 11870 090d 00       		.byte	0
 11871 090e 00       		.byte	0
 11872 090f 10       		.byte	16
 11873 0910 00       		.byte	0
ARM GAS  /tmp/cco7znPM.s 			page 259


 11874 0911 00       		.byte	0
 11875 0912 10       		.byte	16
 11876 0913 00       		.byte	0
 11877 0914 00       		.byte	0
 11878 0915 00       		.byte	0
 11879 0916 00       		.byte	0
 11880 0917 00       		.byte	0
 11881 0918 00       		.byte	0
 11882 0919 00       		.byte	0
 11883 091a 00       		.byte	0
 11884 091b 00       		.byte	0
 11885 091c 00       		.byte	0
 11886 091d 00       		.byte	0
 11887 091e 00       		.byte	0
 11888 091f 00       		.byte	0
 11889 0920 00       		.byte	0
 11890 0921 00       		.byte	0
 11891 0922 00       		.byte	0
 11892 0923 00       		.byte	0
 11893 0924 00       		.byte	0
 11894 0925 00       		.byte	0
 11895 0926 00       		.byte	0
 11896 0927 00       		.byte	0
 11897 0928 00       		.byte	0
 11898 0929 F0       		.byte	-16
 11899 092a 00       		.byte	0
 11900 092b 19       		.byte	25
 11901 092c F8       		.byte	-8
 11902 092d 00       		.byte	0
 11903 092e 1B       		.byte	27
 11904 092f 18       		.byte	24
 11905 0930 00       		.byte	0
 11906 0931 22       		.byte	34
 11907 0932 08       		.byte	8
 11908 0933 00       		.byte	0
 11909 0934 26       		.byte	38
 11910 0935 08       		.byte	8
 11911 0936 00       		.byte	0
 11912 0937 24       		.byte	36
 11913 0938 08       		.byte	8
 11914 0939 00       		.byte	0
 11915 093a 24       		.byte	36
 11916 093b 10       		.byte	16
 11917 093c 00       		.byte	0
 11918 093d 3F       		.byte	63
 11919 093e F8       		.byte	-8
 11920 093f 00       		.byte	0
 11921 0940 1F       		.byte	31
 11922 0941 F8       		.byte	-8
 11923 0942 00       		.byte	0
 11924 0943 00       		.byte	0
 11925 0944 08       		.byte	8
 11926 0945 00       		.byte	0
 11927 0946 00       		.byte	0
 11928 0947 18       		.byte	24
 11929 0948 00       		.byte	0
 11930 0949 00       		.byte	0
ARM GAS  /tmp/cco7znPM.s 			page 260


 11931 094a 00       		.byte	0
 11932 094b 04       		.byte	4
 11933 094c 00       		.byte	0
 11934 094d 00       		.byte	0
 11935 094e 07       		.byte	7
 11936 094f FF       		.byte	-1
 11937 0950 F8       		.byte	-8
 11938 0951 0F       		.byte	15
 11939 0952 FF       		.byte	-1
 11940 0953 F0       		.byte	-16
 11941 0954 00       		.byte	0
 11942 0955 18       		.byte	24
 11943 0956 18       		.byte	24
 11944 0957 00       		.byte	0
 11945 0958 10       		.byte	16
 11946 0959 08       		.byte	8
 11947 095a 00       		.byte	0
 11948 095b 20       		.byte	32
 11949 095c 08       		.byte	8
 11950 095d 00       		.byte	0
 11951 095e 20       		.byte	32
 11952 095f 08       		.byte	8
 11953 0960 00       		.byte	0
 11954 0961 30       		.byte	48
 11955 0962 18       		.byte	24
 11956 0963 00       		.byte	0
 11957 0964 1F       		.byte	31
 11958 0965 F0       		.byte	-16
 11959 0966 00       		.byte	0
 11960 0967 0F       		.byte	15
 11961 0968 C0       		.byte	-64
 11962 0969 00       		.byte	0
 11963 096a 00       		.byte	0
 11964 096b 00       		.byte	0
 11965 096c 00       		.byte	0
 11966 096d 00       		.byte	0
 11967 096e 00       		.byte	0
 11968 096f 00       		.byte	0
 11969 0970 07       		.byte	7
 11970 0971 C0       		.byte	-64
 11971 0972 00       		.byte	0
 11972 0973 1F       		.byte	31
 11973 0974 F0       		.byte	-16
 11974 0975 00       		.byte	0
 11975 0976 18       		.byte	24
 11976 0977 30       		.byte	48
 11977 0978 00       		.byte	0
 11978 0979 20       		.byte	32
 11979 097a 08       		.byte	8
 11980 097b 00       		.byte	0
 11981 097c 20       		.byte	32
 11982 097d 08       		.byte	8
 11983 097e 00       		.byte	0
 11984 097f 20       		.byte	32
 11985 0980 08       		.byte	8
 11986 0981 00       		.byte	0
 11987 0982 3C       		.byte	60
ARM GAS  /tmp/cco7znPM.s 			page 261


 11988 0983 08       		.byte	8
 11989 0984 00       		.byte	0
 11990 0985 1C       		.byte	28
 11991 0986 10       		.byte	16
 11992 0987 00       		.byte	0
 11993 0988 00       		.byte	0
 11994 0989 60       		.byte	96
 11995 098a 00       		.byte	0
 11996 098b 00       		.byte	0
 11997 098c 00       		.byte	0
 11998 098d 00       		.byte	0
 11999 098e 00       		.byte	0
 12000 098f 00       		.byte	0
 12001 0990 00       		.byte	0
 12002 0991 00       		.byte	0
 12003 0992 00       		.byte	0
 12004 0993 00       		.byte	0
 12005 0994 07       		.byte	7
 12006 0995 C0       		.byte	-64
 12007 0996 00       		.byte	0
 12008 0997 1F       		.byte	31
 12009 0998 F0       		.byte	-16
 12010 0999 00       		.byte	0
 12011 099a 38       		.byte	56
 12012 099b 18       		.byte	24
 12013 099c 00       		.byte	0
 12014 099d 20       		.byte	32
 12015 099e 08       		.byte	8
 12016 099f 00       		.byte	0
 12017 09a0 20       		.byte	32
 12018 09a1 08       		.byte	8
 12019 09a2 00       		.byte	0
 12020 09a3 20       		.byte	32
 12021 09a4 08       		.byte	8
 12022 09a5 04       		.byte	4
 12023 09a6 10       		.byte	16
 12024 09a7 10       		.byte	16
 12025 09a8 07       		.byte	7
 12026 09a9 FF       		.byte	-1
 12027 09aa F8       		.byte	-8
 12028 09ab 0F       		.byte	15
 12029 09ac FF       		.byte	-1
 12030 09ad F0       		.byte	-16
 12031 09ae 00       		.byte	0
 12032 09af 00       		.byte	0
 12033 09b0 10       		.byte	16
 12034 09b1 00       		.byte	0
 12035 09b2 00       		.byte	0
 12036 09b3 00       		.byte	0
 12037 09b4 00       		.byte	0
 12038 09b5 00       		.byte	0
 12039 09b6 00       		.byte	0
 12040 09b7 00       		.byte	0
 12041 09b8 00       		.byte	0
 12042 09b9 00       		.byte	0
 12043 09ba 00       		.byte	0
 12044 09bb 07       		.byte	7
ARM GAS  /tmp/cco7znPM.s 			page 262


 12045 09bc C0       		.byte	-64
 12046 09bd 00       		.byte	0
 12047 09be 1F       		.byte	31
 12048 09bf F0       		.byte	-16
 12049 09c0 00       		.byte	0
 12050 09c1 12       		.byte	18
 12051 09c2 30       		.byte	48
 12052 09c3 00       		.byte	0
 12053 09c4 22       		.byte	34
 12054 09c5 18       		.byte	24
 12055 09c6 00       		.byte	0
 12056 09c7 22       		.byte	34
 12057 09c8 08       		.byte	8
 12058 09c9 00       		.byte	0
 12059 09ca 22       		.byte	34
 12060 09cb 08       		.byte	8
 12061 09cc 00       		.byte	0
 12062 09cd 32       		.byte	50
 12063 09ce 08       		.byte	8
 12064 09cf 00       		.byte	0
 12065 09d0 1E       		.byte	30
 12066 09d1 10       		.byte	16
 12067 09d2 00       		.byte	0
 12068 09d3 0E       		.byte	14
 12069 09d4 20       		.byte	32
 12070 09d5 00       		.byte	0
 12071 09d6 00       		.byte	0
 12072 09d7 00       		.byte	0
 12073 09d8 00       		.byte	0
 12074 09d9 00       		.byte	0
 12075 09da 00       		.byte	0
 12076 09db 00       		.byte	0
 12077 09dc 20       		.byte	32
 12078 09dd 00       		.byte	0
 12079 09de 00       		.byte	0
 12080 09df 20       		.byte	32
 12081 09e0 08       		.byte	8
 12082 09e1 00       		.byte	0
 12083 09e2 20       		.byte	32
 12084 09e3 08       		.byte	8
 12085 09e4 01       		.byte	1
 12086 09e5 FF       		.byte	-1
 12087 09e6 F8       		.byte	-8
 12088 09e7 03       		.byte	3
 12089 09e8 FF       		.byte	-1
 12090 09e9 F8       		.byte	-8
 12091 09ea 06       		.byte	6
 12092 09eb 20       		.byte	32
 12093 09ec 08       		.byte	8
 12094 09ed 04       		.byte	4
 12095 09ee 20       		.byte	32
 12096 09ef 08       		.byte	8
 12097 09f0 04       		.byte	4
 12098 09f1 20       		.byte	32
 12099 09f2 08       		.byte	8
 12100 09f3 07       		.byte	7
 12101 09f4 20       		.byte	32
ARM GAS  /tmp/cco7znPM.s 			page 263


 12102 09f5 00       		.byte	0
 12103 09f6 03       		.byte	3
 12104 09f7 00       		.byte	0
 12105 09f8 00       		.byte	0
 12106 09f9 00       		.byte	0
 12107 09fa 00       		.byte	0
 12108 09fb 00       		.byte	0
 12109 09fc 00       		.byte	0
 12110 09fd 00       		.byte	0
 12111 09fe 00       		.byte	0
 12112 09ff 00       		.byte	0
 12113 0a00 00       		.byte	0
 12114 0a01 0E       		.byte	14
 12115 0a02 00       		.byte	0
 12116 0a03 0E       		.byte	14
 12117 0a04 6E       		.byte	110
 12118 0a05 00       		.byte	0
 12119 0a06 1F       		.byte	31
 12120 0a07 F3       		.byte	-13
 12121 0a08 00       		.byte	0
 12122 0a09 31       		.byte	49
 12123 0a0a B1       		.byte	-79
 12124 0a0b 00       		.byte	0
 12125 0a0c 20       		.byte	32
 12126 0a0d B1       		.byte	-79
 12127 0a0e 00       		.byte	0
 12128 0a0f 20       		.byte	32
 12129 0a10 B1       		.byte	-79
 12130 0a11 00       		.byte	0
 12131 0a12 31       		.byte	49
 12132 0a13 91       		.byte	-111
 12133 0a14 00       		.byte	0
 12134 0a15 1F       		.byte	31
 12135 0a16 13       		.byte	19
 12136 0a17 00       		.byte	0
 12137 0a18 2E       		.byte	46
 12138 0a19 1E       		.byte	30
 12139 0a1a 00       		.byte	0
 12140 0a1b 20       		.byte	32
 12141 0a1c 0E       		.byte	14
 12142 0a1d 00       		.byte	0
 12143 0a1e 30       		.byte	48
 12144 0a1f 00       		.byte	0
 12145 0a20 00       		.byte	0
 12146 0a21 00       		.byte	0
 12147 0a22 00       		.byte	0
 12148 0a23 04       		.byte	4
 12149 0a24 00       		.byte	0
 12150 0a25 08       		.byte	8
 12151 0a26 07       		.byte	7
 12152 0a27 FF       		.byte	-1
 12153 0a28 F8       		.byte	-8
 12154 0a29 0F       		.byte	15
 12155 0a2a FF       		.byte	-1
 12156 0a2b F8       		.byte	-8
 12157 0a2c 00       		.byte	0
 12158 0a2d 10       		.byte	16
ARM GAS  /tmp/cco7znPM.s 			page 264


 12159 0a2e 08       		.byte	8
 12160 0a2f 00       		.byte	0
 12161 0a30 20       		.byte	32
 12162 0a31 00       		.byte	0
 12163 0a32 00       		.byte	0
 12164 0a33 20       		.byte	32
 12165 0a34 00       		.byte	0
 12166 0a35 00       		.byte	0
 12167 0a36 20       		.byte	32
 12168 0a37 08       		.byte	8
 12169 0a38 00       		.byte	0
 12170 0a39 3F       		.byte	63
 12171 0a3a F8       		.byte	-8
 12172 0a3b 00       		.byte	0
 12173 0a3c 1F       		.byte	31
 12174 0a3d F8       		.byte	-8
 12175 0a3e 00       		.byte	0
 12176 0a3f 00       		.byte	0
 12177 0a40 08       		.byte	8
 12178 0a41 00       		.byte	0
 12179 0a42 00       		.byte	0
 12180 0a43 00       		.byte	0
 12181 0a44 00       		.byte	0
 12182 0a45 00       		.byte	0
 12183 0a46 00       		.byte	0
 12184 0a47 00       		.byte	0
 12185 0a48 00       		.byte	0
 12186 0a49 00       		.byte	0
 12187 0a4a 00       		.byte	0
 12188 0a4b 20       		.byte	32
 12189 0a4c 08       		.byte	8
 12190 0a4d 00       		.byte	0
 12191 0a4e 20       		.byte	32
 12192 0a4f 08       		.byte	8
 12193 0a50 00       		.byte	0
 12194 0a51 20       		.byte	32
 12195 0a52 08       		.byte	8
 12196 0a53 06       		.byte	6
 12197 0a54 3F       		.byte	63
 12198 0a55 F8       		.byte	-8
 12199 0a56 06       		.byte	6
 12200 0a57 3F       		.byte	63
 12201 0a58 F8       		.byte	-8
 12202 0a59 00       		.byte	0
 12203 0a5a 00       		.byte	0
 12204 0a5b 08       		.byte	8
 12205 0a5c 00       		.byte	0
 12206 0a5d 00       		.byte	0
 12207 0a5e 08       		.byte	8
 12208 0a5f 00       		.byte	0
 12209 0a60 00       		.byte	0
 12210 0a61 08       		.byte	8
 12211 0a62 00       		.byte	0
 12212 0a63 00       		.byte	0
 12213 0a64 00       		.byte	0
 12214 0a65 00       		.byte	0
 12215 0a66 00       		.byte	0
ARM GAS  /tmp/cco7znPM.s 			page 265


 12216 0a67 00       		.byte	0
 12217 0a68 00       		.byte	0
 12218 0a69 00       		.byte	0
 12219 0a6a 00       		.byte	0
 12220 0a6b 00       		.byte	0
 12221 0a6c 00       		.byte	0
 12222 0a6d 00       		.byte	0
 12223 0a6e 00       		.byte	0
 12224 0a6f 00       		.byte	0
 12225 0a70 03       		.byte	3
 12226 0a71 00       		.byte	0
 12227 0a72 00       		.byte	0
 12228 0a73 03       		.byte	3
 12229 0a74 00       		.byte	0
 12230 0a75 20       		.byte	32
 12231 0a76 01       		.byte	1
 12232 0a77 00       		.byte	0
 12233 0a78 20       		.byte	32
 12234 0a79 01       		.byte	1
 12235 0a7a 00       		.byte	0
 12236 0a7b 20       		.byte	32
 12237 0a7c 03       		.byte	3
 12238 0a7d 06       		.byte	6
 12239 0a7e 3F       		.byte	63
 12240 0a7f FE       		.byte	-2
 12241 0a80 06       		.byte	6
 12242 0a81 3F       		.byte	63
 12243 0a82 FC       		.byte	-4
 12244 0a83 00       		.byte	0
 12245 0a84 00       		.byte	0
 12246 0a85 00       		.byte	0
 12247 0a86 00       		.byte	0
 12248 0a87 00       		.byte	0
 12249 0a88 00       		.byte	0
 12250 0a89 00       		.byte	0
 12251 0a8a 00       		.byte	0
 12252 0a8b 00       		.byte	0
 12253 0a8c 00       		.byte	0
 12254 0a8d 00       		.byte	0
 12255 0a8e 00       		.byte	0
 12256 0a8f 04       		.byte	4
 12257 0a90 00       		.byte	0
 12258 0a91 08       		.byte	8
 12259 0a92 07       		.byte	7
 12260 0a93 FF       		.byte	-1
 12261 0a94 F8       		.byte	-8
 12262 0a95 0F       		.byte	15
 12263 0a96 FF       		.byte	-1
 12264 0a97 F8       		.byte	-8
 12265 0a98 00       		.byte	0
 12266 0a99 01       		.byte	1
 12267 0a9a 88       		.byte	-120
 12268 0a9b 00       		.byte	0
 12269 0a9c 03       		.byte	3
 12270 0a9d 00       		.byte	0
 12271 0a9e 00       		.byte	0
 12272 0a9f 2F       		.byte	47
ARM GAS  /tmp/cco7znPM.s 			page 266


 12273 0aa0 C0       		.byte	-64
 12274 0aa1 00       		.byte	0
 12275 0aa2 38       		.byte	56
 12276 0aa3 F8       		.byte	-8
 12277 0aa4 00       		.byte	0
 12278 0aa5 20       		.byte	32
 12279 0aa6 38       		.byte	56
 12280 0aa7 00       		.byte	0
 12281 0aa8 20       		.byte	32
 12282 0aa9 08       		.byte	8
 12283 0aaa 00       		.byte	0
 12284 0aab 00       		.byte	0
 12285 0aac 08       		.byte	8
 12286 0aad 00       		.byte	0
 12287 0aae 00       		.byte	0
 12288 0aaf 00       		.byte	0
 12289 0ab0 00       		.byte	0
 12290 0ab1 00       		.byte	0
 12291 0ab2 00       		.byte	0
 12292 0ab3 00       		.byte	0
 12293 0ab4 00       		.byte	0
 12294 0ab5 00       		.byte	0
 12295 0ab6 04       		.byte	4
 12296 0ab7 00       		.byte	0
 12297 0ab8 08       		.byte	8
 12298 0ab9 04       		.byte	4
 12299 0aba 00       		.byte	0
 12300 0abb 08       		.byte	8
 12301 0abc 04       		.byte	4
 12302 0abd 00       		.byte	0
 12303 0abe 08       		.byte	8
 12304 0abf 07       		.byte	7
 12305 0ac0 FF       		.byte	-1
 12306 0ac1 F8       		.byte	-8
 12307 0ac2 0F       		.byte	15
 12308 0ac3 FF       		.byte	-1
 12309 0ac4 F8       		.byte	-8
 12310 0ac5 00       		.byte	0
 12311 0ac6 00       		.byte	0
 12312 0ac7 08       		.byte	8
 12313 0ac8 00       		.byte	0
 12314 0ac9 00       		.byte	0
 12315 0aca 08       		.byte	8
 12316 0acb 00       		.byte	0
 12317 0acc 00       		.byte	0
 12318 0acd 08       		.byte	8
 12319 0ace 00       		.byte	0
 12320 0acf 00       		.byte	0
 12321 0ad0 00       		.byte	0
 12322 0ad1 00       		.byte	0
 12323 0ad2 00       		.byte	0
 12324 0ad3 00       		.byte	0
 12325 0ad4 00       		.byte	0
 12326 0ad5 20       		.byte	32
 12327 0ad6 08       		.byte	8
 12328 0ad7 00       		.byte	0
 12329 0ad8 3F       		.byte	63
ARM GAS  /tmp/cco7znPM.s 			page 267


 12330 0ad9 F8       		.byte	-8
 12331 0ada 00       		.byte	0
 12332 0adb 3F       		.byte	63
 12333 0adc F8       		.byte	-8
 12334 0add 00       		.byte	0
 12335 0ade 10       		.byte	16
 12336 0adf 08       		.byte	8
 12337 0ae0 00       		.byte	0
 12338 0ae1 20       		.byte	32
 12339 0ae2 00       		.byte	0
 12340 0ae3 00       		.byte	0
 12341 0ae4 3F       		.byte	63
 12342 0ae5 F8       		.byte	-8
 12343 0ae6 00       		.byte	0
 12344 0ae7 3F       		.byte	63
 12345 0ae8 F8       		.byte	-8
 12346 0ae9 00       		.byte	0
 12347 0aea 10       		.byte	16
 12348 0aeb 08       		.byte	8
 12349 0aec 00       		.byte	0
 12350 0aed 20       		.byte	32
 12351 0aee 00       		.byte	0
 12352 0aef 00       		.byte	0
 12353 0af0 3F       		.byte	63
 12354 0af1 F8       		.byte	-8
 12355 0af2 00       		.byte	0
 12356 0af3 3F       		.byte	63
 12357 0af4 F8       		.byte	-8
 12358 0af5 00       		.byte	0
 12359 0af6 00       		.byte	0
 12360 0af7 08       		.byte	8
 12361 0af8 00       		.byte	0
 12362 0af9 00       		.byte	0
 12363 0afa 00       		.byte	0
 12364 0afb 00       		.byte	0
 12365 0afc 20       		.byte	32
 12366 0afd 08       		.byte	8
 12367 0afe 00       		.byte	0
 12368 0aff 3F       		.byte	63
 12369 0b00 F8       		.byte	-8
 12370 0b01 00       		.byte	0
 12371 0b02 3F       		.byte	63
 12372 0b03 F8       		.byte	-8
 12373 0b04 00       		.byte	0
 12374 0b05 10       		.byte	16
 12375 0b06 08       		.byte	8
 12376 0b07 00       		.byte	0
 12377 0b08 10       		.byte	16
 12378 0b09 00       		.byte	0
 12379 0b0a 00       		.byte	0
 12380 0b0b 20       		.byte	32
 12381 0b0c 00       		.byte	0
 12382 0b0d 00       		.byte	0
 12383 0b0e 20       		.byte	32
 12384 0b0f 08       		.byte	8
 12385 0b10 00       		.byte	0
 12386 0b11 3F       		.byte	63
ARM GAS  /tmp/cco7znPM.s 			page 268


 12387 0b12 F8       		.byte	-8
 12388 0b13 00       		.byte	0
 12389 0b14 1F       		.byte	31
 12390 0b15 F8       		.byte	-8
 12391 0b16 00       		.byte	0
 12392 0b17 00       		.byte	0
 12393 0b18 08       		.byte	8
 12394 0b19 00       		.byte	0
 12395 0b1a 00       		.byte	0
 12396 0b1b 00       		.byte	0
 12397 0b1c 00       		.byte	0
 12398 0b1d 00       		.byte	0
 12399 0b1e 00       		.byte	0
 12400 0b1f 00       		.byte	0
 12401 0b20 07       		.byte	7
 12402 0b21 C0       		.byte	-64
 12403 0b22 00       		.byte	0
 12404 0b23 0F       		.byte	15
 12405 0b24 F0       		.byte	-16
 12406 0b25 00       		.byte	0
 12407 0b26 18       		.byte	24
 12408 0b27 30       		.byte	48
 12409 0b28 00       		.byte	0
 12410 0b29 30       		.byte	48
 12411 0b2a 08       		.byte	8
 12412 0b2b 00       		.byte	0
 12413 0b2c 20       		.byte	32
 12414 0b2d 08       		.byte	8
 12415 0b2e 00       		.byte	0
 12416 0b2f 20       		.byte	32
 12417 0b30 08       		.byte	8
 12418 0b31 00       		.byte	0
 12419 0b32 30       		.byte	48
 12420 0b33 08       		.byte	8
 12421 0b34 00       		.byte	0
 12422 0b35 18       		.byte	24
 12423 0b36 30       		.byte	48
 12424 0b37 00       		.byte	0
 12425 0b38 0F       		.byte	15
 12426 0b39 F0       		.byte	-16
 12427 0b3a 00       		.byte	0
 12428 0b3b 07       		.byte	7
 12429 0b3c C0       		.byte	-64
 12430 0b3d 00       		.byte	0
 12431 0b3e 00       		.byte	0
 12432 0b3f 00       		.byte	0
 12433 0b40 00       		.byte	0
 12434 0b41 00       		.byte	0
 12435 0b42 00       		.byte	0
 12436 0b43 00       		.byte	0
 12437 0b44 20       		.byte	32
 12438 0b45 01       		.byte	1
 12439 0b46 00       		.byte	0
 12440 0b47 3F       		.byte	63
 12441 0b48 FF       		.byte	-1
 12442 0b49 00       		.byte	0
 12443 0b4a 3F       		.byte	63
ARM GAS  /tmp/cco7znPM.s 			page 269


 12444 0b4b FF       		.byte	-1
 12445 0b4c 00       		.byte	0
 12446 0b4d 10       		.byte	16
 12447 0b4e 11       		.byte	17
 12448 0b4f 00       		.byte	0
 12449 0b50 20       		.byte	32
 12450 0b51 09       		.byte	9
 12451 0b52 00       		.byte	0
 12452 0b53 20       		.byte	32
 12453 0b54 08       		.byte	8
 12454 0b55 00       		.byte	0
 12455 0b56 20       		.byte	32
 12456 0b57 08       		.byte	8
 12457 0b58 00       		.byte	0
 12458 0b59 30       		.byte	48
 12459 0b5a 38       		.byte	56
 12460 0b5b 00       		.byte	0
 12461 0b5c 1F       		.byte	31
 12462 0b5d F0       		.byte	-16
 12463 0b5e 00       		.byte	0
 12464 0b5f 0F       		.byte	15
 12465 0b60 C0       		.byte	-64
 12466 0b61 00       		.byte	0
 12467 0b62 00       		.byte	0
 12468 0b63 00       		.byte	0
 12469 0b64 00       		.byte	0
 12470 0b65 00       		.byte	0
 12471 0b66 00       		.byte	0
 12472 0b67 00       		.byte	0
 12473 0b68 07       		.byte	7
 12474 0b69 C0       		.byte	-64
 12475 0b6a 00       		.byte	0
 12476 0b6b 1F       		.byte	31
 12477 0b6c F0       		.byte	-16
 12478 0b6d 00       		.byte	0
 12479 0b6e 38       		.byte	56
 12480 0b6f 18       		.byte	24
 12481 0b70 00       		.byte	0
 12482 0b71 20       		.byte	32
 12483 0b72 08       		.byte	8
 12484 0b73 00       		.byte	0
 12485 0b74 20       		.byte	32
 12486 0b75 08       		.byte	8
 12487 0b76 00       		.byte	0
 12488 0b77 20       		.byte	32
 12489 0b78 09       		.byte	9
 12490 0b79 00       		.byte	0
 12491 0b7a 10       		.byte	16
 12492 0b7b 11       		.byte	17
 12493 0b7c 00       		.byte	0
 12494 0b7d 1F       		.byte	31
 12495 0b7e FF       		.byte	-1
 12496 0b7f 00       		.byte	0
 12497 0b80 3F       		.byte	63
 12498 0b81 FF       		.byte	-1
 12499 0b82 00       		.byte	0
 12500 0b83 00       		.byte	0
ARM GAS  /tmp/cco7znPM.s 			page 270


 12501 0b84 01       		.byte	1
 12502 0b85 00       		.byte	0
 12503 0b86 00       		.byte	0
 12504 0b87 00       		.byte	0
 12505 0b88 00       		.byte	0
 12506 0b89 20       		.byte	32
 12507 0b8a 08       		.byte	8
 12508 0b8b 00       		.byte	0
 12509 0b8c 20       		.byte	32
 12510 0b8d 08       		.byte	8
 12511 0b8e 00       		.byte	0
 12512 0b8f 20       		.byte	32
 12513 0b90 08       		.byte	8
 12514 0b91 00       		.byte	0
 12515 0b92 3F       		.byte	63
 12516 0b93 F8       		.byte	-8
 12517 0b94 00       		.byte	0
 12518 0b95 3F       		.byte	63
 12519 0b96 F8       		.byte	-8
 12520 0b97 00       		.byte	0
 12521 0b98 08       		.byte	8
 12522 0b99 08       		.byte	8
 12523 0b9a 00       		.byte	0
 12524 0b9b 10       		.byte	16
 12525 0b9c 08       		.byte	8
 12526 0b9d 00       		.byte	0
 12527 0b9e 20       		.byte	32
 12528 0b9f 08       		.byte	8
 12529 0ba0 00       		.byte	0
 12530 0ba1 20       		.byte	32
 12531 0ba2 00       		.byte	0
 12532 0ba3 00       		.byte	0
 12533 0ba4 30       		.byte	48
 12534 0ba5 00       		.byte	0
 12535 0ba6 00       		.byte	0
 12536 0ba7 30       		.byte	48
 12537 0ba8 00       		.byte	0
 12538 0ba9 00       		.byte	0
 12539 0baa 00       		.byte	0
 12540 0bab 00       		.byte	0
 12541 0bac 00       		.byte	0
 12542 0bad 00       		.byte	0
 12543 0bae 00       		.byte	0
 12544 0baf 00       		.byte	0
 12545 0bb0 00       		.byte	0
 12546 0bb1 00       		.byte	0
 12547 0bb2 00       		.byte	0
 12548 0bb3 0C       		.byte	12
 12549 0bb4 78       		.byte	120
 12550 0bb5 00       		.byte	0
 12551 0bb6 1E       		.byte	30
 12552 0bb7 18       		.byte	24
 12553 0bb8 00       		.byte	0
 12554 0bb9 33       		.byte	51
 12555 0bba 08       		.byte	8
 12556 0bbb 00       		.byte	0
 12557 0bbc 23       		.byte	35
ARM GAS  /tmp/cco7znPM.s 			page 271


 12558 0bbd 08       		.byte	8
 12559 0bbe 00       		.byte	0
 12560 0bbf 21       		.byte	33
 12561 0bc0 08       		.byte	8
 12562 0bc1 00       		.byte	0
 12563 0bc2 21       		.byte	33
 12564 0bc3 88       		.byte	-120
 12565 0bc4 00       		.byte	0
 12566 0bc5 21       		.byte	33
 12567 0bc6 98       		.byte	-104
 12568 0bc7 00       		.byte	0
 12569 0bc8 30       		.byte	48
 12570 0bc9 F0       		.byte	-16
 12571 0bca 00       		.byte	0
 12572 0bcb 38       		.byte	56
 12573 0bcc 60       		.byte	96
 12574 0bcd 00       		.byte	0
 12575 0bce 00       		.byte	0
 12576 0bcf 00       		.byte	0
 12577 0bd0 00       		.byte	0
 12578 0bd1 00       		.byte	0
 12579 0bd2 00       		.byte	0
 12580 0bd3 00       		.byte	0
 12581 0bd4 20       		.byte	32
 12582 0bd5 00       		.byte	0
 12583 0bd6 00       		.byte	0
 12584 0bd7 20       		.byte	32
 12585 0bd8 00       		.byte	0
 12586 0bd9 00       		.byte	0
 12587 0bda 20       		.byte	32
 12588 0bdb 00       		.byte	0
 12589 0bdc 00       		.byte	0
 12590 0bdd FF       		.byte	-1
 12591 0bde F0       		.byte	-16
 12592 0bdf 03       		.byte	3
 12593 0be0 FF       		.byte	-1
 12594 0be1 F8       		.byte	-8
 12595 0be2 00       		.byte	0
 12596 0be3 20       		.byte	32
 12597 0be4 08       		.byte	8
 12598 0be5 00       		.byte	0
 12599 0be6 20       		.byte	32
 12600 0be7 08       		.byte	8
 12601 0be8 00       		.byte	0
 12602 0be9 20       		.byte	32
 12603 0bea 08       		.byte	8
 12604 0beb 00       		.byte	0
 12605 0bec 00       		.byte	0
 12606 0bed 30       		.byte	48
 12607 0bee 00       		.byte	0
 12608 0bef 00       		.byte	0
 12609 0bf0 00       		.byte	0
 12610 0bf1 00       		.byte	0
 12611 0bf2 00       		.byte	0
 12612 0bf3 00       		.byte	0
 12613 0bf4 00       		.byte	0
 12614 0bf5 00       		.byte	0
ARM GAS  /tmp/cco7znPM.s 			page 272


 12615 0bf6 00       		.byte	0
 12616 0bf7 00       		.byte	0
 12617 0bf8 20       		.byte	32
 12618 0bf9 00       		.byte	0
 12619 0bfa 00       		.byte	0
 12620 0bfb 3F       		.byte	63
 12621 0bfc F0       		.byte	-16
 12622 0bfd 00       		.byte	0
 12623 0bfe 7F       		.byte	127
 12624 0bff F8       		.byte	-8
 12625 0c00 00       		.byte	0
 12626 0c01 00       		.byte	0
 12627 0c02 18       		.byte	24
 12628 0c03 00       		.byte	0
 12629 0c04 00       		.byte	0
 12630 0c05 08       		.byte	8
 12631 0c06 00       		.byte	0
 12632 0c07 00       		.byte	0
 12633 0c08 08       		.byte	8
 12634 0c09 00       		.byte	0
 12635 0c0a 20       		.byte	32
 12636 0c0b 10       		.byte	16
 12637 0c0c 00       		.byte	0
 12638 0c0d 3F       		.byte	63
 12639 0c0e F8       		.byte	-8
 12640 0c0f 00       		.byte	0
 12641 0c10 7F       		.byte	127
 12642 0c11 F0       		.byte	-16
 12643 0c12 00       		.byte	0
 12644 0c13 00       		.byte	0
 12645 0c14 10       		.byte	16
 12646 0c15 00       		.byte	0
 12647 0c16 00       		.byte	0
 12648 0c17 00       		.byte	0
 12649 0c18 00       		.byte	0
 12650 0c19 00       		.byte	0
 12651 0c1a 00       		.byte	0
 12652 0c1b 00       		.byte	0
 12653 0c1c 20       		.byte	32
 12654 0c1d 00       		.byte	0
 12655 0c1e 00       		.byte	0
 12656 0c1f 30       		.byte	48
 12657 0c20 00       		.byte	0
 12658 0c21 00       		.byte	0
 12659 0c22 3C       		.byte	60
 12660 0c23 00       		.byte	0
 12661 0c24 00       		.byte	0
 12662 0c25 3F       		.byte	63
 12663 0c26 80       		.byte	-128
 12664 0c27 00       		.byte	0
 12665 0c28 23       		.byte	35
 12666 0c29 F0       		.byte	-16
 12667 0c2a 00       		.byte	0
 12668 0c2b 00       		.byte	0
 12669 0c2c 78       		.byte	120
 12670 0c2d 00       		.byte	0
 12671 0c2e 00       		.byte	0
ARM GAS  /tmp/cco7znPM.s 			page 273


 12672 0c2f 70       		.byte	112
 12673 0c30 00       		.byte	0
 12674 0c31 23       		.byte	35
 12675 0c32 80       		.byte	-128
 12676 0c33 00       		.byte	0
 12677 0c34 3C       		.byte	60
 12678 0c35 00       		.byte	0
 12679 0c36 00       		.byte	0
 12680 0c37 30       		.byte	48
 12681 0c38 00       		.byte	0
 12682 0c39 00       		.byte	0
 12683 0c3a 20       		.byte	32
 12684 0c3b 00       		.byte	0
 12685 0c3c 00       		.byte	0
 12686 0c3d 20       		.byte	32
 12687 0c3e 00       		.byte	0
 12688 0c3f 00       		.byte	0
 12689 0c40 3C       		.byte	60
 12690 0c41 00       		.byte	0
 12691 0c42 00       		.byte	0
 12692 0c43 3F       		.byte	63
 12693 0c44 E0       		.byte	-32
 12694 0c45 00       		.byte	0
 12695 0c46 23       		.byte	35
 12696 0c47 F8       		.byte	-8
 12697 0c48 00       		.byte	0
 12698 0c49 00       		.byte	0
 12699 0c4a E0       		.byte	-32
 12700 0c4b 00       		.byte	0
 12701 0c4c 27       		.byte	39
 12702 0c4d 00       		.byte	0
 12703 0c4e 00       		.byte	0
 12704 0c4f 3E       		.byte	62
 12705 0c50 00       		.byte	0
 12706 0c51 00       		.byte	0
 12707 0c52 3F       		.byte	63
 12708 0c53 E0       		.byte	-32
 12709 0c54 00       		.byte	0
 12710 0c55 21       		.byte	33
 12711 0c56 F8       		.byte	-8
 12712 0c57 00       		.byte	0
 12713 0c58 01       		.byte	1
 12714 0c59 E0       		.byte	-32
 12715 0c5a 00       		.byte	0
 12716 0c5b 3E       		.byte	62
 12717 0c5c 00       		.byte	0
 12718 0c5d 00       		.byte	0
 12719 0c5e 20       		.byte	32
 12720 0c5f 00       		.byte	0
 12721 0c60 00       		.byte	0
 12722 0c61 00       		.byte	0
 12723 0c62 00       		.byte	0
 12724 0c63 00       		.byte	0
 12725 0c64 20       		.byte	32
 12726 0c65 08       		.byte	8
 12727 0c66 00       		.byte	0
 12728 0c67 20       		.byte	32
ARM GAS  /tmp/cco7znPM.s 			page 274


 12729 0c68 08       		.byte	8
 12730 0c69 00       		.byte	0
 12731 0c6a 38       		.byte	56
 12732 0c6b 38       		.byte	56
 12733 0c6c 00       		.byte	0
 12734 0c6d 3E       		.byte	62
 12735 0c6e 68       		.byte	104
 12736 0c6f 00       		.byte	0
 12737 0c70 27       		.byte	39
 12738 0c71 80       		.byte	-128
 12739 0c72 00       		.byte	0
 12740 0c73 03       		.byte	3
 12741 0c74 C8       		.byte	-56
 12742 0c75 00       		.byte	0
 12743 0c76 2C       		.byte	44
 12744 0c77 F8       		.byte	-8
 12745 0c78 00       		.byte	0
 12746 0c79 38       		.byte	56
 12747 0c7a 38       		.byte	56
 12748 0c7b 00       		.byte	0
 12749 0c7c 20       		.byte	32
 12750 0c7d 18       		.byte	24
 12751 0c7e 00       		.byte	0
 12752 0c7f 20       		.byte	32
 12753 0c80 08       		.byte	8
 12754 0c81 00       		.byte	0
 12755 0c82 00       		.byte	0
 12756 0c83 00       		.byte	0
 12757 0c84 00       		.byte	0
 12758 0c85 00       		.byte	0
 12759 0c86 00       		.byte	0
 12760 0c87 00       		.byte	0
 12761 0c88 20       		.byte	32
 12762 0c89 00       		.byte	0
 12763 0c8a 00       		.byte	0
 12764 0c8b 30       		.byte	48
 12765 0c8c 03       		.byte	3
 12766 0c8d 00       		.byte	0
 12767 0c8e 3C       		.byte	60
 12768 0c8f 01       		.byte	1
 12769 0c90 00       		.byte	0
 12770 0c91 3F       		.byte	63
 12771 0c92 83       		.byte	-125
 12772 0c93 00       		.byte	0
 12773 0c94 23       		.byte	35
 12774 0c95 EC       		.byte	-20
 12775 0c96 00       		.byte	0
 12776 0c97 00       		.byte	0
 12777 0c98 70       		.byte	112
 12778 0c99 00       		.byte	0
 12779 0c9a 23       		.byte	35
 12780 0c9b 80       		.byte	-128
 12781 0c9c 00       		.byte	0
 12782 0c9d 3C       		.byte	60
 12783 0c9e 00       		.byte	0
 12784 0c9f 00       		.byte	0
 12785 0ca0 20       		.byte	32
ARM GAS  /tmp/cco7znPM.s 			page 275


 12786 0ca1 00       		.byte	0
 12787 0ca2 00       		.byte	0
 12788 0ca3 20       		.byte	32
 12789 0ca4 00       		.byte	0
 12790 0ca5 00       		.byte	0
 12791 0ca6 00       		.byte	0
 12792 0ca7 00       		.byte	0
 12793 0ca8 00       		.byte	0
 12794 0ca9 00       		.byte	0
 12795 0caa 00       		.byte	0
 12796 0cab 00       		.byte	0
 12797 0cac 00       		.byte	0
 12798 0cad 00       		.byte	0
 12799 0cae 00       		.byte	0
 12800 0caf 38       		.byte	56
 12801 0cb0 08       		.byte	8
 12802 0cb1 00       		.byte	0
 12803 0cb2 20       		.byte	32
 12804 0cb3 38       		.byte	56
 12805 0cb4 00       		.byte	0
 12806 0cb5 20       		.byte	32
 12807 0cb6 F8       		.byte	-8
 12808 0cb7 00       		.byte	0
 12809 0cb8 23       		.byte	35
 12810 0cb9 E8       		.byte	-24
 12811 0cba 00       		.byte	0
 12812 0cbb 2F       		.byte	47
 12813 0cbc 88       		.byte	-120
 12814 0cbd 00       		.byte	0
 12815 0cbe 3E       		.byte	62
 12816 0cbf 08       		.byte	8
 12817 0cc0 00       		.byte	0
 12818 0cc1 38       		.byte	56
 12819 0cc2 08       		.byte	8
 12820 0cc3 00       		.byte	0
 12821 0cc4 20       		.byte	32
 12822 0cc5 18       		.byte	24
 12823 0cc6 00       		.byte	0
 12824 0cc7 00       		.byte	0
 12825 0cc8 70       		.byte	112
 12826 0cc9 00       		.byte	0
 12827 0cca 00       		.byte	0
 12828 0ccb 00       		.byte	0
 12829 0ccc 00       		.byte	0
 12830 0ccd 00       		.byte	0
 12831 0cce 00       		.byte	0
 12832 0ccf 00       		.byte	0
 12833 0cd0 00       		.byte	0
 12834 0cd1 00       		.byte	0
 12835 0cd2 00       		.byte	0
 12836 0cd3 00       		.byte	0
 12837 0cd4 00       		.byte	0
 12838 0cd5 00       		.byte	0
 12839 0cd6 00       		.byte	0
 12840 0cd7 00       		.byte	0
 12841 0cd8 00       		.byte	0
 12842 0cd9 00       		.byte	0
ARM GAS  /tmp/cco7znPM.s 			page 276


 12843 0cda 00       		.byte	0
 12844 0cdb 00       		.byte	0
 12845 0cdc 08       		.byte	8
 12846 0cdd 00       		.byte	0
 12847 0cde 00       		.byte	0
 12848 0cdf 14       		.byte	20
 12849 0ce0 00       		.byte	0
 12850 0ce1 1F       		.byte	31
 12851 0ce2 F7       		.byte	-9
 12852 0ce3 FC       		.byte	-4
 12853 0ce4 30       		.byte	48
 12854 0ce5 00       		.byte	0
 12855 0ce6 06       		.byte	6
 12856 0ce7 20       		.byte	32
 12857 0ce8 00       		.byte	0
 12858 0ce9 02       		.byte	2
 12859 0cea 00       		.byte	0
 12860 0ceb 00       		.byte	0
 12861 0cec 00       		.byte	0
 12862 0ced 00       		.byte	0
 12863 0cee 00       		.byte	0
 12864 0cef 00       		.byte	0
 12865 0cf0 00       		.byte	0
 12866 0cf1 00       		.byte	0
 12867 0cf2 00       		.byte	0
 12868 0cf3 00       		.byte	0
 12869 0cf4 00       		.byte	0
 12870 0cf5 00       		.byte	0
 12871 0cf6 00       		.byte	0
 12872 0cf7 00       		.byte	0
 12873 0cf8 00       		.byte	0
 12874 0cf9 00       		.byte	0
 12875 0cfa 00       		.byte	0
 12876 0cfb 00       		.byte	0
 12877 0cfc 00       		.byte	0
 12878 0cfd 00       		.byte	0
 12879 0cfe 00       		.byte	0
 12880 0cff 00       		.byte	0
 12881 0d00 00       		.byte	0
 12882 0d01 00       		.byte	0
 12883 0d02 FF       		.byte	-1
 12884 0d03 FF       		.byte	-1
 12885 0d04 FF       		.byte	-1
 12886 0d05 00       		.byte	0
 12887 0d06 00       		.byte	0
 12888 0d07 00       		.byte	0
 12889 0d08 00       		.byte	0
 12890 0d09 00       		.byte	0
 12891 0d0a 00       		.byte	0
 12892 0d0b 00       		.byte	0
 12893 0d0c 00       		.byte	0
 12894 0d0d 00       		.byte	0
 12895 0d0e 00       		.byte	0
 12896 0d0f 00       		.byte	0
 12897 0d10 00       		.byte	0
 12898 0d11 00       		.byte	0
 12899 0d12 00       		.byte	0
ARM GAS  /tmp/cco7znPM.s 			page 277


 12900 0d13 00       		.byte	0
 12901 0d14 00       		.byte	0
 12902 0d15 00       		.byte	0
 12903 0d16 00       		.byte	0
 12904 0d17 00       		.byte	0
 12905 0d18 00       		.byte	0
 12906 0d19 00       		.byte	0
 12907 0d1a 20       		.byte	32
 12908 0d1b 00       		.byte	0
 12909 0d1c 02       		.byte	2
 12910 0d1d 30       		.byte	48
 12911 0d1e 00       		.byte	0
 12912 0d1f 06       		.byte	6
 12913 0d20 1F       		.byte	31
 12914 0d21 F7       		.byte	-9
 12915 0d22 FC       		.byte	-4
 12916 0d23 00       		.byte	0
 12917 0d24 14       		.byte	20
 12918 0d25 00       		.byte	0
 12919 0d26 00       		.byte	0
 12920 0d27 08       		.byte	8
 12921 0d28 00       		.byte	0
 12922 0d29 00       		.byte	0
 12923 0d2a 00       		.byte	0
 12924 0d2b 00       		.byte	0
 12925 0d2c 00       		.byte	0
 12926 0d2d 00       		.byte	0
 12927 0d2e 00       		.byte	0
 12928 0d2f 00       		.byte	0
 12929 0d30 00       		.byte	0
 12930 0d31 00       		.byte	0
 12931 0d32 00       		.byte	0
 12932 0d33 00       		.byte	0
 12933 0d34 00       		.byte	0
 12934 0d35 00       		.byte	0
 12935 0d36 00       		.byte	0
 12936 0d37 00       		.byte	0
 12937 0d38 00       		.byte	0
 12938 0d39 00       		.byte	0
 12939 0d3a 00       		.byte	0
 12940 0d3b 18       		.byte	24
 12941 0d3c 00       		.byte	0
 12942 0d3d 00       		.byte	0
 12943 0d3e 60       		.byte	96
 12944 0d3f 00       		.byte	0
 12945 0d40 00       		.byte	0
 12946 0d41 40       		.byte	64
 12947 0d42 00       		.byte	0
 12948 0d43 00       		.byte	0
 12949 0d44 40       		.byte	64
 12950 0d45 00       		.byte	0
 12951 0d46 00       		.byte	0
 12952 0d47 20       		.byte	32
 12953 0d48 00       		.byte	0
 12954 0d49 00       		.byte	0
 12955 0d4a 10       		.byte	16
 12956 0d4b 00       		.byte	0
ARM GAS  /tmp/cco7znPM.s 			page 278


 12957 0d4c 00       		.byte	0
 12958 0d4d 08       		.byte	8
 12959 0d4e 00       		.byte	0
 12960 0d4f 00       		.byte	0
 12961 0d50 04       		.byte	4
 12962 0d51 00       		.byte	0
 12963 0d52 00       		.byte	0
 12964 0d53 04       		.byte	4
 12965 0d54 00       		.byte	0
 12966 0d55 00       		.byte	0
 12967 0d56 0C       		.byte	12
 12968 0d57 00       		.byte	0
 12969 0d58 00       		.byte	0
 12970 0d59 10       		.byte	16
 12971 0d5a 00       		.byte	0
 12972 0d5b 00       		.byte	0
 12973              		.section	.rodata.asc2_3216,"a",%progbits
 12974              		.align	2
 12975              		.set	.LANCHOR4,. + 0
 12978              	asc2_3216:
 12979 0000 00       		.byte	0
 12980 0001 00       		.byte	0
 12981 0002 00       		.byte	0
 12982 0003 00       		.byte	0
 12983 0004 00       		.byte	0
 12984 0005 00       		.byte	0
 12985 0006 00       		.byte	0
 12986 0007 00       		.byte	0
 12987 0008 00       		.byte	0
 12988 0009 00       		.byte	0
 12989 000a 00       		.byte	0
 12990 000b 00       		.byte	0
 12991 000c 00       		.byte	0
 12992 000d 00       		.byte	0
 12993 000e 00       		.byte	0
 12994 000f 00       		.byte	0
 12995 0010 00       		.byte	0
 12996 0011 00       		.byte	0
 12997 0012 00       		.byte	0
 12998 0013 00       		.byte	0
 12999 0014 00       		.byte	0
 13000 0015 00       		.byte	0
 13001 0016 00       		.byte	0
 13002 0017 00       		.byte	0
 13003 0018 00       		.byte	0
 13004 0019 00       		.byte	0
 13005 001a 00       		.byte	0
 13006 001b 00       		.byte	0
 13007 001c 00       		.byte	0
 13008 001d 00       		.byte	0
 13009 001e 00       		.byte	0
 13010 001f 00       		.byte	0
 13011 0020 00       		.byte	0
 13012 0021 00       		.byte	0
 13013 0022 00       		.byte	0
 13014 0023 00       		.byte	0
 13015 0024 00       		.byte	0
ARM GAS  /tmp/cco7znPM.s 			page 279


 13016 0025 00       		.byte	0
 13017 0026 00       		.byte	0
 13018 0027 00       		.byte	0
 13019 0028 00       		.byte	0
 13020 0029 00       		.byte	0
 13021 002a 00       		.byte	0
 13022 002b 00       		.byte	0
 13023 002c 00       		.byte	0
 13024 002d 00       		.byte	0
 13025 002e 00       		.byte	0
 13026 002f 00       		.byte	0
 13027 0030 00       		.byte	0
 13028 0031 00       		.byte	0
 13029 0032 00       		.byte	0
 13030 0033 00       		.byte	0
 13031 0034 00       		.byte	0
 13032 0035 00       		.byte	0
 13033 0036 00       		.byte	0
 13034 0037 00       		.byte	0
 13035 0038 00       		.byte	0
 13036 0039 00       		.byte	0
 13037 003a 00       		.byte	0
 13038 003b 00       		.byte	0
 13039 003c 00       		.byte	0
 13040 003d 00       		.byte	0
 13041 003e 00       		.byte	0
 13042 003f 00       		.byte	0
 13043 0040 00000000 		.space	64
 13043      00000000 
 13043      00000000 
 13043      00000000 
 13043      00000000 
 13044 0080 00       		.byte	0
 13045 0081 00       		.byte	0
 13046 0082 00       		.byte	0
 13047 0083 00       		.byte	0
 13048 0084 00       		.byte	0
 13049 0085 00       		.byte	0
 13050 0086 00       		.byte	0
 13051 0087 00       		.byte	0
 13052 0088 00       		.byte	0
 13053 0089 00       		.byte	0
 13054 008a 00       		.byte	0
 13055 008b 00       		.byte	0
 13056 008c 00       		.byte	0
 13057 008d 00       		.byte	0
 13058 008e 00       		.byte	0
 13059 008f 00       		.byte	0
 13060 0090 00       		.byte	0
 13061 0091 00       		.byte	0
 13062 0092 00       		.byte	0
 13063 0093 00       		.byte	0
 13064 0094 00       		.byte	0
 13065 0095 00       		.byte	0
 13066 0096 00       		.byte	0
 13067 0097 00       		.byte	0
 13068 0098 07       		.byte	7
ARM GAS  /tmp/cco7znPM.s 			page 280


 13069 0099 F0       		.byte	-16
 13070 009a 00       		.byte	0
 13071 009b C0       		.byte	-64
 13072 009c 07       		.byte	7
 13073 009d FF       		.byte	-1
 13074 009e E1       		.byte	-31
 13075 009f E0       		.byte	-32
 13076 00a0 07       		.byte	7
 13077 00a1 F0       		.byte	-16
 13078 00a2 01       		.byte	1
 13079 00a3 E0       		.byte	-32
 13080 00a4 00       		.byte	0
 13081 00a5 00       		.byte	0
 13082 00a6 00       		.byte	0
 13083 00a7 C0       		.byte	-64
 13084 00a8 00       		.byte	0
 13085 00a9 00       		.byte	0
 13086 00aa 00       		.byte	0
 13087 00ab 00       		.byte	0
 13088 00ac 00       		.byte	0
 13089 00ad 00       		.byte	0
 13090 00ae 00       		.byte	0
 13091 00af 00       		.byte	0
 13092 00b0 00       		.byte	0
 13093 00b1 00       		.byte	0
 13094 00b2 00       		.byte	0
 13095 00b3 00       		.byte	0
 13096 00b4 00       		.byte	0
 13097 00b5 00       		.byte	0
 13098 00b6 00       		.byte	0
 13099 00b7 00       		.byte	0
 13100 00b8 00       		.byte	0
 13101 00b9 00       		.byte	0
 13102 00ba 00       		.byte	0
 13103 00bb 00       		.byte	0
 13104 00bc 00       		.byte	0
 13105 00bd 00       		.byte	0
 13106 00be 00       		.byte	0
 13107 00bf 00       		.byte	0
 13108 00c0 00000000 		.space	64
 13108      00000000 
 13108      00000000 
 13108      00000000 
 13108      00000000 
 13109 0100 00       		.byte	0
 13110 0101 00       		.byte	0
 13111 0102 00       		.byte	0
 13112 0103 00       		.byte	0
 13113 0104 00       		.byte	0
 13114 0105 00       		.byte	0
 13115 0106 00       		.byte	0
 13116 0107 00       		.byte	0
 13117 0108 00       		.byte	0
 13118 0109 20       		.byte	32
 13119 010a 00       		.byte	0
 13120 010b 00       		.byte	0
 13121 010c 01       		.byte	1
ARM GAS  /tmp/cco7znPM.s 			page 281


 13122 010d C0       		.byte	-64
 13123 010e 00       		.byte	0
 13124 010f 00       		.byte	0
 13125 0110 07       		.byte	7
 13126 0111 80       		.byte	-128
 13127 0112 00       		.byte	0
 13128 0113 00       		.byte	0
 13129 0114 1F       		.byte	31
 13130 0115 00       		.byte	0
 13131 0116 00       		.byte	0
 13132 0117 00       		.byte	0
 13133 0118 1E       		.byte	30
 13134 0119 00       		.byte	0
 13135 011a 00       		.byte	0
 13136 011b 00       		.byte	0
 13137 011c 1C       		.byte	28
 13138 011d 20       		.byte	32
 13139 011e 00       		.byte	0
 13140 011f 00       		.byte	0
 13141 0120 01       		.byte	1
 13142 0121 C0       		.byte	-64
 13143 0122 00       		.byte	0
 13144 0123 00       		.byte	0
 13145 0124 07       		.byte	7
 13146 0125 80       		.byte	-128
 13147 0126 00       		.byte	0
 13148 0127 00       		.byte	0
 13149 0128 1F       		.byte	31
 13150 0129 00       		.byte	0
 13151 012a 00       		.byte	0
 13152 012b 00       		.byte	0
 13153 012c 1E       		.byte	30
 13154 012d 00       		.byte	0
 13155 012e 00       		.byte	0
 13156 012f 00       		.byte	0
 13157 0130 1C       		.byte	28
 13158 0131 00       		.byte	0
 13159 0132 00       		.byte	0
 13160 0133 00       		.byte	0
 13161 0134 00       		.byte	0
 13162 0135 00       		.byte	0
 13163 0136 00       		.byte	0
 13164 0137 00       		.byte	0
 13165 0138 00       		.byte	0
 13166 0139 00       		.byte	0
 13167 013a 00       		.byte	0
 13168 013b 00       		.byte	0
 13169 013c 00       		.byte	0
 13170 013d 00       		.byte	0
 13171 013e 00       		.byte	0
 13172 013f 00       		.byte	0
 13173 0140 00000000 		.space	64
 13173      00000000 
 13173      00000000 
 13173      00000000 
 13173      00000000 
 13174 0180 00       		.byte	0
ARM GAS  /tmp/cco7znPM.s 			page 282


 13175 0181 00       		.byte	0
 13176 0182 00       		.byte	0
 13177 0183 00       		.byte	0
 13178 0184 00       		.byte	0
 13179 0185 18       		.byte	24
 13180 0186 0C       		.byte	12
 13181 0187 00       		.byte	0
 13182 0188 00       		.byte	0
 13183 0189 18       		.byte	24
 13184 018a 0C       		.byte	12
 13185 018b 00       		.byte	0
 13186 018c 00       		.byte	0
 13187 018d 18       		.byte	24
 13188 018e 0F       		.byte	15
 13189 018f E0       		.byte	-32
 13190 0190 00       		.byte	0
 13191 0191 1F       		.byte	31
 13192 0192 FC       		.byte	-4
 13193 0193 00       		.byte	0
 13194 0194 03       		.byte	3
 13195 0195 F8       		.byte	-8
 13196 0196 0C       		.byte	12
 13197 0197 00       		.byte	0
 13198 0198 00       		.byte	0
 13199 0199 18       		.byte	24
 13200 019a 0C       		.byte	12
 13201 019b 00       		.byte	0
 13202 019c 00       		.byte	0
 13203 019d 18       		.byte	24
 13204 019e 0C       		.byte	12
 13205 019f 00       		.byte	0
 13206 01a0 00       		.byte	0
 13207 01a1 18       		.byte	24
 13208 01a2 0C       		.byte	12
 13209 01a3 00       		.byte	0
 13210 01a4 00       		.byte	0
 13211 01a5 18       		.byte	24
 13212 01a6 0C       		.byte	12
 13213 01a7 00       		.byte	0
 13214 01a8 00       		.byte	0
 13215 01a9 18       		.byte	24
 13216 01aa 0F       		.byte	15
 13217 01ab E0       		.byte	-32
 13218 01ac 00       		.byte	0
 13219 01ad 1F       		.byte	31
 13220 01ae FC       		.byte	-4
 13221 01af 00       		.byte	0
 13222 01b0 03       		.byte	3
 13223 01b1 F8       		.byte	-8
 13224 01b2 0C       		.byte	12
 13225 01b3 00       		.byte	0
 13226 01b4 00       		.byte	0
 13227 01b5 18       		.byte	24
 13228 01b6 0C       		.byte	12
 13229 01b7 00       		.byte	0
 13230 01b8 00       		.byte	0
 13231 01b9 18       		.byte	24
ARM GAS  /tmp/cco7znPM.s 			page 283


 13232 01ba 0C       		.byte	12
 13233 01bb 00       		.byte	0
 13234 01bc 00       		.byte	0
 13235 01bd 00       		.byte	0
 13236 01be 00       		.byte	0
 13237 01bf 00       		.byte	0
 13238 01c0 00000000 		.space	64
 13238      00000000 
 13238      00000000 
 13238      00000000 
 13238      00000000 
 13239 0200 00       		.byte	0
 13240 0201 00       		.byte	0
 13241 0202 00       		.byte	0
 13242 0203 00       		.byte	0
 13243 0204 00       		.byte	0
 13244 0205 00       		.byte	0
 13245 0206 00       		.byte	0
 13246 0207 00       		.byte	0
 13247 0208 00       		.byte	0
 13248 0209 00       		.byte	0
 13249 020a 07       		.byte	7
 13250 020b 80       		.byte	-128
 13251 020c 00       		.byte	0
 13252 020d 78       		.byte	120
 13253 020e 07       		.byte	7
 13254 020f C0       		.byte	-64
 13255 0210 00       		.byte	0
 13256 0211 FC       		.byte	-4
 13257 0212 06       		.byte	6
 13258 0213 40       		.byte	64
 13259 0214 01       		.byte	1
 13260 0215 0E       		.byte	14
 13261 0216 00       		.byte	0
 13262 0217 20       		.byte	32
 13263 0218 03       		.byte	3
 13264 0219 07       		.byte	7
 13265 021a 00       		.byte	0
 13266 021b 20       		.byte	32
 13267 021c 02       		.byte	2
 13268 021d 03       		.byte	3
 13269 021e 80       		.byte	-128
 13270 021f 20       		.byte	32
 13271 0220 0F       		.byte	15
 13272 0221 FF       		.byte	-1
 13273 0222 FF       		.byte	-1
 13274 0223 FC       		.byte	-4
 13275 0224 02       		.byte	2
 13276 0225 01       		.byte	1
 13277 0226 C0       		.byte	-64
 13278 0227 20       		.byte	32
 13279 0228 02       		.byte	2
 13280 0229 00       		.byte	0
 13281 022a E0       		.byte	-32
 13282 022b 60       		.byte	96
 13283 022c 01       		.byte	1
 13284 022d 30       		.byte	48
ARM GAS  /tmp/cco7znPM.s 			page 284


 13285 022e 70       		.byte	112
 13286 022f 40       		.byte	64
 13287 0230 01       		.byte	1
 13288 0231 F0       		.byte	-16
 13289 0232 3F       		.byte	63
 13290 0233 80       		.byte	-128
 13291 0234 00       		.byte	0
 13292 0235 F0       		.byte	-16
 13293 0236 1F       		.byte	31
 13294 0237 00       		.byte	0
 13295 0238 00       		.byte	0
 13296 0239 00       		.byte	0
 13297 023a 00       		.byte	0
 13298 023b 00       		.byte	0
 13299 023c 00       		.byte	0
 13300 023d 00       		.byte	0
 13301 023e 00       		.byte	0
 13302 023f 00       		.byte	0
 13303 0240 00000000 		.space	64
 13303      00000000 
 13303      00000000 
 13303      00000000 
 13303      00000000 
 13304 0280 00       		.byte	0
 13305 0281 FE       		.byte	-2
 13306 0282 00       		.byte	0
 13307 0283 00       		.byte	0
 13308 0284 01       		.byte	1
 13309 0285 FF       		.byte	-1
 13310 0286 00       		.byte	0
 13311 0287 00       		.byte	0
 13312 0288 03       		.byte	3
 13313 0289 01       		.byte	1
 13314 028a 80       		.byte	-128
 13315 028b 00       		.byte	0
 13316 028c 02       		.byte	2
 13317 028d 00       		.byte	0
 13318 028e 80       		.byte	-128
 13319 028f 60       		.byte	96
 13320 0290 03       		.byte	3
 13321 0291 01       		.byte	1
 13322 0292 81       		.byte	-127
 13323 0293 C0       		.byte	-64
 13324 0294 01       		.byte	1
 13325 0295 FF       		.byte	-1
 13326 0296 07       		.byte	7
 13327 0297 00       		.byte	0
 13328 0298 00       		.byte	0
 13329 0299 FE       		.byte	-2
 13330 029a 18       		.byte	24
 13331 029b 00       		.byte	0
 13332 029c 00       		.byte	0
 13333 029d 00       		.byte	0
 13334 029e E0       		.byte	-32
 13335 029f 00       		.byte	0
 13336 02a0 00       		.byte	0
 13337 02a1 03       		.byte	3
ARM GAS  /tmp/cco7znPM.s 			page 285


 13338 02a2 BF       		.byte	-65
 13339 02a3 00       		.byte	0
 13340 02a4 00       		.byte	0
 13341 02a5 0C       		.byte	12
 13342 02a6 FF       		.byte	-1
 13343 02a7 C0       		.byte	-64
 13344 02a8 00       		.byte	0
 13345 02a9 71       		.byte	113
 13346 02aa 80       		.byte	-128
 13347 02ab 60       		.byte	96
 13348 02ac 01       		.byte	1
 13349 02ad C1       		.byte	-63
 13350 02ae 00       		.byte	0
 13351 02af 20       		.byte	32
 13352 02b0 03       		.byte	3
 13353 02b1 01       		.byte	1
 13354 02b2 80       		.byte	-128
 13355 02b3 60       		.byte	96
 13356 02b4 00       		.byte	0
 13357 02b5 00       		.byte	0
 13358 02b6 FF       		.byte	-1
 13359 02b7 C0       		.byte	-64
 13360 02b8 00       		.byte	0
 13361 02b9 00       		.byte	0
 13362 02ba 3F       		.byte	63
 13363 02bb 00       		.byte	0
 13364 02bc 00       		.byte	0
 13365 02bd 00       		.byte	0
 13366 02be 00       		.byte	0
 13367 02bf 00       		.byte	0
 13368 02c0 00000000 		.space	64
 13368      00000000 
 13368      00000000 
 13368      00000000 
 13368      00000000 
 13369 0300 00       		.byte	0
 13370 0301 00       		.byte	0
 13371 0302 1F       		.byte	31
 13372 0303 00       		.byte	0
 13373 0304 00       		.byte	0
 13374 0305 00       		.byte	0
 13375 0306 7F       		.byte	127
 13376 0307 C0       		.byte	-64
 13377 0308 00       		.byte	0
 13378 0309 FC       		.byte	-4
 13379 030a C0       		.byte	-64
 13380 030b C0       		.byte	-64
 13381 030c 01       		.byte	1
 13382 030d FF       		.byte	-1
 13383 030e 80       		.byte	-128
 13384 030f 60       		.byte	96
 13385 0310 03       		.byte	3
 13386 0311 03       		.byte	3
 13387 0312 E0       		.byte	-32
 13388 0313 20       		.byte	32
 13389 0314 02       		.byte	2
 13390 0315 02       		.byte	2
ARM GAS  /tmp/cco7znPM.s 			page 286


 13391 0316 78       		.byte	120
 13392 0317 20       		.byte	32
 13393 0318 02       		.byte	2
 13394 0319 06       		.byte	6
 13395 031a 1E       		.byte	30
 13396 031b 20       		.byte	32
 13397 031c 03       		.byte	3
 13398 031d FC       		.byte	-4
 13399 031e 07       		.byte	7
 13400 031f 40       		.byte	64
 13401 0320 01       		.byte	1
 13402 0321 F0       		.byte	-16
 13403 0322 03       		.byte	3
 13404 0323 80       		.byte	-128
 13405 0324 00       		.byte	0
 13406 0325 01       		.byte	1
 13407 0326 03       		.byte	3
 13408 0327 C0       		.byte	-64
 13409 0328 00       		.byte	0
 13410 0329 01       		.byte	1
 13411 032a 1C       		.byte	28
 13412 032b 60       		.byte	96
 13413 032c 00       		.byte	0
 13414 032d 01       		.byte	1
 13415 032e E0       		.byte	-32
 13416 032f 20       		.byte	32
 13417 0330 00       		.byte	0
 13418 0331 01       		.byte	1
 13419 0332 00       		.byte	0
 13420 0333 20       		.byte	32
 13421 0334 00       		.byte	0
 13422 0335 01       		.byte	1
 13423 0336 00       		.byte	0
 13424 0337 40       		.byte	64
 13425 0338 00       		.byte	0
 13426 0339 00       		.byte	0
 13427 033a 01       		.byte	1
 13428 033b 80       		.byte	-128
 13429 033c 00       		.byte	0
 13430 033d 00       		.byte	0
 13431 033e 00       		.byte	0
 13432 033f 00       		.byte	0
 13433 0340 00000000 		.space	64
 13433      00000000 
 13433      00000000 
 13433      00000000 
 13433      00000000 
 13434 0380 00       		.byte	0
 13435 0381 00       		.byte	0
 13436 0382 00       		.byte	0
 13437 0383 00       		.byte	0
 13438 0384 00       		.byte	0
 13439 0385 20       		.byte	32
 13440 0386 00       		.byte	0
 13441 0387 00       		.byte	0
 13442 0388 1C       		.byte	28
 13443 0389 60       		.byte	96
ARM GAS  /tmp/cco7znPM.s 			page 287


 13444 038a 00       		.byte	0
 13445 038b 00       		.byte	0
 13446 038c 1C       		.byte	28
 13447 038d 40       		.byte	64
 13448 038e 00       		.byte	0
 13449 038f 00       		.byte	0
 13450 0390 1F       		.byte	31
 13451 0391 80       		.byte	-128
 13452 0392 00       		.byte	0
 13453 0393 00       		.byte	0
 13454 0394 0F       		.byte	15
 13455 0395 00       		.byte	0
 13456 0396 00       		.byte	0
 13457 0397 00       		.byte	0
 13458 0398 00       		.byte	0
 13459 0399 00       		.byte	0
 13460 039a 00       		.byte	0
 13461 039b 00       		.byte	0
 13462 039c 00       		.byte	0
 13463 039d 00       		.byte	0
 13464 039e 00       		.byte	0
 13465 039f 00       		.byte	0
 13466 03a0 00       		.byte	0
 13467 03a1 00       		.byte	0
 13468 03a2 00       		.byte	0
 13469 03a3 00       		.byte	0
 13470 03a4 00       		.byte	0
 13471 03a5 00       		.byte	0
 13472 03a6 00       		.byte	0
 13473 03a7 00       		.byte	0
 13474 03a8 00       		.byte	0
 13475 03a9 00       		.byte	0
 13476 03aa 00       		.byte	0
 13477 03ab 00       		.byte	0
 13478 03ac 00       		.byte	0
 13479 03ad 00       		.byte	0
 13480 03ae 00       		.byte	0
 13481 03af 00       		.byte	0
 13482 03b0 00       		.byte	0
 13483 03b1 00       		.byte	0
 13484 03b2 00       		.byte	0
 13485 03b3 00       		.byte	0
 13486 03b4 00       		.byte	0
 13487 03b5 00       		.byte	0
 13488 03b6 00       		.byte	0
 13489 03b7 00       		.byte	0
 13490 03b8 00       		.byte	0
 13491 03b9 00       		.byte	0
 13492 03ba 00       		.byte	0
 13493 03bb 00       		.byte	0
 13494 03bc 00       		.byte	0
 13495 03bd 00       		.byte	0
 13496 03be 00       		.byte	0
 13497 03bf 00       		.byte	0
 13498 03c0 00000000 		.space	64
 13498      00000000 
 13498      00000000 
ARM GAS  /tmp/cco7znPM.s 			page 288


 13498      00000000 
 13498      00000000 
 13499 0400 00       		.byte	0
 13500 0401 00       		.byte	0
 13501 0402 00       		.byte	0
 13502 0403 00       		.byte	0
 13503 0404 00       		.byte	0
 13504 0405 00       		.byte	0
 13505 0406 00       		.byte	0
 13506 0407 00       		.byte	0
 13507 0408 00       		.byte	0
 13508 0409 00       		.byte	0
 13509 040a 00       		.byte	0
 13510 040b 00       		.byte	0
 13511 040c 00       		.byte	0
 13512 040d 00       		.byte	0
 13513 040e 00       		.byte	0
 13514 040f 00       		.byte	0
 13515 0410 00       		.byte	0
 13516 0411 00       		.byte	0
 13517 0412 00       		.byte	0
 13518 0413 00       		.byte	0
 13519 0414 00       		.byte	0
 13520 0415 00       		.byte	0
 13521 0416 00       		.byte	0
 13522 0417 00       		.byte	0
 13523 0418 00       		.byte	0
 13524 0419 00       		.byte	0
 13525 041a 00       		.byte	0
 13526 041b 00       		.byte	0
 13527 041c 00       		.byte	0
 13528 041d 07       		.byte	7
 13529 041e F8       		.byte	-8
 13530 041f 00       		.byte	0
 13531 0420 00       		.byte	0
 13532 0421 3F       		.byte	63
 13533 0422 FF       		.byte	-1
 13534 0423 00       		.byte	0
 13535 0424 00       		.byte	0
 13536 0425 78       		.byte	120
 13537 0426 07       		.byte	7
 13538 0427 C0       		.byte	-64
 13539 0428 01       		.byte	1
 13540 0429 C0       		.byte	-64
 13541 042a 00       		.byte	0
 13542 042b E0       		.byte	-32
 13543 042c 03       		.byte	3
 13544 042d 00       		.byte	0
 13545 042e 00       		.byte	0
 13546 042f 30       		.byte	48
 13547 0430 04       		.byte	4
 13548 0431 00       		.byte	0
 13549 0432 00       		.byte	0
 13550 0433 08       		.byte	8
 13551 0434 08       		.byte	8
 13552 0435 00       		.byte	0
 13553 0436 00       		.byte	0
ARM GAS  /tmp/cco7znPM.s 			page 289


 13554 0437 04       		.byte	4
 13555 0438 10       		.byte	16
 13556 0439 00       		.byte	0
 13557 043a 00       		.byte	0
 13558 043b 02       		.byte	2
 13559 043c 00       		.byte	0
 13560 043d 00       		.byte	0
 13561 043e 00       		.byte	0
 13562 043f 00       		.byte	0
 13563 0440 00000000 		.space	64
 13563      00000000 
 13563      00000000 
 13563      00000000 
 13563      00000000 
 13564 0480 00       		.byte	0
 13565 0481 00       		.byte	0
 13566 0482 00       		.byte	0
 13567 0483 00       		.byte	0
 13568 0484 10       		.byte	16
 13569 0485 00       		.byte	0
 13570 0486 00       		.byte	0
 13571 0487 02       		.byte	2
 13572 0488 08       		.byte	8
 13573 0489 00       		.byte	0
 13574 048a 00       		.byte	0
 13575 048b 04       		.byte	4
 13576 048c 04       		.byte	4
 13577 048d 00       		.byte	0
 13578 048e 00       		.byte	0
 13579 048f 08       		.byte	8
 13580 0490 03       		.byte	3
 13581 0491 00       		.byte	0
 13582 0492 00       		.byte	0
 13583 0493 30       		.byte	48
 13584 0494 01       		.byte	1
 13585 0495 C0       		.byte	-64
 13586 0496 00       		.byte	0
 13587 0497 E0       		.byte	-32
 13588 0498 00       		.byte	0
 13589 0499 78       		.byte	120
 13590 049a 07       		.byte	7
 13591 049b C0       		.byte	-64
 13592 049c 00       		.byte	0
 13593 049d 3F       		.byte	63
 13594 049e FF       		.byte	-1
 13595 049f 00       		.byte	0
 13596 04a0 00       		.byte	0
 13597 04a1 07       		.byte	7
 13598 04a2 F8       		.byte	-8
 13599 04a3 00       		.byte	0
 13600 04a4 00       		.byte	0
 13601 04a5 00       		.byte	0
 13602 04a6 00       		.byte	0
 13603 04a7 00       		.byte	0
 13604 04a8 00       		.byte	0
 13605 04a9 00       		.byte	0
 13606 04aa 00       		.byte	0
ARM GAS  /tmp/cco7znPM.s 			page 290


 13607 04ab 00       		.byte	0
 13608 04ac 00       		.byte	0
 13609 04ad 00       		.byte	0
 13610 04ae 00       		.byte	0
 13611 04af 00       		.byte	0
 13612 04b0 00       		.byte	0
 13613 04b1 00       		.byte	0
 13614 04b2 00       		.byte	0
 13615 04b3 00       		.byte	0
 13616 04b4 00       		.byte	0
 13617 04b5 00       		.byte	0
 13618 04b6 00       		.byte	0
 13619 04b7 00       		.byte	0
 13620 04b8 00       		.byte	0
 13621 04b9 00       		.byte	0
 13622 04ba 00       		.byte	0
 13623 04bb 00       		.byte	0
 13624 04bc 00       		.byte	0
 13625 04bd 00       		.byte	0
 13626 04be 00       		.byte	0
 13627 04bf 00       		.byte	0
 13628 04c0 00000000 		.space	64
 13628      00000000 
 13628      00000000 
 13628      00000000 
 13628      00000000 
 13629 0500 00       		.byte	0
 13630 0501 00       		.byte	0
 13631 0502 00       		.byte	0
 13632 0503 00       		.byte	0
 13633 0504 00       		.byte	0
 13634 0505 00       		.byte	0
 13635 0506 00       		.byte	0
 13636 0507 00       		.byte	0
 13637 0508 00       		.byte	0
 13638 0509 0C       		.byte	12
 13639 050a 18       		.byte	24
 13640 050b 00       		.byte	0
 13641 050c 00       		.byte	0
 13642 050d 0E       		.byte	14
 13643 050e 38       		.byte	56
 13644 050f 00       		.byte	0
 13645 0510 00       		.byte	0
 13646 0511 0E       		.byte	14
 13647 0512 38       		.byte	56
 13648 0513 00       		.byte	0
 13649 0514 00       		.byte	0
 13650 0515 06       		.byte	6
 13651 0516 30       		.byte	48
 13652 0517 00       		.byte	0
 13653 0518 00       		.byte	0
 13654 0519 03       		.byte	3
 13655 051a 60       		.byte	96
 13656 051b 00       		.byte	0
 13657 051c 00       		.byte	0
 13658 051d 61       		.byte	97
 13659 051e 43       		.byte	67
ARM GAS  /tmp/cco7znPM.s 			page 291


 13660 051f 80       		.byte	-128
 13661 0520 00       		.byte	0
 13662 0521 FF       		.byte	-1
 13663 0522 FF       		.byte	-1
 13664 0523 80       		.byte	-128
 13665 0524 00       		.byte	0
 13666 0525 61       		.byte	97
 13667 0526 43       		.byte	67
 13668 0527 00       		.byte	0
 13669 0528 00       		.byte	0
 13670 0529 03       		.byte	3
 13671 052a 60       		.byte	96
 13672 052b 00       		.byte	0
 13673 052c 00       		.byte	0
 13674 052d 06       		.byte	6
 13675 052e 30       		.byte	48
 13676 052f 00       		.byte	0
 13677 0530 00       		.byte	0
 13678 0531 0E       		.byte	14
 13679 0532 38       		.byte	56
 13680 0533 00       		.byte	0
 13681 0534 00       		.byte	0
 13682 0535 0E       		.byte	14
 13683 0536 38       		.byte	56
 13684 0537 00       		.byte	0
 13685 0538 00       		.byte	0
 13686 0539 0C       		.byte	12
 13687 053a 18       		.byte	24
 13688 053b 00       		.byte	0
 13689 053c 00       		.byte	0
 13690 053d 00       		.byte	0
 13691 053e 00       		.byte	0
 13692 053f 00       		.byte	0
 13693 0540 00000000 		.space	64
 13693      00000000 
 13693      00000000 
 13693      00000000 
 13693      00000000 
 13694 0580 00       		.byte	0
 13695 0581 00       		.byte	0
 13696 0582 00       		.byte	0
 13697 0583 00       		.byte	0
 13698 0584 00       		.byte	0
 13699 0585 00       		.byte	0
 13700 0586 00       		.byte	0
 13701 0587 00       		.byte	0
 13702 0588 00       		.byte	0
 13703 0589 00       		.byte	0
 13704 058a 80       		.byte	-128
 13705 058b 00       		.byte	0
 13706 058c 00       		.byte	0
 13707 058d 00       		.byte	0
 13708 058e 80       		.byte	-128
 13709 058f 00       		.byte	0
 13710 0590 00       		.byte	0
 13711 0591 00       		.byte	0
 13712 0592 80       		.byte	-128
ARM GAS  /tmp/cco7znPM.s 			page 292


 13713 0593 00       		.byte	0
 13714 0594 00       		.byte	0
 13715 0595 00       		.byte	0
 13716 0596 80       		.byte	-128
 13717 0597 00       		.byte	0
 13718 0598 00       		.byte	0
 13719 0599 00       		.byte	0
 13720 059a 80       		.byte	-128
 13721 059b 00       		.byte	0
 13722 059c 00       		.byte	0
 13723 059d 00       		.byte	0
 13724 059e 80       		.byte	-128
 13725 059f 00       		.byte	0
 13726 05a0 00       		.byte	0
 13727 05a1 7F       		.byte	127
 13728 05a2 FF       		.byte	-1
 13729 05a3 00       		.byte	0
 13730 05a4 00       		.byte	0
 13731 05a5 00       		.byte	0
 13732 05a6 80       		.byte	-128
 13733 05a7 00       		.byte	0
 13734 05a8 00       		.byte	0
 13735 05a9 00       		.byte	0
 13736 05aa 80       		.byte	-128
 13737 05ab 00       		.byte	0
 13738 05ac 00       		.byte	0
 13739 05ad 00       		.byte	0
 13740 05ae 80       		.byte	-128
 13741 05af 00       		.byte	0
 13742 05b0 00       		.byte	0
 13743 05b1 00       		.byte	0
 13744 05b2 80       		.byte	-128
 13745 05b3 00       		.byte	0
 13746 05b4 00       		.byte	0
 13747 05b5 00       		.byte	0
 13748 05b6 80       		.byte	-128
 13749 05b7 00       		.byte	0
 13750 05b8 00       		.byte	0
 13751 05b9 00       		.byte	0
 13752 05ba 80       		.byte	-128
 13753 05bb 00       		.byte	0
 13754 05bc 00       		.byte	0
 13755 05bd 00       		.byte	0
 13756 05be 00       		.byte	0
 13757 05bf 00       		.byte	0
 13758 05c0 00000000 		.space	64
 13758      00000000 
 13758      00000000 
 13758      00000000 
 13758      00000000 
 13759 0600 00       		.byte	0
 13760 0601 00       		.byte	0
 13761 0602 00       		.byte	0
 13762 0603 00       		.byte	0
 13763 0604 00       		.byte	0
 13764 0605 00       		.byte	0
 13765 0606 00       		.byte	0
ARM GAS  /tmp/cco7znPM.s 			page 293


 13766 0607 01       		.byte	1
 13767 0608 00       		.byte	0
 13768 0609 00       		.byte	0
 13769 060a 00       		.byte	0
 13770 060b E3       		.byte	-29
 13771 060c 00       		.byte	0
 13772 060d 00       		.byte	0
 13773 060e 00       		.byte	0
 13774 060f E2       		.byte	-30
 13775 0610 00       		.byte	0
 13776 0611 00       		.byte	0
 13777 0612 00       		.byte	0
 13778 0613 FC       		.byte	-4
 13779 0614 00       		.byte	0
 13780 0615 00       		.byte	0
 13781 0616 00       		.byte	0
 13782 0617 78       		.byte	120
 13783 0618 00       		.byte	0
 13784 0619 00       		.byte	0
 13785 061a 00       		.byte	0
 13786 061b 00       		.byte	0
 13787 061c 00       		.byte	0
 13788 061d 00       		.byte	0
 13789 061e 00       		.byte	0
 13790 061f 00       		.byte	0
 13791 0620 00       		.byte	0
 13792 0621 00       		.byte	0
 13793 0622 00       		.byte	0
 13794 0623 00       		.byte	0
 13795 0624 00       		.byte	0
 13796 0625 00       		.byte	0
 13797 0626 00       		.byte	0
 13798 0627 00       		.byte	0
 13799 0628 00       		.byte	0
 13800 0629 00       		.byte	0
 13801 062a 00       		.byte	0
 13802 062b 00       		.byte	0
 13803 062c 00       		.byte	0
 13804 062d 00       		.byte	0
 13805 062e 00       		.byte	0
 13806 062f 00       		.byte	0
 13807 0630 00       		.byte	0
 13808 0631 00       		.byte	0
 13809 0632 00       		.byte	0
 13810 0633 00       		.byte	0
 13811 0634 00       		.byte	0
 13812 0635 00       		.byte	0
 13813 0636 00       		.byte	0
 13814 0637 00       		.byte	0
 13815 0638 00       		.byte	0
 13816 0639 00       		.byte	0
 13817 063a 00       		.byte	0
 13818 063b 00       		.byte	0
 13819 063c 00       		.byte	0
 13820 063d 00       		.byte	0
 13821 063e 00       		.byte	0
 13822 063f 00       		.byte	0
ARM GAS  /tmp/cco7znPM.s 			page 294


 13823 0640 00000000 		.space	64
 13823      00000000 
 13823      00000000 
 13823      00000000 
 13823      00000000 
 13824 0680 00       		.byte	0
 13825 0681 00       		.byte	0
 13826 0682 00       		.byte	0
 13827 0683 00       		.byte	0
 13828 0684 00       		.byte	0
 13829 0685 00       		.byte	0
 13830 0686 80       		.byte	-128
 13831 0687 00       		.byte	0
 13832 0688 00       		.byte	0
 13833 0689 00       		.byte	0
 13834 068a 80       		.byte	-128
 13835 068b 00       		.byte	0
 13836 068c 00       		.byte	0
 13837 068d 00       		.byte	0
 13838 068e 80       		.byte	-128
 13839 068f 00       		.byte	0
 13840 0690 00       		.byte	0
 13841 0691 00       		.byte	0
 13842 0692 80       		.byte	-128
 13843 0693 00       		.byte	0
 13844 0694 00       		.byte	0
 13845 0695 00       		.byte	0
 13846 0696 80       		.byte	-128
 13847 0697 00       		.byte	0
 13848 0698 00       		.byte	0
 13849 0699 00       		.byte	0
 13850 069a 80       		.byte	-128
 13851 069b 00       		.byte	0
 13852 069c 00       		.byte	0
 13853 069d 00       		.byte	0
 13854 069e 80       		.byte	-128
 13855 069f 00       		.byte	0
 13856 06a0 00       		.byte	0
 13857 06a1 00       		.byte	0
 13858 06a2 80       		.byte	-128
 13859 06a3 00       		.byte	0
 13860 06a4 00       		.byte	0
 13861 06a5 00       		.byte	0
 13862 06a6 80       		.byte	-128
 13863 06a7 00       		.byte	0
 13864 06a8 00       		.byte	0
 13865 06a9 00       		.byte	0
 13866 06aa 80       		.byte	-128
 13867 06ab 00       		.byte	0
 13868 06ac 00       		.byte	0
 13869 06ad 00       		.byte	0
 13870 06ae 80       		.byte	-128
 13871 06af 00       		.byte	0
 13872 06b0 00       		.byte	0
 13873 06b1 00       		.byte	0
 13874 06b2 80       		.byte	-128
 13875 06b3 00       		.byte	0
ARM GAS  /tmp/cco7znPM.s 			page 295


 13876 06b4 00       		.byte	0
 13877 06b5 00       		.byte	0
 13878 06b6 80       		.byte	-128
 13879 06b7 00       		.byte	0
 13880 06b8 00       		.byte	0
 13881 06b9 00       		.byte	0
 13882 06ba 80       		.byte	-128
 13883 06bb 00       		.byte	0
 13884 06bc 00       		.byte	0
 13885 06bd 00       		.byte	0
 13886 06be 00       		.byte	0
 13887 06bf 00       		.byte	0
 13888 06c0 00000000 		.space	64
 13888      00000000 
 13888      00000000 
 13888      00000000 
 13888      00000000 
 13889 0700 00       		.byte	0
 13890 0701 00       		.byte	0
 13891 0702 00       		.byte	0
 13892 0703 00       		.byte	0
 13893 0704 00       		.byte	0
 13894 0705 00       		.byte	0
 13895 0706 00       		.byte	0
 13896 0707 00       		.byte	0
 13897 0708 00       		.byte	0
 13898 0709 00       		.byte	0
 13899 070a 00       		.byte	0
 13900 070b C0       		.byte	-64
 13901 070c 00       		.byte	0
 13902 070d 00       		.byte	0
 13903 070e 01       		.byte	1
 13904 070f E0       		.byte	-32
 13905 0710 00       		.byte	0
 13906 0711 00       		.byte	0
 13907 0712 01       		.byte	1
 13908 0713 E0       		.byte	-32
 13909 0714 00       		.byte	0
 13910 0715 00       		.byte	0
 13911 0716 00       		.byte	0
 13912 0717 C0       		.byte	-64
 13913 0718 00       		.byte	0
 13914 0719 00       		.byte	0
 13915 071a 00       		.byte	0
 13916 071b 00       		.byte	0
 13917 071c 00       		.byte	0
 13918 071d 00       		.byte	0
 13919 071e 00       		.byte	0
 13920 071f 00       		.byte	0
 13921 0720 00       		.byte	0
 13922 0721 00       		.byte	0
 13923 0722 00       		.byte	0
 13924 0723 00       		.byte	0
 13925 0724 00       		.byte	0
 13926 0725 00       		.byte	0
 13927 0726 00       		.byte	0
 13928 0727 00       		.byte	0
ARM GAS  /tmp/cco7znPM.s 			page 296


 13929 0728 00       		.byte	0
 13930 0729 00       		.byte	0
 13931 072a 00       		.byte	0
 13932 072b 00       		.byte	0
 13933 072c 00       		.byte	0
 13934 072d 00       		.byte	0
 13935 072e 00       		.byte	0
 13936 072f 00       		.byte	0
 13937 0730 00       		.byte	0
 13938 0731 00       		.byte	0
 13939 0732 00       		.byte	0
 13940 0733 00       		.byte	0
 13941 0734 00       		.byte	0
 13942 0735 00       		.byte	0
 13943 0736 00       		.byte	0
 13944 0737 00       		.byte	0
 13945 0738 00       		.byte	0
 13946 0739 00       		.byte	0
 13947 073a 00       		.byte	0
 13948 073b 00       		.byte	0
 13949 073c 00       		.byte	0
 13950 073d 00       		.byte	0
 13951 073e 00       		.byte	0
 13952 073f 00       		.byte	0
 13953 0740 00000000 		.space	64
 13953      00000000 
 13953      00000000 
 13953      00000000 
 13953      00000000 
 13954 0780 00       		.byte	0
 13955 0781 00       		.byte	0
 13956 0782 00       		.byte	0
 13957 0783 00       		.byte	0
 13958 0784 00       		.byte	0
 13959 0785 00       		.byte	0
 13960 0786 00       		.byte	0
 13961 0787 0C       		.byte	12
 13962 0788 00       		.byte	0
 13963 0789 00       		.byte	0
 13964 078a 00       		.byte	0
 13965 078b 38       		.byte	56
 13966 078c 00       		.byte	0
 13967 078d 00       		.byte	0
 13968 078e 00       		.byte	0
 13969 078f E0       		.byte	-32
 13970 0790 00       		.byte	0
 13971 0791 00       		.byte	0
 13972 0792 03       		.byte	3
 13973 0793 80       		.byte	-128
 13974 0794 00       		.byte	0
 13975 0795 00       		.byte	0
 13976 0796 0E       		.byte	14
 13977 0797 00       		.byte	0
 13978 0798 00       		.byte	0
 13979 0799 00       		.byte	0
 13980 079a 38       		.byte	56
 13981 079b 00       		.byte	0
ARM GAS  /tmp/cco7znPM.s 			page 297


 13982 079c 00       		.byte	0
 13983 079d 00       		.byte	0
 13984 079e E0       		.byte	-32
 13985 079f 00       		.byte	0
 13986 07a0 00       		.byte	0
 13987 07a1 03       		.byte	3
 13988 07a2 80       		.byte	-128
 13989 07a3 00       		.byte	0
 13990 07a4 00       		.byte	0
 13991 07a5 0E       		.byte	14
 13992 07a6 00       		.byte	0
 13993 07a7 00       		.byte	0
 13994 07a8 00       		.byte	0
 13995 07a9 38       		.byte	56
 13996 07aa 00       		.byte	0
 13997 07ab 00       		.byte	0
 13998 07ac 00       		.byte	0
 13999 07ad E0       		.byte	-32
 14000 07ae 00       		.byte	0
 14001 07af 00       		.byte	0
 14002 07b0 03       		.byte	3
 14003 07b1 80       		.byte	-128
 14004 07b2 00       		.byte	0
 14005 07b3 00       		.byte	0
 14006 07b4 0E       		.byte	14
 14007 07b5 00       		.byte	0
 14008 07b6 00       		.byte	0
 14009 07b7 00       		.byte	0
 14010 07b8 18       		.byte	24
 14011 07b9 00       		.byte	0
 14012 07ba 00       		.byte	0
 14013 07bb 00       		.byte	0
 14014 07bc 00       		.byte	0
 14015 07bd 00       		.byte	0
 14016 07be 00       		.byte	0
 14017 07bf 00       		.byte	0
 14018 07c0 00000000 		.space	64
 14018      00000000 
 14018      00000000 
 14018      00000000 
 14018      00000000 
 14019 0800 00       		.byte	0
 14020 0801 00       		.byte	0
 14021 0802 00       		.byte	0
 14022 0803 00       		.byte	0
 14023 0804 00       		.byte	0
 14024 0805 00       		.byte	0
 14025 0806 00       		.byte	0
 14026 0807 00       		.byte	0
 14027 0808 00       		.byte	0
 14028 0809 0F       		.byte	15
 14029 080a F8       		.byte	-8
 14030 080b 00       		.byte	0
 14031 080c 00       		.byte	0
 14032 080d 7F       		.byte	127
 14033 080e FF       		.byte	-1
 14034 080f 00       		.byte	0
ARM GAS  /tmp/cco7znPM.s 			page 298


 14035 0810 00       		.byte	0
 14036 0811 F0       		.byte	-16
 14037 0812 07       		.byte	7
 14038 0813 80       		.byte	-128
 14039 0814 01       		.byte	1
 14040 0815 80       		.byte	-128
 14041 0816 00       		.byte	0
 14042 0817 C0       		.byte	-64
 14043 0818 03       		.byte	3
 14044 0819 00       		.byte	0
 14045 081a 00       		.byte	0
 14046 081b 60       		.byte	96
 14047 081c 02       		.byte	2
 14048 081d 00       		.byte	0
 14049 081e 00       		.byte	0
 14050 081f 20       		.byte	32
 14051 0820 02       		.byte	2
 14052 0821 00       		.byte	0
 14053 0822 00       		.byte	0
 14054 0823 20       		.byte	32
 14055 0824 02       		.byte	2
 14056 0825 00       		.byte	0
 14057 0826 00       		.byte	0
 14058 0827 20       		.byte	32
 14059 0828 03       		.byte	3
 14060 0829 00       		.byte	0
 14061 082a 00       		.byte	0
 14062 082b 60       		.byte	96
 14063 082c 01       		.byte	1
 14064 082d 80       		.byte	-128
 14065 082e 00       		.byte	0
 14066 082f C0       		.byte	-64
 14067 0830 00       		.byte	0
 14068 0831 E0       		.byte	-32
 14069 0832 03       		.byte	3
 14070 0833 80       		.byte	-128
 14071 0834 00       		.byte	0
 14072 0835 7F       		.byte	127
 14073 0836 FF       		.byte	-1
 14074 0837 00       		.byte	0
 14075 0838 00       		.byte	0
 14076 0839 0F       		.byte	15
 14077 083a F8       		.byte	-8
 14078 083b 00       		.byte	0
 14079 083c 00       		.byte	0
 14080 083d 00       		.byte	0
 14081 083e 00       		.byte	0
 14082 083f 00       		.byte	0
 14083 0840 00000000 		.space	64
 14083      00000000 
 14083      00000000 
 14083      00000000 
 14083      00000000 
 14084 0880 00       		.byte	0
 14085 0881 00       		.byte	0
 14086 0882 00       		.byte	0
 14087 0883 00       		.byte	0
ARM GAS  /tmp/cco7znPM.s 			page 299


 14088 0884 00       		.byte	0
 14089 0885 00       		.byte	0
 14090 0886 00       		.byte	0
 14091 0887 00       		.byte	0
 14092 0888 00       		.byte	0
 14093 0889 00       		.byte	0
 14094 088a 00       		.byte	0
 14095 088b 00       		.byte	0
 14096 088c 00       		.byte	0
 14097 088d 80       		.byte	-128
 14098 088e 00       		.byte	0
 14099 088f 20       		.byte	32
 14100 0890 00       		.byte	0
 14101 0891 80       		.byte	-128
 14102 0892 00       		.byte	0
 14103 0893 20       		.byte	32
 14104 0894 00       		.byte	0
 14105 0895 80       		.byte	-128
 14106 0896 00       		.byte	0
 14107 0897 20       		.byte	32
 14108 0898 00       		.byte	0
 14109 0899 80       		.byte	-128
 14110 089a 00       		.byte	0
 14111 089b 60       		.byte	96
 14112 089c 01       		.byte	1
 14113 089d FF       		.byte	-1
 14114 089e FF       		.byte	-1
 14115 089f E0       		.byte	-32
 14116 08a0 03       		.byte	3
 14117 08a1 FF       		.byte	-1
 14118 08a2 FF       		.byte	-1
 14119 08a3 E0       		.byte	-32
 14120 08a4 00       		.byte	0
 14121 08a5 00       		.byte	0
 14122 08a6 00       		.byte	0
 14123 08a7 60       		.byte	96
 14124 08a8 00       		.byte	0
 14125 08a9 00       		.byte	0
 14126 08aa 00       		.byte	0
 14127 08ab 20       		.byte	32
 14128 08ac 00       		.byte	0
 14129 08ad 00       		.byte	0
 14130 08ae 00       		.byte	0
 14131 08af 20       		.byte	32
 14132 08b0 00       		.byte	0
 14133 08b1 00       		.byte	0
 14134 08b2 00       		.byte	0
 14135 08b3 20       		.byte	32
 14136 08b4 00       		.byte	0
 14137 08b5 00       		.byte	0
 14138 08b6 00       		.byte	0
 14139 08b7 00       		.byte	0
 14140 08b8 00       		.byte	0
 14141 08b9 00       		.byte	0
 14142 08ba 00       		.byte	0
 14143 08bb 00       		.byte	0
 14144 08bc 00       		.byte	0
ARM GAS  /tmp/cco7znPM.s 			page 300


 14145 08bd 00       		.byte	0
 14146 08be 00       		.byte	0
 14147 08bf 00       		.byte	0
 14148 08c0 00000000 		.space	64
 14148      00000000 
 14148      00000000 
 14148      00000000 
 14148      00000000 
 14149 0900 00       		.byte	0
 14150 0901 00       		.byte	0
 14151 0902 00       		.byte	0
 14152 0903 00       		.byte	0
 14153 0904 00       		.byte	0
 14154 0905 00       		.byte	0
 14155 0906 00       		.byte	0
 14156 0907 00       		.byte	0
 14157 0908 00       		.byte	0
 14158 0909 78       		.byte	120
 14159 090a 00       		.byte	0
 14160 090b E0       		.byte	-32
 14161 090c 00       		.byte	0
 14162 090d 98       		.byte	-104
 14163 090e 01       		.byte	1
 14164 090f 60       		.byte	96
 14165 0910 01       		.byte	1
 14166 0911 00       		.byte	0
 14167 0912 02       		.byte	2
 14168 0913 60       		.byte	96
 14169 0914 02       		.byte	2
 14170 0915 00       		.byte	0
 14171 0916 04       		.byte	4
 14172 0917 60       		.byte	96
 14173 0918 02       		.byte	2
 14174 0919 00       		.byte	0
 14175 091a 08       		.byte	8
 14176 091b 60       		.byte	96
 14177 091c 02       		.byte	2
 14178 091d 00       		.byte	0
 14179 091e 10       		.byte	16
 14180 091f 60       		.byte	96
 14181 0920 02       		.byte	2
 14182 0921 00       		.byte	0
 14183 0922 20       		.byte	32
 14184 0923 60       		.byte	96
 14185 0924 02       		.byte	2
 14186 0925 00       		.byte	0
 14187 0926 40       		.byte	64
 14188 0927 60       		.byte	96
 14189 0928 03       		.byte	3
 14190 0929 00       		.byte	0
 14191 092a 80       		.byte	-128
 14192 092b 60       		.byte	96
 14193 092c 01       		.byte	1
 14194 092d 83       		.byte	-125
 14195 092e 00       		.byte	0
 14196 092f 60       		.byte	96
 14197 0930 01       		.byte	1
ARM GAS  /tmp/cco7znPM.s 			page 301


 14198 0931 FE       		.byte	-2
 14199 0932 00       		.byte	0
 14200 0933 E0       		.byte	-32
 14201 0934 00       		.byte	0
 14202 0935 7C       		.byte	124
 14203 0936 07       		.byte	7
 14204 0937 80       		.byte	-128
 14205 0938 00       		.byte	0
 14206 0939 00       		.byte	0
 14207 093a 00       		.byte	0
 14208 093b 00       		.byte	0
 14209 093c 00       		.byte	0
 14210 093d 00       		.byte	0
 14211 093e 00       		.byte	0
 14212 093f 00       		.byte	0
 14213 0940 00000000 		.space	64
 14213      00000000 
 14213      00000000 
 14213      00000000 
 14213      00000000 
 14214 0980 00       		.byte	0
 14215 0981 00       		.byte	0
 14216 0982 00       		.byte	0
 14217 0983 00       		.byte	0
 14218 0984 00       		.byte	0
 14219 0985 00       		.byte	0
 14220 0986 00       		.byte	0
 14221 0987 00       		.byte	0
 14222 0988 00       		.byte	0
 14223 0989 F0       		.byte	-16
 14224 098a 07       		.byte	7
 14225 098b 80       		.byte	-128
 14226 098c 01       		.byte	1
 14227 098d F0       		.byte	-16
 14228 098e 07       		.byte	7
 14229 098f C0       		.byte	-64
 14230 0990 01       		.byte	1
 14231 0991 00       		.byte	0
 14232 0992 00       		.byte	0
 14233 0993 40       		.byte	64
 14234 0994 02       		.byte	2
 14235 0995 00       		.byte	0
 14236 0996 00       		.byte	0
 14237 0997 20       		.byte	32
 14238 0998 02       		.byte	2
 14239 0999 01       		.byte	1
 14240 099a 00       		.byte	0
 14241 099b 20       		.byte	32
 14242 099c 02       		.byte	2
 14243 099d 01       		.byte	1
 14244 099e 00       		.byte	0
 14245 099f 20       		.byte	32
 14246 09a0 02       		.byte	2
 14247 09a1 01       		.byte	1
 14248 09a2 00       		.byte	0
 14249 09a3 20       		.byte	32
 14250 09a4 03       		.byte	3
ARM GAS  /tmp/cco7znPM.s 			page 302


 14251 09a5 03       		.byte	3
 14252 09a6 80       		.byte	-128
 14253 09a7 20       		.byte	32
 14254 09a8 01       		.byte	1
 14255 09a9 86       		.byte	-122
 14256 09aa 80       		.byte	-128
 14257 09ab 40       		.byte	64
 14258 09ac 01       		.byte	1
 14259 09ad FC       		.byte	-4
 14260 09ae C0       		.byte	-64
 14261 09af C0       		.byte	-64
 14262 09b0 00       		.byte	0
 14263 09b1 78       		.byte	120
 14264 09b2 7F       		.byte	127
 14265 09b3 80       		.byte	-128
 14266 09b4 00       		.byte	0
 14267 09b5 00       		.byte	0
 14268 09b6 1E       		.byte	30
 14269 09b7 00       		.byte	0
 14270 09b8 00       		.byte	0
 14271 09b9 00       		.byte	0
 14272 09ba 00       		.byte	0
 14273 09bb 00       		.byte	0
 14274 09bc 00       		.byte	0
 14275 09bd 00       		.byte	0
 14276 09be 00       		.byte	0
 14277 09bf 00       		.byte	0
 14278 09c0 00000000 		.space	64
 14278      00000000 
 14278      00000000 
 14278      00000000 
 14278      00000000 
 14279 0a00 00       		.byte	0
 14280 0a01 00       		.byte	0
 14281 0a02 00       		.byte	0
 14282 0a03 00       		.byte	0
 14283 0a04 00       		.byte	0
 14284 0a05 00       		.byte	0
 14285 0a06 08       		.byte	8
 14286 0a07 00       		.byte	0
 14287 0a08 00       		.byte	0
 14288 0a09 00       		.byte	0
 14289 0a0a 38       		.byte	56
 14290 0a0b 00       		.byte	0
 14291 0a0c 00       		.byte	0
 14292 0a0d 00       		.byte	0
 14293 0a0e 48       		.byte	72
 14294 0a0f 00       		.byte	0
 14295 0a10 00       		.byte	0
 14296 0a11 01       		.byte	1
 14297 0a12 88       		.byte	-120
 14298 0a13 00       		.byte	0
 14299 0a14 00       		.byte	0
 14300 0a15 06       		.byte	6
 14301 0a16 08       		.byte	8
 14302 0a17 00       		.byte	0
 14303 0a18 00       		.byte	0
ARM GAS  /tmp/cco7znPM.s 			page 303


 14304 0a19 0C       		.byte	12
 14305 0a1a 08       		.byte	8
 14306 0a1b 10       		.byte	16
 14307 0a1c 00       		.byte	0
 14308 0a1d 30       		.byte	48
 14309 0a1e 08       		.byte	8
 14310 0a1f 10       		.byte	16
 14311 0a20 00       		.byte	0
 14312 0a21 40       		.byte	64
 14313 0a22 08       		.byte	8
 14314 0a23 10       		.byte	16
 14315 0a24 01       		.byte	1
 14316 0a25 FF       		.byte	-1
 14317 0a26 FF       		.byte	-1
 14318 0a27 F0       		.byte	-16
 14319 0a28 03       		.byte	3
 14320 0a29 FF       		.byte	-1
 14321 0a2a FF       		.byte	-1
 14322 0a2b F0       		.byte	-16
 14323 0a2c 03       		.byte	3
 14324 0a2d FF       		.byte	-1
 14325 0a2e FF       		.byte	-1
 14326 0a2f F0       		.byte	-16
 14327 0a30 00       		.byte	0
 14328 0a31 00       		.byte	0
 14329 0a32 08       		.byte	8
 14330 0a33 10       		.byte	16
 14331 0a34 00       		.byte	0
 14332 0a35 00       		.byte	0
 14333 0a36 08       		.byte	8
 14334 0a37 10       		.byte	16
 14335 0a38 00       		.byte	0
 14336 0a39 00       		.byte	0
 14337 0a3a 08       		.byte	8
 14338 0a3b 10       		.byte	16
 14339 0a3c 00       		.byte	0
 14340 0a3d 00       		.byte	0
 14341 0a3e 00       		.byte	0
 14342 0a3f 00       		.byte	0
 14343 0a40 00000000 		.space	64
 14343      00000000 
 14343      00000000 
 14343      00000000 
 14343      00000000 
 14344 0a80 00       		.byte	0
 14345 0a81 00       		.byte	0
 14346 0a82 00       		.byte	0
 14347 0a83 00       		.byte	0
 14348 0a84 00       		.byte	0
 14349 0a85 00       		.byte	0
 14350 0a86 00       		.byte	0
 14351 0a87 00       		.byte	0
 14352 0a88 00       		.byte	0
 14353 0a89 00       		.byte	0
 14354 0a8a 07       		.byte	7
 14355 0a8b 80       		.byte	-128
 14356 0a8c 00       		.byte	0
ARM GAS  /tmp/cco7znPM.s 			page 304


 14357 0a8d 1F       		.byte	31
 14358 0a8e 86       		.byte	-122
 14359 0a8f 40       		.byte	64
 14360 0a90 03       		.byte	3
 14361 0a91 E1       		.byte	-31
 14362 0a92 00       		.byte	0
 14363 0a93 20       		.byte	32
 14364 0a94 03       		.byte	3
 14365 0a95 02       		.byte	2
 14366 0a96 00       		.byte	0
 14367 0a97 20       		.byte	32
 14368 0a98 03       		.byte	3
 14369 0a99 04       		.byte	4
 14370 0a9a 00       		.byte	0
 14371 0a9b 20       		.byte	32
 14372 0a9c 03       		.byte	3
 14373 0a9d 04       		.byte	4
 14374 0a9e 00       		.byte	0
 14375 0a9f 20       		.byte	32
 14376 0aa0 03       		.byte	3
 14377 0aa1 04       		.byte	4
 14378 0aa2 00       		.byte	0
 14379 0aa3 20       		.byte	32
 14380 0aa4 03       		.byte	3
 14381 0aa5 04       		.byte	4
 14382 0aa6 00       		.byte	0
 14383 0aa7 20       		.byte	32
 14384 0aa8 03       		.byte	3
 14385 0aa9 06       		.byte	6
 14386 0aaa 00       		.byte	0
 14387 0aab 40       		.byte	64
 14388 0aac 03       		.byte	3
 14389 0aad 03       		.byte	3
 14390 0aae 01       		.byte	1
 14391 0aaf C0       		.byte	-64
 14392 0ab0 03       		.byte	3
 14393 0ab1 01       		.byte	1
 14394 0ab2 FF       		.byte	-1
 14395 0ab3 80       		.byte	-128
 14396 0ab4 03       		.byte	3
 14397 0ab5 00       		.byte	0
 14398 0ab6 7E       		.byte	126
 14399 0ab7 00       		.byte	0
 14400 0ab8 00       		.byte	0
 14401 0ab9 00       		.byte	0
 14402 0aba 00       		.byte	0
 14403 0abb 00       		.byte	0
 14404 0abc 00       		.byte	0
 14405 0abd 00       		.byte	0
 14406 0abe 00       		.byte	0
 14407 0abf 00       		.byte	0
 14408 0ac0 00000000 		.space	64
 14408      00000000 
 14408      00000000 
 14408      00000000 
 14408      00000000 
 14409 0b00 00       		.byte	0
ARM GAS  /tmp/cco7znPM.s 			page 305


 14410 0b01 00       		.byte	0
 14411 0b02 00       		.byte	0
 14412 0b03 00       		.byte	0
 14413 0b04 00       		.byte	0
 14414 0b05 00       		.byte	0
 14415 0b06 00       		.byte	0
 14416 0b07 00       		.byte	0
 14417 0b08 00       		.byte	0
 14418 0b09 07       		.byte	7
 14419 0b0a FC       		.byte	-4
 14420 0b0b 00       		.byte	0
 14421 0b0c 00       		.byte	0
 14422 0b0d 3F       		.byte	63
 14423 0b0e FF       		.byte	-1
 14424 0b0f 00       		.byte	0
 14425 0b10 00       		.byte	0
 14426 0b11 70       		.byte	112
 14427 0b12 C3       		.byte	-61
 14428 0b13 80       		.byte	-128
 14429 0b14 00       		.byte	0
 14430 0b15 81       		.byte	-127
 14431 0b16 80       		.byte	-128
 14432 0b17 C0       		.byte	-64
 14433 0b18 01       		.byte	1
 14434 0b19 01       		.byte	1
 14435 0b1a 00       		.byte	0
 14436 0b1b 60       		.byte	96
 14437 0b1c 03       		.byte	3
 14438 0b1d 02       		.byte	2
 14439 0b1e 00       		.byte	0
 14440 0b1f 20       		.byte	32
 14441 0b20 02       		.byte	2
 14442 0b21 02       		.byte	2
 14443 0b22 00       		.byte	0
 14444 0b23 20       		.byte	32
 14445 0b24 02       		.byte	2
 14446 0b25 02       		.byte	2
 14447 0b26 00       		.byte	0
 14448 0b27 20       		.byte	32
 14449 0b28 02       		.byte	2
 14450 0b29 02       		.byte	2
 14451 0b2a 00       		.byte	0
 14452 0b2b 20       		.byte	32
 14453 0b2c 02       		.byte	2
 14454 0b2d 03       		.byte	3
 14455 0b2e 00       		.byte	0
 14456 0b2f 40       		.byte	64
 14457 0b30 01       		.byte	1
 14458 0b31 C1       		.byte	-63
 14459 0b32 80       		.byte	-128
 14460 0b33 C0       		.byte	-64
 14461 0b34 00       		.byte	0
 14462 0b35 C0       		.byte	-64
 14463 0b36 FF       		.byte	-1
 14464 0b37 80       		.byte	-128
 14465 0b38 00       		.byte	0
 14466 0b39 00       		.byte	0
ARM GAS  /tmp/cco7znPM.s 			page 306


 14467 0b3a 7E       		.byte	126
 14468 0b3b 00       		.byte	0
 14469 0b3c 00       		.byte	0
 14470 0b3d 00       		.byte	0
 14471 0b3e 00       		.byte	0
 14472 0b3f 00       		.byte	0
 14473 0b40 00000000 		.space	64
 14473      00000000 
 14473      00000000 
 14473      00000000 
 14473      00000000 
 14474 0b80 00       		.byte	0
 14475 0b81 00       		.byte	0
 14476 0b82 00       		.byte	0
 14477 0b83 00       		.byte	0
 14478 0b84 00       		.byte	0
 14479 0b85 00       		.byte	0
 14480 0b86 00       		.byte	0
 14481 0b87 00       		.byte	0
 14482 0b88 00       		.byte	0
 14483 0b89 F0       		.byte	-16
 14484 0b8a 00       		.byte	0
 14485 0b8b 00       		.byte	0
 14486 0b8c 03       		.byte	3
 14487 0b8d C0       		.byte	-64
 14488 0b8e 00       		.byte	0
 14489 0b8f 00       		.byte	0
 14490 0b90 03       		.byte	3
 14491 0b91 80       		.byte	-128
 14492 0b92 00       		.byte	0
 14493 0b93 00       		.byte	0
 14494 0b94 03       		.byte	3
 14495 0b95 00       		.byte	0
 14496 0b96 00       		.byte	0
 14497 0b97 00       		.byte	0
 14498 0b98 03       		.byte	3
 14499 0b99 00       		.byte	0
 14500 0b9a 07       		.byte	7
 14501 0b9b E0       		.byte	-32
 14502 0b9c 03       		.byte	3
 14503 0b9d 00       		.byte	0
 14504 0b9e 3F       		.byte	63
 14505 0b9f E0       		.byte	-32
 14506 0ba0 03       		.byte	3
 14507 0ba1 01       		.byte	1
 14508 0ba2 C0       		.byte	-64
 14509 0ba3 00       		.byte	0
 14510 0ba4 03       		.byte	3
 14511 0ba5 06       		.byte	6
 14512 0ba6 00       		.byte	0
 14513 0ba7 00       		.byte	0
 14514 0ba8 03       		.byte	3
 14515 0ba9 18       		.byte	24
 14516 0baa 00       		.byte	0
 14517 0bab 00       		.byte	0
 14518 0bac 03       		.byte	3
 14519 0bad 60       		.byte	96
ARM GAS  /tmp/cco7znPM.s 			page 307


 14520 0bae 00       		.byte	0
 14521 0baf 00       		.byte	0
 14522 0bb0 03       		.byte	3
 14523 0bb1 80       		.byte	-128
 14524 0bb2 00       		.byte	0
 14525 0bb3 00       		.byte	0
 14526 0bb4 03       		.byte	3
 14527 0bb5 00       		.byte	0
 14528 0bb6 00       		.byte	0
 14529 0bb7 00       		.byte	0
 14530 0bb8 00       		.byte	0
 14531 0bb9 00       		.byte	0
 14532 0bba 00       		.byte	0
 14533 0bbb 00       		.byte	0
 14534 0bbc 00       		.byte	0
 14535 0bbd 00       		.byte	0
 14536 0bbe 00       		.byte	0
 14537 0bbf 00       		.byte	0
 14538 0bc0 00000000 		.space	64
 14538      00000000 
 14538      00000000 
 14538      00000000 
 14538      00000000 
 14539 0c00 00       		.byte	0
 14540 0c01 00       		.byte	0
 14541 0c02 00       		.byte	0
 14542 0c03 00       		.byte	0
 14543 0c04 00       		.byte	0
 14544 0c05 00       		.byte	0
 14545 0c06 1F       		.byte	31
 14546 0c07 00       		.byte	0
 14547 0c08 00       		.byte	0
 14548 0c09 78       		.byte	120
 14549 0c0a 3F       		.byte	63
 14550 0c0b 80       		.byte	-128
 14551 0c0c 00       		.byte	0
 14552 0c0d FC       		.byte	-4
 14553 0c0e 60       		.byte	96
 14554 0c0f C0       		.byte	-64
 14555 0c10 01       		.byte	1
 14556 0c11 8E       		.byte	-114
 14557 0c12 C0       		.byte	-64
 14558 0c13 40       		.byte	64
 14559 0c14 03       		.byte	3
 14560 0c15 07       		.byte	7
 14561 0c16 80       		.byte	-128
 14562 0c17 20       		.byte	32
 14563 0c18 02       		.byte	2
 14564 0c19 03       		.byte	3
 14565 0c1a 00       		.byte	0
 14566 0c1b 20       		.byte	32
 14567 0c1c 02       		.byte	2
 14568 0c1d 01       		.byte	1
 14569 0c1e 80       		.byte	-128
 14570 0c1f 20       		.byte	32
 14571 0c20 02       		.byte	2
 14572 0c21 01       		.byte	1
ARM GAS  /tmp/cco7znPM.s 			page 308


 14573 0c22 80       		.byte	-128
 14574 0c23 20       		.byte	32
 14575 0c24 02       		.byte	2
 14576 0c25 01       		.byte	1
 14577 0c26 C0       		.byte	-64
 14578 0c27 20       		.byte	32
 14579 0c28 03       		.byte	3
 14580 0c29 01       		.byte	1
 14581 0c2a E0       		.byte	-32
 14582 0c2b 40       		.byte	64
 14583 0c2c 01       		.byte	1
 14584 0c2d 86       		.byte	-122
 14585 0c2e 70       		.byte	112
 14586 0c2f C0       		.byte	-64
 14587 0c30 00       		.byte	0
 14588 0c31 FC       		.byte	-4
 14589 0c32 3F       		.byte	63
 14590 0c33 80       		.byte	-128
 14591 0c34 00       		.byte	0
 14592 0c35 78       		.byte	120
 14593 0c36 1F       		.byte	31
 14594 0c37 00       		.byte	0
 14595 0c38 00       		.byte	0
 14596 0c39 00       		.byte	0
 14597 0c3a 00       		.byte	0
 14598 0c3b 00       		.byte	0
 14599 0c3c 00       		.byte	0
 14600 0c3d 00       		.byte	0
 14601 0c3e 00       		.byte	0
 14602 0c3f 00       		.byte	0
 14603 0c40 00000000 		.space	64
 14603      00000000 
 14603      00000000 
 14603      00000000 
 14603      00000000 
 14604 0c80 00       		.byte	0
 14605 0c81 00       		.byte	0
 14606 0c82 00       		.byte	0
 14607 0c83 00       		.byte	0
 14608 0c84 00       		.byte	0
 14609 0c85 3F       		.byte	63
 14610 0c86 00       		.byte	0
 14611 0c87 00       		.byte	0
 14612 0c88 00       		.byte	0
 14613 0c89 FF       		.byte	-1
 14614 0c8a 81       		.byte	-127
 14615 0c8b C0       		.byte	-64
 14616 0c8c 01       		.byte	1
 14617 0c8d C0       		.byte	-64
 14618 0c8e C1       		.byte	-63
 14619 0c8f C0       		.byte	-64
 14620 0c90 01       		.byte	1
 14621 0c91 00       		.byte	0
 14622 0c92 60       		.byte	96
 14623 0c93 20       		.byte	32
 14624 0c94 02       		.byte	2
 14625 0c95 00       		.byte	0
ARM GAS  /tmp/cco7znPM.s 			page 309


 14626 0c96 20       		.byte	32
 14627 0c97 20       		.byte	32
 14628 0c98 02       		.byte	2
 14629 0c99 00       		.byte	0
 14630 0c9a 20       		.byte	32
 14631 0c9b 20       		.byte	32
 14632 0c9c 02       		.byte	2
 14633 0c9d 00       		.byte	0
 14634 0c9e 20       		.byte	32
 14635 0c9f 20       		.byte	32
 14636 0ca0 02       		.byte	2
 14637 0ca1 00       		.byte	0
 14638 0ca2 20       		.byte	32
 14639 0ca3 60       		.byte	96
 14640 0ca4 02       		.byte	2
 14641 0ca5 00       		.byte	0
 14642 0ca6 40       		.byte	64
 14643 0ca7 C0       		.byte	-64
 14644 0ca8 01       		.byte	1
 14645 0ca9 00       		.byte	0
 14646 0caa C1       		.byte	-63
 14647 0cab 80       		.byte	-128
 14648 0cac 00       		.byte	0
 14649 0cad C1       		.byte	-63
 14650 0cae 8F       		.byte	-113
 14651 0caf 00       		.byte	0
 14652 0cb0 00       		.byte	0
 14653 0cb1 7F       		.byte	127
 14654 0cb2 FE       		.byte	-2
 14655 0cb3 00       		.byte	0
 14656 0cb4 00       		.byte	0
 14657 0cb5 1F       		.byte	31
 14658 0cb6 F0       		.byte	-16
 14659 0cb7 00       		.byte	0
 14660 0cb8 00       		.byte	0
 14661 0cb9 00       		.byte	0
 14662 0cba 00       		.byte	0
 14663 0cbb 00       		.byte	0
 14664 0cbc 00       		.byte	0
 14665 0cbd 00       		.byte	0
 14666 0cbe 00       		.byte	0
 14667 0cbf 00       		.byte	0
 14668 0cc0 00000000 		.space	64
 14668      00000000 
 14668      00000000 
 14668      00000000 
 14668      00000000 
 14669 0d00 00       		.byte	0
 14670 0d01 00       		.byte	0
 14671 0d02 00       		.byte	0
 14672 0d03 00       		.byte	0
 14673 0d04 00       		.byte	0
 14674 0d05 00       		.byte	0
 14675 0d06 00       		.byte	0
 14676 0d07 00       		.byte	0
 14677 0d08 00       		.byte	0
 14678 0d09 00       		.byte	0
ARM GAS  /tmp/cco7znPM.s 			page 310


 14679 0d0a 00       		.byte	0
 14680 0d0b 00       		.byte	0
 14681 0d0c 00       		.byte	0
 14682 0d0d 00       		.byte	0
 14683 0d0e 00       		.byte	0
 14684 0d0f 00       		.byte	0
 14685 0d10 00       		.byte	0
 14686 0d11 00       		.byte	0
 14687 0d12 00       		.byte	0
 14688 0d13 00       		.byte	0
 14689 0d14 00       		.byte	0
 14690 0d15 00       		.byte	0
 14691 0d16 00       		.byte	0
 14692 0d17 00       		.byte	0
 14693 0d18 00       		.byte	0
 14694 0d19 03       		.byte	3
 14695 0d1a 00       		.byte	0
 14696 0d1b C0       		.byte	-64
 14697 0d1c 00       		.byte	0
 14698 0d1d 07       		.byte	7
 14699 0d1e 81       		.byte	-127
 14700 0d1f E0       		.byte	-32
 14701 0d20 00       		.byte	0
 14702 0d21 07       		.byte	7
 14703 0d22 81       		.byte	-127
 14704 0d23 E0       		.byte	-32
 14705 0d24 00       		.byte	0
 14706 0d25 03       		.byte	3
 14707 0d26 00       		.byte	0
 14708 0d27 C0       		.byte	-64
 14709 0d28 00       		.byte	0
 14710 0d29 00       		.byte	0
 14711 0d2a 00       		.byte	0
 14712 0d2b 00       		.byte	0
 14713 0d2c 00       		.byte	0
 14714 0d2d 00       		.byte	0
 14715 0d2e 00       		.byte	0
 14716 0d2f 00       		.byte	0
 14717 0d30 00       		.byte	0
 14718 0d31 00       		.byte	0
 14719 0d32 00       		.byte	0
 14720 0d33 00       		.byte	0
 14721 0d34 00       		.byte	0
 14722 0d35 00       		.byte	0
 14723 0d36 00       		.byte	0
 14724 0d37 00       		.byte	0
 14725 0d38 00       		.byte	0
 14726 0d39 00       		.byte	0
 14727 0d3a 00       		.byte	0
 14728 0d3b 00       		.byte	0
 14729 0d3c 00       		.byte	0
 14730 0d3d 00       		.byte	0
 14731 0d3e 00       		.byte	0
 14732 0d3f 00       		.byte	0
 14733 0d40 00000000 		.space	64
 14733      00000000 
 14733      00000000 
ARM GAS  /tmp/cco7znPM.s 			page 311


 14733      00000000 
 14733      00000000 
 14734 0d80 00       		.byte	0
 14735 0d81 00       		.byte	0
 14736 0d82 00       		.byte	0
 14737 0d83 00       		.byte	0
 14738 0d84 00       		.byte	0
 14739 0d85 00       		.byte	0
 14740 0d86 00       		.byte	0
 14741 0d87 00       		.byte	0
 14742 0d88 00       		.byte	0
 14743 0d89 00       		.byte	0
 14744 0d8a 00       		.byte	0
 14745 0d8b 00       		.byte	0
 14746 0d8c 00       		.byte	0
 14747 0d8d 00       		.byte	0
 14748 0d8e 00       		.byte	0
 14749 0d8f 00       		.byte	0
 14750 0d90 00       		.byte	0
 14751 0d91 00       		.byte	0
 14752 0d92 00       		.byte	0
 14753 0d93 00       		.byte	0
 14754 0d94 00       		.byte	0
 14755 0d95 00       		.byte	0
 14756 0d96 00       		.byte	0
 14757 0d97 00       		.byte	0
 14758 0d98 00       		.byte	0
 14759 0d99 06       		.byte	6
 14760 0d9a 00       		.byte	0
 14761 0d9b 66       		.byte	102
 14762 0d9c 00       		.byte	0
 14763 0d9d 06       		.byte	6
 14764 0d9e 00       		.byte	0
 14765 0d9f 78       		.byte	120
 14766 0da0 00       		.byte	0
 14767 0da1 00       		.byte	0
 14768 0da2 00       		.byte	0
 14769 0da3 00       		.byte	0
 14770 0da4 00       		.byte	0
 14771 0da5 00       		.byte	0
 14772 0da6 00       		.byte	0
 14773 0da7 00       		.byte	0
 14774 0da8 00       		.byte	0
 14775 0da9 00       		.byte	0
 14776 0daa 00       		.byte	0
 14777 0dab 00       		.byte	0
 14778 0dac 00       		.byte	0
 14779 0dad 00       		.byte	0
 14780 0dae 00       		.byte	0
 14781 0daf 00       		.byte	0
 14782 0db0 00       		.byte	0
 14783 0db1 00       		.byte	0
 14784 0db2 00       		.byte	0
 14785 0db3 00       		.byte	0
 14786 0db4 00       		.byte	0
 14787 0db5 00       		.byte	0
 14788 0db6 00       		.byte	0
ARM GAS  /tmp/cco7znPM.s 			page 312


 14789 0db7 00       		.byte	0
 14790 0db8 00       		.byte	0
 14791 0db9 00       		.byte	0
 14792 0dba 00       		.byte	0
 14793 0dbb 00       		.byte	0
 14794 0dbc 00       		.byte	0
 14795 0dbd 00       		.byte	0
 14796 0dbe 00       		.byte	0
 14797 0dbf 00       		.byte	0
 14798 0dc0 00000000 		.space	64
 14798      00000000 
 14798      00000000 
 14798      00000000 
 14798      00000000 
 14799 0e00 00       		.byte	0
 14800 0e01 00       		.byte	0
 14801 0e02 00       		.byte	0
 14802 0e03 00       		.byte	0
 14803 0e04 00       		.byte	0
 14804 0e05 00       		.byte	0
 14805 0e06 00       		.byte	0
 14806 0e07 00       		.byte	0
 14807 0e08 00       		.byte	0
 14808 0e09 00       		.byte	0
 14809 0e0a 80       		.byte	-128
 14810 0e0b 00       		.byte	0
 14811 0e0c 00       		.byte	0
 14812 0e0d 01       		.byte	1
 14813 0e0e C0       		.byte	-64
 14814 0e0f 00       		.byte	0
 14815 0e10 00       		.byte	0
 14816 0e11 03       		.byte	3
 14817 0e12 60       		.byte	96
 14818 0e13 00       		.byte	0
 14819 0e14 00       		.byte	0
 14820 0e15 06       		.byte	6
 14821 0e16 30       		.byte	48
 14822 0e17 00       		.byte	0
 14823 0e18 00       		.byte	0
 14824 0e19 0C       		.byte	12
 14825 0e1a 18       		.byte	24
 14826 0e1b 00       		.byte	0
 14827 0e1c 00       		.byte	0
 14828 0e1d 18       		.byte	24
 14829 0e1e 0C       		.byte	12
 14830 0e1f 00       		.byte	0
 14831 0e20 00       		.byte	0
 14832 0e21 30       		.byte	48
 14833 0e22 06       		.byte	6
 14834 0e23 00       		.byte	0
 14835 0e24 00       		.byte	0
 14836 0e25 60       		.byte	96
 14837 0e26 03       		.byte	3
 14838 0e27 00       		.byte	0
 14839 0e28 00       		.byte	0
 14840 0e29 C0       		.byte	-64
 14841 0e2a 01       		.byte	1
ARM GAS  /tmp/cco7znPM.s 			page 313


 14842 0e2b 80       		.byte	-128
 14843 0e2c 01       		.byte	1
 14844 0e2d 00       		.byte	0
 14845 0e2e 00       		.byte	0
 14846 0e2f 40       		.byte	64
 14847 0e30 02       		.byte	2
 14848 0e31 00       		.byte	0
 14849 0e32 00       		.byte	0
 14850 0e33 20       		.byte	32
 14851 0e34 04       		.byte	4
 14852 0e35 00       		.byte	0
 14853 0e36 00       		.byte	0
 14854 0e37 10       		.byte	16
 14855 0e38 00       		.byte	0
 14856 0e39 00       		.byte	0
 14857 0e3a 00       		.byte	0
 14858 0e3b 00       		.byte	0
 14859 0e3c 00       		.byte	0
 14860 0e3d 00       		.byte	0
 14861 0e3e 00       		.byte	0
 14862 0e3f 00       		.byte	0
 14863 0e40 00000000 		.space	64
 14863      00000000 
 14863      00000000 
 14863      00000000 
 14863      00000000 
 14864 0e80 00       		.byte	0
 14865 0e81 00       		.byte	0
 14866 0e82 00       		.byte	0
 14867 0e83 00       		.byte	0
 14868 0e84 00       		.byte	0
 14869 0e85 04       		.byte	4
 14870 0e86 10       		.byte	16
 14871 0e87 00       		.byte	0
 14872 0e88 00       		.byte	0
 14873 0e89 04       		.byte	4
 14874 0e8a 10       		.byte	16
 14875 0e8b 00       		.byte	0
 14876 0e8c 00       		.byte	0
 14877 0e8d 04       		.byte	4
 14878 0e8e 10       		.byte	16
 14879 0e8f 00       		.byte	0
 14880 0e90 00       		.byte	0
 14881 0e91 04       		.byte	4
 14882 0e92 10       		.byte	16
 14883 0e93 00       		.byte	0
 14884 0e94 00       		.byte	0
 14885 0e95 04       		.byte	4
 14886 0e96 10       		.byte	16
 14887 0e97 00       		.byte	0
 14888 0e98 00       		.byte	0
 14889 0e99 04       		.byte	4
 14890 0e9a 10       		.byte	16
 14891 0e9b 00       		.byte	0
 14892 0e9c 00       		.byte	0
 14893 0e9d 04       		.byte	4
 14894 0e9e 10       		.byte	16
ARM GAS  /tmp/cco7znPM.s 			page 314


 14895 0e9f 00       		.byte	0
 14896 0ea0 00       		.byte	0
 14897 0ea1 04       		.byte	4
 14898 0ea2 10       		.byte	16
 14899 0ea3 00       		.byte	0
 14900 0ea4 00       		.byte	0
 14901 0ea5 04       		.byte	4
 14902 0ea6 10       		.byte	16
 14903 0ea7 00       		.byte	0
 14904 0ea8 00       		.byte	0
 14905 0ea9 04       		.byte	4
 14906 0eaa 10       		.byte	16
 14907 0eab 00       		.byte	0
 14908 0eac 00       		.byte	0
 14909 0ead 04       		.byte	4
 14910 0eae 10       		.byte	16
 14911 0eaf 00       		.byte	0
 14912 0eb0 00       		.byte	0
 14913 0eb1 04       		.byte	4
 14914 0eb2 10       		.byte	16
 14915 0eb3 00       		.byte	0
 14916 0eb4 00       		.byte	0
 14917 0eb5 04       		.byte	4
 14918 0eb6 10       		.byte	16
 14919 0eb7 00       		.byte	0
 14920 0eb8 00       		.byte	0
 14921 0eb9 04       		.byte	4
 14922 0eba 10       		.byte	16
 14923 0ebb 00       		.byte	0
 14924 0ebc 00       		.byte	0
 14925 0ebd 00       		.byte	0
 14926 0ebe 00       		.byte	0
 14927 0ebf 00       		.byte	0
 14928 0ec0 00000000 		.space	64
 14928      00000000 
 14928      00000000 
 14928      00000000 
 14928      00000000 
 14929 0f00 00       		.byte	0
 14930 0f01 00       		.byte	0
 14931 0f02 00       		.byte	0
 14932 0f03 00       		.byte	0
 14933 0f04 00       		.byte	0
 14934 0f05 00       		.byte	0
 14935 0f06 00       		.byte	0
 14936 0f07 00       		.byte	0
 14937 0f08 04       		.byte	4
 14938 0f09 00       		.byte	0
 14939 0f0a 00       		.byte	0
 14940 0f0b 10       		.byte	16
 14941 0f0c 02       		.byte	2
 14942 0f0d 00       		.byte	0
 14943 0f0e 00       		.byte	0
 14944 0f0f 20       		.byte	32
 14945 0f10 01       		.byte	1
 14946 0f11 00       		.byte	0
 14947 0f12 00       		.byte	0
ARM GAS  /tmp/cco7znPM.s 			page 315


 14948 0f13 40       		.byte	64
 14949 0f14 00       		.byte	0
 14950 0f15 C0       		.byte	-64
 14951 0f16 01       		.byte	1
 14952 0f17 80       		.byte	-128
 14953 0f18 00       		.byte	0
 14954 0f19 60       		.byte	96
 14955 0f1a 03       		.byte	3
 14956 0f1b 00       		.byte	0
 14957 0f1c 00       		.byte	0
 14958 0f1d 30       		.byte	48
 14959 0f1e 06       		.byte	6
 14960 0f1f 00       		.byte	0
 14961 0f20 00       		.byte	0
 14962 0f21 18       		.byte	24
 14963 0f22 0C       		.byte	12
 14964 0f23 00       		.byte	0
 14965 0f24 00       		.byte	0
 14966 0f25 0C       		.byte	12
 14967 0f26 18       		.byte	24
 14968 0f27 00       		.byte	0
 14969 0f28 00       		.byte	0
 14970 0f29 06       		.byte	6
 14971 0f2a 30       		.byte	48
 14972 0f2b 00       		.byte	0
 14973 0f2c 00       		.byte	0
 14974 0f2d 03       		.byte	3
 14975 0f2e 60       		.byte	96
 14976 0f2f 00       		.byte	0
 14977 0f30 00       		.byte	0
 14978 0f31 01       		.byte	1
 14979 0f32 C0       		.byte	-64
 14980 0f33 00       		.byte	0
 14981 0f34 00       		.byte	0
 14982 0f35 00       		.byte	0
 14983 0f36 80       		.byte	-128
 14984 0f37 00       		.byte	0
 14985 0f38 00       		.byte	0
 14986 0f39 00       		.byte	0
 14987 0f3a 00       		.byte	0
 14988 0f3b 00       		.byte	0
 14989 0f3c 00       		.byte	0
 14990 0f3d 00       		.byte	0
 14991 0f3e 00       		.byte	0
 14992 0f3f 00       		.byte	0
 14993 0f40 00000000 		.space	64
 14993      00000000 
 14993      00000000 
 14993      00000000 
 14993      00000000 
 14994 0f80 00       		.byte	0
 14995 0f81 00       		.byte	0
 14996 0f82 00       		.byte	0
 14997 0f83 00       		.byte	0
 14998 0f84 00       		.byte	0
 14999 0f85 00       		.byte	0
 15000 0f86 00       		.byte	0
ARM GAS  /tmp/cco7znPM.s 			page 316


 15001 0f87 00       		.byte	0
 15002 0f88 00       		.byte	0
 15003 0f89 78       		.byte	120
 15004 0f8a 00       		.byte	0
 15005 0f8b 00       		.byte	0
 15006 0f8c 01       		.byte	1
 15007 0f8d F8       		.byte	-8
 15008 0f8e 00       		.byte	0
 15009 0f8f 00       		.byte	0
 15010 0f90 02       		.byte	2
 15011 0f91 38       		.byte	56
 15012 0f92 00       		.byte	0
 15013 0f93 00       		.byte	0
 15014 0f94 02       		.byte	2
 15015 0f95 00       		.byte	0
 15016 0f96 00       		.byte	0
 15017 0f97 00       		.byte	0
 15018 0f98 04       		.byte	4
 15019 0f99 00       		.byte	0
 15020 0f9a 00       		.byte	0
 15021 0f9b C0       		.byte	-64
 15022 0f9c 04       		.byte	4
 15023 0f9d 00       		.byte	0
 15024 0f9e 79       		.byte	121
 15025 0f9f E0       		.byte	-32
 15026 0fa0 04       		.byte	4
 15027 0fa1 00       		.byte	0
 15028 0fa2 81       		.byte	-127
 15029 0fa3 E0       		.byte	-32
 15030 0fa4 04       		.byte	4
 15031 0fa5 01       		.byte	1
 15032 0fa6 00       		.byte	0
 15033 0fa7 C0       		.byte	-64
 15034 0fa8 04       		.byte	4
 15035 0fa9 03       		.byte	3
 15036 0faa 00       		.byte	0
 15037 0fab 00       		.byte	0
 15038 0fac 02       		.byte	2
 15039 0fad 02       		.byte	2
 15040 0fae 00       		.byte	0
 15041 0faf 00       		.byte	0
 15042 0fb0 03       		.byte	3
 15043 0fb1 06       		.byte	6
 15044 0fb2 00       		.byte	0
 15045 0fb3 00       		.byte	0
 15046 0fb4 01       		.byte	1
 15047 0fb5 FC       		.byte	-4
 15048 0fb6 00       		.byte	0
 15049 0fb7 00       		.byte	0
 15050 0fb8 00       		.byte	0
 15051 0fb9 F8       		.byte	-8
 15052 0fba 00       		.byte	0
 15053 0fbb 00       		.byte	0
 15054 0fbc 00       		.byte	0
 15055 0fbd 00       		.byte	0
 15056 0fbe 00       		.byte	0
 15057 0fbf 00       		.byte	0
ARM GAS  /tmp/cco7znPM.s 			page 317


 15058 0fc0 00000000 		.space	64
 15058      00000000 
 15058      00000000 
 15058      00000000 
 15058      00000000 
 15059 1000 00       		.byte	0
 15060 1001 00       		.byte	0
 15061 1002 00       		.byte	0
 15062 1003 00       		.byte	0
 15063 1004 00       		.byte	0
 15064 1005 0F       		.byte	15
 15065 1006 F8       		.byte	-8
 15066 1007 00       		.byte	0
 15067 1008 00       		.byte	0
 15068 1009 3F       		.byte	63
 15069 100a FE       		.byte	-2
 15070 100b 00       		.byte	0
 15071 100c 00       		.byte	0
 15072 100d 70       		.byte	112
 15073 100e 07       		.byte	7
 15074 100f 80       		.byte	-128
 15075 1010 00       		.byte	0
 15076 1011 C0       		.byte	-64
 15077 1012 00       		.byte	0
 15078 1013 C0       		.byte	-64
 15079 1014 01       		.byte	1
 15080 1015 01       		.byte	1
 15081 1016 F8       		.byte	-8
 15082 1017 40       		.byte	64
 15083 1018 03       		.byte	3
 15084 1019 07       		.byte	7
 15085 101a FC       		.byte	-4
 15086 101b 20       		.byte	32
 15087 101c 02       		.byte	2
 15088 101d 1E       		.byte	30
 15089 101e 04       		.byte	4
 15090 101f 20       		.byte	32
 15091 1020 02       		.byte	2
 15092 1021 30       		.byte	48
 15093 1022 08       		.byte	8
 15094 1023 20       		.byte	32
 15095 1024 02       		.byte	2
 15096 1025 20       		.byte	32
 15097 1026 30       		.byte	48
 15098 1027 20       		.byte	32
 15099 1028 02       		.byte	2
 15100 1029 3F       		.byte	63
 15101 102a FC       		.byte	-4
 15102 102b 20       		.byte	32
 15103 102c 01       		.byte	1
 15104 102d 3F       		.byte	63
 15105 102e 04       		.byte	4
 15106 102f 40       		.byte	64
 15107 1030 01       		.byte	1
 15108 1031 80       		.byte	-128
 15109 1032 0C       		.byte	12
 15110 1033 C0       		.byte	-64
ARM GAS  /tmp/cco7znPM.s 			page 318


 15111 1034 00       		.byte	0
 15112 1035 E0       		.byte	-32
 15113 1036 31       		.byte	49
 15114 1037 80       		.byte	-128
 15115 1038 00       		.byte	0
 15116 1039 1F       		.byte	31
 15117 103a C2       		.byte	-62
 15118 103b 00       		.byte	0
 15119 103c 00       		.byte	0
 15120 103d 00       		.byte	0
 15121 103e 00       		.byte	0
 15122 103f 00       		.byte	0
 15123 1040 00000000 		.space	64
 15123      00000000 
 15123      00000000 
 15123      00000000 
 15123      00000000 
 15124 1080 00       		.byte	0
 15125 1081 00       		.byte	0
 15126 1082 00       		.byte	0
 15127 1083 20       		.byte	32
 15128 1084 00       		.byte	0
 15129 1085 00       		.byte	0
 15130 1086 00       		.byte	0
 15131 1087 60       		.byte	96
 15132 1088 00       		.byte	0
 15133 1089 00       		.byte	0
 15134 108a 03       		.byte	3
 15135 108b E0       		.byte	-32
 15136 108c 00       		.byte	0
 15137 108d 00       		.byte	0
 15138 108e 3E       		.byte	62
 15139 108f 20       		.byte	32
 15140 1090 00       		.byte	0
 15141 1091 03       		.byte	3
 15142 1092 E0       		.byte	-32
 15143 1093 20       		.byte	32
 15144 1094 00       		.byte	0
 15145 1095 3E       		.byte	62
 15146 1096 20       		.byte	32
 15147 1097 00       		.byte	0
 15148 1098 03       		.byte	3
 15149 1099 E0       		.byte	-32
 15150 109a 20       		.byte	32
 15151 109b 00       		.byte	0
 15152 109c 03       		.byte	3
 15153 109d 80       		.byte	-128
 15154 109e 20       		.byte	32
 15155 109f 00       		.byte	0
 15156 10a0 07       		.byte	7
 15157 10a1 FC       		.byte	-4
 15158 10a2 20       		.byte	32
 15159 10a3 00       		.byte	0
 15160 10a4 00       		.byte	0
 15161 10a5 3F       		.byte	63
 15162 10a6 E0       		.byte	-32
 15163 10a7 00       		.byte	0
ARM GAS  /tmp/cco7znPM.s 			page 319


 15164 10a8 00       		.byte	0
 15165 10a9 03       		.byte	3
 15166 10aa FE       		.byte	-2
 15167 10ab 20       		.byte	32
 15168 10ac 00       		.byte	0
 15169 10ad 00       		.byte	0
 15170 10ae 3F       		.byte	63
 15171 10af E0       		.byte	-32
 15172 10b0 00       		.byte	0
 15173 10b1 00       		.byte	0
 15174 10b2 01       		.byte	1
 15175 10b3 E0       		.byte	-32
 15176 10b4 00       		.byte	0
 15177 10b5 00       		.byte	0
 15178 10b6 00       		.byte	0
 15179 10b7 20       		.byte	32
 15180 10b8 00       		.byte	0
 15181 10b9 00       		.byte	0
 15182 10ba 00       		.byte	0
 15183 10bb 20       		.byte	32
 15184 10bc 00       		.byte	0
 15185 10bd 00       		.byte	0
 15186 10be 00       		.byte	0
 15187 10bf 00       		.byte	0
 15188 10c0 00000000 		.space	64
 15188      00000000 
 15188      00000000 
 15188      00000000 
 15188      00000000 
 15189 1100 00       		.byte	0
 15190 1101 00       		.byte	0
 15191 1102 00       		.byte	0
 15192 1103 00       		.byte	0
 15193 1104 02       		.byte	2
 15194 1105 00       		.byte	0
 15195 1106 00       		.byte	0
 15196 1107 20       		.byte	32
 15197 1108 02       		.byte	2
 15198 1109 00       		.byte	0
 15199 110a 00       		.byte	0
 15200 110b 20       		.byte	32
 15201 110c 03       		.byte	3
 15202 110d FF       		.byte	-1
 15203 110e FF       		.byte	-1
 15204 110f E0       		.byte	-32
 15205 1110 03       		.byte	3
 15206 1111 FF       		.byte	-1
 15207 1112 FF       		.byte	-1
 15208 1113 E0       		.byte	-32
 15209 1114 02       		.byte	2
 15210 1115 01       		.byte	1
 15211 1116 00       		.byte	0
 15212 1117 20       		.byte	32
 15213 1118 02       		.byte	2
 15214 1119 01       		.byte	1
 15215 111a 00       		.byte	0
 15216 111b 20       		.byte	32
ARM GAS  /tmp/cco7znPM.s 			page 320


 15217 111c 02       		.byte	2
 15218 111d 01       		.byte	1
 15219 111e 00       		.byte	0
 15220 111f 20       		.byte	32
 15221 1120 02       		.byte	2
 15222 1121 01       		.byte	1
 15223 1122 00       		.byte	0
 15224 1123 20       		.byte	32
 15225 1124 02       		.byte	2
 15226 1125 01       		.byte	1
 15227 1126 00       		.byte	0
 15228 1127 20       		.byte	32
 15229 1128 03       		.byte	3
 15230 1129 03       		.byte	3
 15231 112a 00       		.byte	0
 15232 112b 20       		.byte	32
 15233 112c 01       		.byte	1
 15234 112d 86       		.byte	-122
 15235 112e 80       		.byte	-128
 15236 112f 60       		.byte	96
 15237 1130 01       		.byte	1
 15238 1131 FC       		.byte	-4
 15239 1132 C0       		.byte	-64
 15240 1133 C0       		.byte	-64
 15241 1134 00       		.byte	0
 15242 1135 F8       		.byte	-8
 15243 1136 7F       		.byte	127
 15244 1137 80       		.byte	-128
 15245 1138 00       		.byte	0
 15246 1139 00       		.byte	0
 15247 113a 1F       		.byte	31
 15248 113b 00       		.byte	0
 15249 113c 00       		.byte	0
 15250 113d 00       		.byte	0
 15251 113e 00       		.byte	0
 15252 113f 00       		.byte	0
 15253 1140 00000000 		.space	64
 15253      00000000 
 15253      00000000 
 15253      00000000 
 15253      00000000 
 15254 1180 00       		.byte	0
 15255 1181 00       		.byte	0
 15256 1182 00       		.byte	0
 15257 1183 00       		.byte	0
 15258 1184 00       		.byte	0
 15259 1185 07       		.byte	7
 15260 1186 F8       		.byte	-8
 15261 1187 00       		.byte	0
 15262 1188 00       		.byte	0
 15263 1189 3F       		.byte	63
 15264 118a FF       		.byte	-1
 15265 118b 00       		.byte	0
 15266 118c 00       		.byte	0
 15267 118d 70       		.byte	112
 15268 118e 07       		.byte	7
 15269 118f 80       		.byte	-128
ARM GAS  /tmp/cco7znPM.s 			page 321


 15270 1190 00       		.byte	0
 15271 1191 C0       		.byte	-64
 15272 1192 00       		.byte	0
 15273 1193 C0       		.byte	-64
 15274 1194 01       		.byte	1
 15275 1195 00       		.byte	0
 15276 1196 00       		.byte	0
 15277 1197 40       		.byte	64
 15278 1198 03       		.byte	3
 15279 1199 00       		.byte	0
 15280 119a 00       		.byte	0
 15281 119b 20       		.byte	32
 15282 119c 02       		.byte	2
 15283 119d 00       		.byte	0
 15284 119e 00       		.byte	0
 15285 119f 20       		.byte	32
 15286 11a0 02       		.byte	2
 15287 11a1 00       		.byte	0
 15288 11a2 00       		.byte	0
 15289 11a3 20       		.byte	32
 15290 11a4 02       		.byte	2
 15291 11a5 00       		.byte	0
 15292 11a6 00       		.byte	0
 15293 11a7 20       		.byte	32
 15294 11a8 02       		.byte	2
 15295 11a9 00       		.byte	0
 15296 11aa 00       		.byte	0
 15297 11ab 20       		.byte	32
 15298 11ac 01       		.byte	1
 15299 11ad 00       		.byte	0
 15300 11ae 00       		.byte	0
 15301 11af 40       		.byte	64
 15302 11b0 01       		.byte	1
 15303 11b1 80       		.byte	-128
 15304 11b2 00       		.byte	0
 15305 11b3 C0       		.byte	-64
 15306 11b4 03       		.byte	3
 15307 11b5 C0       		.byte	-64
 15308 11b6 01       		.byte	1
 15309 11b7 80       		.byte	-128
 15310 11b8 00       		.byte	0
 15311 11b9 30       		.byte	48
 15312 11ba 06       		.byte	6
 15313 11bb 00       		.byte	0
 15314 11bc 00       		.byte	0
 15315 11bd 00       		.byte	0
 15316 11be 00       		.byte	0
 15317 11bf 00       		.byte	0
 15318 11c0 00000000 		.space	64
 15318      00000000 
 15318      00000000 
 15318      00000000 
 15318      00000000 
 15319 1200 00       		.byte	0
 15320 1201 00       		.byte	0
 15321 1202 00       		.byte	0
 15322 1203 00       		.byte	0
ARM GAS  /tmp/cco7znPM.s 			page 322


 15323 1204 02       		.byte	2
 15324 1205 00       		.byte	0
 15325 1206 00       		.byte	0
 15326 1207 20       		.byte	32
 15327 1208 02       		.byte	2
 15328 1209 00       		.byte	0
 15329 120a 00       		.byte	0
 15330 120b 20       		.byte	32
 15331 120c 03       		.byte	3
 15332 120d FF       		.byte	-1
 15333 120e FF       		.byte	-1
 15334 120f E0       		.byte	-32
 15335 1210 03       		.byte	3
 15336 1211 FF       		.byte	-1
 15337 1212 FF       		.byte	-1
 15338 1213 E0       		.byte	-32
 15339 1214 02       		.byte	2
 15340 1215 00       		.byte	0
 15341 1216 00       		.byte	0
 15342 1217 20       		.byte	32
 15343 1218 02       		.byte	2
 15344 1219 00       		.byte	0
 15345 121a 00       		.byte	0
 15346 121b 20       		.byte	32
 15347 121c 02       		.byte	2
 15348 121d 00       		.byte	0
 15349 121e 00       		.byte	0
 15350 121f 20       		.byte	32
 15351 1220 02       		.byte	2
 15352 1221 00       		.byte	0
 15353 1222 00       		.byte	0
 15354 1223 20       		.byte	32
 15355 1224 03       		.byte	3
 15356 1225 00       		.byte	0
 15357 1226 00       		.byte	0
 15358 1227 60       		.byte	96
 15359 1228 01       		.byte	1
 15360 1229 00       		.byte	0
 15361 122a 00       		.byte	0
 15362 122b 40       		.byte	64
 15363 122c 01       		.byte	1
 15364 122d 80       		.byte	-128
 15365 122e 00       		.byte	0
 15366 122f C0       		.byte	-64
 15367 1230 00       		.byte	0
 15368 1231 F0       		.byte	-16
 15369 1232 07       		.byte	7
 15370 1233 80       		.byte	-128
 15371 1234 00       		.byte	0
 15372 1235 7F       		.byte	127
 15373 1236 FE       		.byte	-2
 15374 1237 00       		.byte	0
 15375 1238 00       		.byte	0
 15376 1239 0F       		.byte	15
 15377 123a F8       		.byte	-8
 15378 123b 00       		.byte	0
 15379 123c 00       		.byte	0
ARM GAS  /tmp/cco7znPM.s 			page 323


 15380 123d 00       		.byte	0
 15381 123e 00       		.byte	0
 15382 123f 00       		.byte	0
 15383 1240 00000000 		.space	64
 15383      00000000 
 15383      00000000 
 15383      00000000 
 15383      00000000 
 15384 1280 00       		.byte	0
 15385 1281 00       		.byte	0
 15386 1282 00       		.byte	0
 15387 1283 00       		.byte	0
 15388 1284 02       		.byte	2
 15389 1285 00       		.byte	0
 15390 1286 00       		.byte	0
 15391 1287 20       		.byte	32
 15392 1288 02       		.byte	2
 15393 1289 00       		.byte	0
 15394 128a 00       		.byte	0
 15395 128b 20       		.byte	32
 15396 128c 03       		.byte	3
 15397 128d FF       		.byte	-1
 15398 128e FF       		.byte	-1
 15399 128f E0       		.byte	-32
 15400 1290 03       		.byte	3
 15401 1291 FF       		.byte	-1
 15402 1292 FF       		.byte	-1
 15403 1293 E0       		.byte	-32
 15404 1294 02       		.byte	2
 15405 1295 01       		.byte	1
 15406 1296 00       		.byte	0
 15407 1297 20       		.byte	32
 15408 1298 02       		.byte	2
 15409 1299 01       		.byte	1
 15410 129a 00       		.byte	0
 15411 129b 20       		.byte	32
 15412 129c 02       		.byte	2
 15413 129d 01       		.byte	1
 15414 129e 00       		.byte	0
 15415 129f 20       		.byte	32
 15416 12a0 02       		.byte	2
 15417 12a1 01       		.byte	1
 15418 12a2 00       		.byte	0
 15419 12a3 20       		.byte	32
 15420 12a4 02       		.byte	2
 15421 12a5 01       		.byte	1
 15422 12a6 00       		.byte	0
 15423 12a7 20       		.byte	32
 15424 12a8 02       		.byte	2
 15425 12a9 03       		.byte	3
 15426 12aa 80       		.byte	-128
 15427 12ab 20       		.byte	32
 15428 12ac 02       		.byte	2
 15429 12ad 0F       		.byte	15
 15430 12ae E0       		.byte	-32
 15431 12af 20       		.byte	32
 15432 12b0 03       		.byte	3
ARM GAS  /tmp/cco7znPM.s 			page 324


 15433 12b1 00       		.byte	0
 15434 12b2 00       		.byte	0
 15435 12b3 60       		.byte	96
 15436 12b4 03       		.byte	3
 15437 12b5 C0       		.byte	-64
 15438 12b6 00       		.byte	0
 15439 12b7 E0       		.byte	-32
 15440 12b8 00       		.byte	0
 15441 12b9 60       		.byte	96
 15442 12ba 03       		.byte	3
 15443 12bb 00       		.byte	0
 15444 12bc 00       		.byte	0
 15445 12bd 00       		.byte	0
 15446 12be 00       		.byte	0
 15447 12bf 00       		.byte	0
 15448 12c0 00000000 		.space	64
 15448      00000000 
 15448      00000000 
 15448      00000000 
 15448      00000000 
 15449 1300 00       		.byte	0
 15450 1301 00       		.byte	0
 15451 1302 00       		.byte	0
 15452 1303 00       		.byte	0
 15453 1304 02       		.byte	2
 15454 1305 00       		.byte	0
 15455 1306 00       		.byte	0
 15456 1307 20       		.byte	32
 15457 1308 02       		.byte	2
 15458 1309 00       		.byte	0
 15459 130a 00       		.byte	0
 15460 130b 20       		.byte	32
 15461 130c 03       		.byte	3
 15462 130d FF       		.byte	-1
 15463 130e FF       		.byte	-1
 15464 130f E0       		.byte	-32
 15465 1310 03       		.byte	3
 15466 1311 FF       		.byte	-1
 15467 1312 FF       		.byte	-1
 15468 1313 E0       		.byte	-32
 15469 1314 02       		.byte	2
 15470 1315 01       		.byte	1
 15471 1316 00       		.byte	0
 15472 1317 20       		.byte	32
 15473 1318 02       		.byte	2
 15474 1319 01       		.byte	1
 15475 131a 00       		.byte	0
 15476 131b 20       		.byte	32
 15477 131c 02       		.byte	2
 15478 131d 01       		.byte	1
 15479 131e 00       		.byte	0
 15480 131f 00       		.byte	0
 15481 1320 02       		.byte	2
 15482 1321 01       		.byte	1
 15483 1322 00       		.byte	0
 15484 1323 00       		.byte	0
 15485 1324 02       		.byte	2
ARM GAS  /tmp/cco7znPM.s 			page 325


 15486 1325 01       		.byte	1
 15487 1326 00       		.byte	0
 15488 1327 00       		.byte	0
 15489 1328 02       		.byte	2
 15490 1329 01       		.byte	1
 15491 132a 00       		.byte	0
 15492 132b 00       		.byte	0
 15493 132c 02       		.byte	2
 15494 132d 03       		.byte	3
 15495 132e 80       		.byte	-128
 15496 132f 00       		.byte	0
 15497 1330 03       		.byte	3
 15498 1331 0F       		.byte	15
 15499 1332 E0       		.byte	-32
 15500 1333 00       		.byte	0
 15501 1334 03       		.byte	3
 15502 1335 00       		.byte	0
 15503 1336 00       		.byte	0
 15504 1337 00       		.byte	0
 15505 1338 03       		.byte	3
 15506 1339 C0       		.byte	-64
 15507 133a 00       		.byte	0
 15508 133b 00       		.byte	0
 15509 133c 00       		.byte	0
 15510 133d 60       		.byte	96
 15511 133e 00       		.byte	0
 15512 133f 00       		.byte	0
 15513 1340 00000000 		.space	64
 15513      00000000 
 15513      00000000 
 15513      00000000 
 15513      00000000 
 15514 1380 00       		.byte	0
 15515 1381 00       		.byte	0
 15516 1382 00       		.byte	0
 15517 1383 00       		.byte	0
 15518 1384 00       		.byte	0
 15519 1385 07       		.byte	7
 15520 1386 F8       		.byte	-8
 15521 1387 00       		.byte	0
 15522 1388 00       		.byte	0
 15523 1389 3F       		.byte	63
 15524 138a FE       		.byte	-2
 15525 138b 00       		.byte	0
 15526 138c 00       		.byte	0
 15527 138d 70       		.byte	112
 15528 138e 07       		.byte	7
 15529 138f 80       		.byte	-128
 15530 1390 01       		.byte	1
 15531 1391 C0       		.byte	-64
 15532 1392 01       		.byte	1
 15533 1393 C0       		.byte	-64
 15534 1394 01       		.byte	1
 15535 1395 00       		.byte	0
 15536 1396 00       		.byte	0
 15537 1397 40       		.byte	64
 15538 1398 03       		.byte	3
ARM GAS  /tmp/cco7znPM.s 			page 326


 15539 1399 00       		.byte	0
 15540 139a 00       		.byte	0
 15541 139b 20       		.byte	32
 15542 139c 02       		.byte	2
 15543 139d 00       		.byte	0
 15544 139e 00       		.byte	0
 15545 139f 20       		.byte	32
 15546 13a0 02       		.byte	2
 15547 13a1 00       		.byte	0
 15548 13a2 00       		.byte	0
 15549 13a3 20       		.byte	32
 15550 13a4 02       		.byte	2
 15551 13a5 00       		.byte	0
 15552 13a6 00       		.byte	0
 15553 13a7 20       		.byte	32
 15554 13a8 01       		.byte	1
 15555 13a9 00       		.byte	0
 15556 13aa 20       		.byte	32
 15557 13ab 20       		.byte	32
 15558 13ac 01       		.byte	1
 15559 13ad 00       		.byte	0
 15560 13ae 20       		.byte	32
 15561 13af 40       		.byte	64
 15562 13b0 03       		.byte	3
 15563 13b1 C0       		.byte	-64
 15564 13b2 3F       		.byte	63
 15565 13b3 80       		.byte	-128
 15566 13b4 00       		.byte	0
 15567 13b5 30       		.byte	48
 15568 13b6 3F       		.byte	63
 15569 13b7 80       		.byte	-128
 15570 13b8 00       		.byte	0
 15571 13b9 00       		.byte	0
 15572 13ba 20       		.byte	32
 15573 13bb 00       		.byte	0
 15574 13bc 00       		.byte	0
 15575 13bd 00       		.byte	0
 15576 13be 20       		.byte	32
 15577 13bf 00       		.byte	0
 15578 13c0 00000000 		.space	64
 15578      00000000 
 15578      00000000 
 15578      00000000 
 15578      00000000 
 15579 1400 02       		.byte	2
 15580 1401 00       		.byte	0
 15581 1402 00       		.byte	0
 15582 1403 20       		.byte	32
 15583 1404 02       		.byte	2
 15584 1405 00       		.byte	0
 15585 1406 00       		.byte	0
 15586 1407 20       		.byte	32
 15587 1408 03       		.byte	3
 15588 1409 FF       		.byte	-1
 15589 140a FF       		.byte	-1
 15590 140b E0       		.byte	-32
 15591 140c 03       		.byte	3
ARM GAS  /tmp/cco7znPM.s 			page 327


 15592 140d FF       		.byte	-1
 15593 140e FF       		.byte	-1
 15594 140f E0       		.byte	-32
 15595 1410 02       		.byte	2
 15596 1411 00       		.byte	0
 15597 1412 80       		.byte	-128
 15598 1413 20       		.byte	32
 15599 1414 02       		.byte	2
 15600 1415 00       		.byte	0
 15601 1416 80       		.byte	-128
 15602 1417 20       		.byte	32
 15603 1418 00       		.byte	0
 15604 1419 00       		.byte	0
 15605 141a 80       		.byte	-128
 15606 141b 00       		.byte	0
 15607 141c 00       		.byte	0
 15608 141d 00       		.byte	0
 15609 141e 80       		.byte	-128
 15610 141f 00       		.byte	0
 15611 1420 00       		.byte	0
 15612 1421 00       		.byte	0
 15613 1422 80       		.byte	-128
 15614 1423 00       		.byte	0
 15615 1424 02       		.byte	2
 15616 1425 00       		.byte	0
 15617 1426 80       		.byte	-128
 15618 1427 20       		.byte	32
 15619 1428 02       		.byte	2
 15620 1429 00       		.byte	0
 15621 142a 80       		.byte	-128
 15622 142b 20       		.byte	32
 15623 142c 03       		.byte	3
 15624 142d FF       		.byte	-1
 15625 142e FF       		.byte	-1
 15626 142f E0       		.byte	-32
 15627 1430 03       		.byte	3
 15628 1431 FF       		.byte	-1
 15629 1432 FF       		.byte	-1
 15630 1433 E0       		.byte	-32
 15631 1434 02       		.byte	2
 15632 1435 00       		.byte	0
 15633 1436 00       		.byte	0
 15634 1437 20       		.byte	32
 15635 1438 02       		.byte	2
 15636 1439 00       		.byte	0
 15637 143a 00       		.byte	0
 15638 143b 20       		.byte	32
 15639 143c 00       		.byte	0
 15640 143d 00       		.byte	0
 15641 143e 00       		.byte	0
 15642 143f 00       		.byte	0
 15643 1440 00000000 		.space	64
 15643      00000000 
 15643      00000000 
 15643      00000000 
 15643      00000000 
 15644 1480 00       		.byte	0
ARM GAS  /tmp/cco7znPM.s 			page 328


 15645 1481 00       		.byte	0
 15646 1482 00       		.byte	0
 15647 1483 00       		.byte	0
 15648 1484 00       		.byte	0
 15649 1485 00       		.byte	0
 15650 1486 00       		.byte	0
 15651 1487 00       		.byte	0
 15652 1488 00       		.byte	0
 15653 1489 00       		.byte	0
 15654 148a 00       		.byte	0
 15655 148b 00       		.byte	0
 15656 148c 02       		.byte	2
 15657 148d 00       		.byte	0
 15658 148e 00       		.byte	0
 15659 148f 20       		.byte	32
 15660 1490 02       		.byte	2
 15661 1491 00       		.byte	0
 15662 1492 00       		.byte	0
 15663 1493 20       		.byte	32
 15664 1494 02       		.byte	2
 15665 1495 00       		.byte	0
 15666 1496 00       		.byte	0
 15667 1497 20       		.byte	32
 15668 1498 02       		.byte	2
 15669 1499 00       		.byte	0
 15670 149a 00       		.byte	0
 15671 149b 20       		.byte	32
 15672 149c 03       		.byte	3
 15673 149d FF       		.byte	-1
 15674 149e FF       		.byte	-1
 15675 149f E0       		.byte	-32
 15676 14a0 03       		.byte	3
 15677 14a1 FF       		.byte	-1
 15678 14a2 FF       		.byte	-1
 15679 14a3 E0       		.byte	-32
 15680 14a4 02       		.byte	2
 15681 14a5 00       		.byte	0
 15682 14a6 00       		.byte	0
 15683 14a7 20       		.byte	32
 15684 14a8 02       		.byte	2
 15685 14a9 00       		.byte	0
 15686 14aa 00       		.byte	0
 15687 14ab 20       		.byte	32
 15688 14ac 02       		.byte	2
 15689 14ad 00       		.byte	0
 15690 14ae 00       		.byte	0
 15691 14af 20       		.byte	32
 15692 14b0 02       		.byte	2
 15693 14b1 00       		.byte	0
 15694 14b2 00       		.byte	0
 15695 14b3 20       		.byte	32
 15696 14b4 00       		.byte	0
 15697 14b5 00       		.byte	0
 15698 14b6 00       		.byte	0
 15699 14b7 00       		.byte	0
 15700 14b8 00       		.byte	0
 15701 14b9 00       		.byte	0
ARM GAS  /tmp/cco7znPM.s 			page 329


 15702 14ba 00       		.byte	0
 15703 14bb 00       		.byte	0
 15704 14bc 00       		.byte	0
 15705 14bd 00       		.byte	0
 15706 14be 00       		.byte	0
 15707 14bf 00       		.byte	0
 15708 14c0 00000000 		.space	64
 15708      00000000 
 15708      00000000 
 15708      00000000 
 15708      00000000 
 15709 1500 00       		.byte	0
 15710 1501 00       		.byte	0
 15711 1502 00       		.byte	0
 15712 1503 00       		.byte	0
 15713 1504 00       		.byte	0
 15714 1505 00       		.byte	0
 15715 1506 00       		.byte	0
 15716 1507 0E       		.byte	14
 15717 1508 00       		.byte	0
 15718 1509 00       		.byte	0
 15719 150a 00       		.byte	0
 15720 150b 0F       		.byte	15
 15721 150c 00       		.byte	0
 15722 150d 00       		.byte	0
 15723 150e 00       		.byte	0
 15724 150f 0F       		.byte	15
 15725 1510 00       		.byte	0
 15726 1511 00       		.byte	0
 15727 1512 00       		.byte	0
 15728 1513 01       		.byte	1
 15729 1514 02       		.byte	2
 15730 1515 00       		.byte	0
 15731 1516 00       		.byte	0
 15732 1517 01       		.byte	1
 15733 1518 02       		.byte	2
 15734 1519 00       		.byte	0
 15735 151a 00       		.byte	0
 15736 151b 01       		.byte	1
 15737 151c 02       		.byte	2
 15738 151d 00       		.byte	0
 15739 151e 00       		.byte	0
 15740 151f 03       		.byte	3
 15741 1520 02       		.byte	2
 15742 1521 00       		.byte	0
 15743 1522 00       		.byte	0
 15744 1523 06       		.byte	6
 15745 1524 03       		.byte	3
 15746 1525 FF       		.byte	-1
 15747 1526 FF       		.byte	-1
 15748 1527 FC       		.byte	-4
 15749 1528 03       		.byte	3
 15750 1529 FF       		.byte	-1
 15751 152a FF       		.byte	-1
 15752 152b F8       		.byte	-8
 15753 152c 02       		.byte	2
 15754 152d 00       		.byte	0
ARM GAS  /tmp/cco7znPM.s 			page 330


 15755 152e 00       		.byte	0
 15756 152f 00       		.byte	0
 15757 1530 02       		.byte	2
 15758 1531 00       		.byte	0
 15759 1532 00       		.byte	0
 15760 1533 00       		.byte	0
 15761 1534 02       		.byte	2
 15762 1535 00       		.byte	0
 15763 1536 00       		.byte	0
 15764 1537 00       		.byte	0
 15765 1538 02       		.byte	2
 15766 1539 00       		.byte	0
 15767 153a 00       		.byte	0
 15768 153b 00       		.byte	0
 15769 153c 00       		.byte	0
 15770 153d 00       		.byte	0
 15771 153e 00       		.byte	0
 15772 153f 00       		.byte	0
 15773 1540 00000000 		.space	64
 15773      00000000 
 15773      00000000 
 15773      00000000 
 15773      00000000 
 15774 1580 00       		.byte	0
 15775 1581 00       		.byte	0
 15776 1582 00       		.byte	0
 15777 1583 00       		.byte	0
 15778 1584 02       		.byte	2
 15779 1585 00       		.byte	0
 15780 1586 00       		.byte	0
 15781 1587 20       		.byte	32
 15782 1588 02       		.byte	2
 15783 1589 00       		.byte	0
 15784 158a 00       		.byte	0
 15785 158b 20       		.byte	32
 15786 158c 03       		.byte	3
 15787 158d FF       		.byte	-1
 15788 158e FF       		.byte	-1
 15789 158f E0       		.byte	-32
 15790 1590 03       		.byte	3
 15791 1591 FF       		.byte	-1
 15792 1592 FF       		.byte	-1
 15793 1593 E0       		.byte	-32
 15794 1594 02       		.byte	2
 15795 1595 00       		.byte	0
 15796 1596 C0       		.byte	-64
 15797 1597 20       		.byte	32
 15798 1598 02       		.byte	2
 15799 1599 01       		.byte	1
 15800 159a 00       		.byte	0
 15801 159b 20       		.byte	32
 15802 159c 00       		.byte	0
 15803 159d 07       		.byte	7
 15804 159e 80       		.byte	-128
 15805 159f 00       		.byte	0
 15806 15a0 00       		.byte	0
 15807 15a1 0F       		.byte	15
ARM GAS  /tmp/cco7znPM.s 			page 331


 15808 15a2 E0       		.byte	-32
 15809 15a3 00       		.byte	0
 15810 15a4 00       		.byte	0
 15811 15a5 30       		.byte	48
 15812 15a6 F8       		.byte	-8
 15813 15a7 00       		.byte	0
 15814 15a8 02       		.byte	2
 15815 15a9 60       		.byte	96
 15816 15aa 3E       		.byte	62
 15817 15ab 20       		.byte	32
 15818 15ac 03       		.byte	3
 15819 15ad 80       		.byte	-128
 15820 15ae 0F       		.byte	15
 15821 15af 20       		.byte	32
 15822 15b0 03       		.byte	3
 15823 15b1 00       		.byte	0
 15824 15b2 03       		.byte	3
 15825 15b3 E0       		.byte	-32
 15826 15b4 02       		.byte	2
 15827 15b5 00       		.byte	0
 15828 15b6 00       		.byte	0
 15829 15b7 E0       		.byte	-32
 15830 15b8 02       		.byte	2
 15831 15b9 00       		.byte	0
 15832 15ba 00       		.byte	0
 15833 15bb 20       		.byte	32
 15834 15bc 00       		.byte	0
 15835 15bd 00       		.byte	0
 15836 15be 00       		.byte	0
 15837 15bf 20       		.byte	32
 15838 15c0 00000000 		.space	64
 15838      00000000 
 15838      00000000 
 15838      00000000 
 15838      00000000 
 15839 1600 00       		.byte	0
 15840 1601 00       		.byte	0
 15841 1602 00       		.byte	0
 15842 1603 00       		.byte	0
 15843 1604 02       		.byte	2
 15844 1605 00       		.byte	0
 15845 1606 00       		.byte	0
 15846 1607 20       		.byte	32
 15847 1608 02       		.byte	2
 15848 1609 00       		.byte	0
 15849 160a 00       		.byte	0
 15850 160b 20       		.byte	32
 15851 160c 03       		.byte	3
 15852 160d FF       		.byte	-1
 15853 160e FF       		.byte	-1
 15854 160f E0       		.byte	-32
 15855 1610 03       		.byte	3
 15856 1611 FF       		.byte	-1
 15857 1612 FF       		.byte	-1
 15858 1613 E0       		.byte	-32
 15859 1614 02       		.byte	2
 15860 1615 00       		.byte	0
ARM GAS  /tmp/cco7znPM.s 			page 332


 15861 1616 00       		.byte	0
 15862 1617 20       		.byte	32
 15863 1618 02       		.byte	2
 15864 1619 00       		.byte	0
 15865 161a 00       		.byte	0
 15866 161b 20       		.byte	32
 15867 161c 00       		.byte	0
 15868 161d 00       		.byte	0
 15869 161e 00       		.byte	0
 15870 161f 20       		.byte	32
 15871 1620 00       		.byte	0
 15872 1621 00       		.byte	0
 15873 1622 00       		.byte	0
 15874 1623 20       		.byte	32
 15875 1624 00       		.byte	0
 15876 1625 00       		.byte	0
 15877 1626 00       		.byte	0
 15878 1627 20       		.byte	32
 15879 1628 00       		.byte	0
 15880 1629 00       		.byte	0
 15881 162a 00       		.byte	0
 15882 162b 20       		.byte	32
 15883 162c 00       		.byte	0
 15884 162d 00       		.byte	0
 15885 162e 00       		.byte	0
 15886 162f 20       		.byte	32
 15887 1630 00       		.byte	0
 15888 1631 00       		.byte	0
 15889 1632 00       		.byte	0
 15890 1633 60       		.byte	96
 15891 1634 00       		.byte	0
 15892 1635 00       		.byte	0
 15893 1636 00       		.byte	0
 15894 1637 E0       		.byte	-32
 15895 1638 00       		.byte	0
 15896 1639 00       		.byte	0
 15897 163a 03       		.byte	3
 15898 163b 00       		.byte	0
 15899 163c 00       		.byte	0
 15900 163d 00       		.byte	0
 15901 163e 00       		.byte	0
 15902 163f 00       		.byte	0
 15903 1640 00000000 		.space	64
 15903      00000000 
 15903      00000000 
 15903      00000000 
 15903      00000000 
 15904 1680 02       		.byte	2
 15905 1681 00       		.byte	0
 15906 1682 00       		.byte	0
 15907 1683 20       		.byte	32
 15908 1684 02       		.byte	2
 15909 1685 00       		.byte	0
 15910 1686 00       		.byte	0
 15911 1687 20       		.byte	32
 15912 1688 03       		.byte	3
 15913 1689 FF       		.byte	-1
ARM GAS  /tmp/cco7znPM.s 			page 333


 15914 168a FF       		.byte	-1
 15915 168b E0       		.byte	-32
 15916 168c 03       		.byte	3
 15917 168d E0       		.byte	-32
 15918 168e 00       		.byte	0
 15919 168f 20       		.byte	32
 15920 1690 03       		.byte	3
 15921 1691 FF       		.byte	-1
 15922 1692 00       		.byte	0
 15923 1693 20       		.byte	32
 15924 1694 00       		.byte	0
 15925 1695 1F       		.byte	31
 15926 1696 F0       		.byte	-16
 15927 1697 00       		.byte	0
 15928 1698 00       		.byte	0
 15929 1699 01       		.byte	1
 15930 169a FF       		.byte	-1
 15931 169b 80       		.byte	-128
 15932 169c 00       		.byte	0
 15933 169d 00       		.byte	0
 15934 169e 0F       		.byte	15
 15935 169f E0       		.byte	-32
 15936 16a0 00       		.byte	0
 15937 16a1 00       		.byte	0
 15938 16a2 1E       		.byte	30
 15939 16a3 00       		.byte	0
 15940 16a4 00       		.byte	0
 15941 16a5 03       		.byte	3
 15942 16a6 E0       		.byte	-32
 15943 16a7 00       		.byte	0
 15944 16a8 00       		.byte	0
 15945 16a9 3E       		.byte	62
 15946 16aa 00       		.byte	0
 15947 16ab 20       		.byte	32
 15948 16ac 03       		.byte	3
 15949 16ad E0       		.byte	-32
 15950 16ae 00       		.byte	0
 15951 16af 20       		.byte	32
 15952 16b0 03       		.byte	3
 15953 16b1 FF       		.byte	-1
 15954 16b2 FF       		.byte	-1
 15955 16b3 E0       		.byte	-32
 15956 16b4 03       		.byte	3
 15957 16b5 FF       		.byte	-1
 15958 16b6 FF       		.byte	-1
 15959 16b7 E0       		.byte	-32
 15960 16b8 02       		.byte	2
 15961 16b9 00       		.byte	0
 15962 16ba 00       		.byte	0
 15963 16bb 20       		.byte	32
 15964 16bc 02       		.byte	2
 15965 16bd 00       		.byte	0
 15966 16be 00       		.byte	0
 15967 16bf 20       		.byte	32
 15968 16c0 00000000 		.space	64
 15968      00000000 
 15968      00000000 
ARM GAS  /tmp/cco7znPM.s 			page 334


 15968      00000000 
 15968      00000000 
 15969 1700 02       		.byte	2
 15970 1701 00       		.byte	0
 15971 1702 00       		.byte	0
 15972 1703 20       		.byte	32
 15973 1704 02       		.byte	2
 15974 1705 00       		.byte	0
 15975 1706 00       		.byte	0
 15976 1707 20       		.byte	32
 15977 1708 03       		.byte	3
 15978 1709 FF       		.byte	-1
 15979 170a FF       		.byte	-1
 15980 170b E0       		.byte	-32
 15981 170c 03       		.byte	3
 15982 170d 80       		.byte	-128
 15983 170e 00       		.byte	0
 15984 170f 20       		.byte	32
 15985 1710 03       		.byte	3
 15986 1711 F0       		.byte	-16
 15987 1712 00       		.byte	0
 15988 1713 20       		.byte	32
 15989 1714 00       		.byte	0
 15990 1715 FC       		.byte	-4
 15991 1716 00       		.byte	0
 15992 1717 00       		.byte	0
 15993 1718 00       		.byte	0
 15994 1719 1F       		.byte	31
 15995 171a 00       		.byte	0
 15996 171b 00       		.byte	0
 15997 171c 00       		.byte	0
 15998 171d 07       		.byte	7
 15999 171e C0       		.byte	-64
 16000 171f 00       		.byte	0
 16001 1720 00       		.byte	0
 16002 1721 01       		.byte	1
 16003 1722 F0       		.byte	-16
 16004 1723 00       		.byte	0
 16005 1724 00       		.byte	0
 16006 1725 00       		.byte	0
 16007 1726 7C       		.byte	124
 16008 1727 00       		.byte	0
 16009 1728 02       		.byte	2
 16010 1729 00       		.byte	0
 16011 172a 1F       		.byte	31
 16012 172b 80       		.byte	-128
 16013 172c 02       		.byte	2
 16014 172d 00       		.byte	0
 16015 172e 07       		.byte	7
 16016 172f E0       		.byte	-32
 16017 1730 03       		.byte	3
 16018 1731 FF       		.byte	-1
 16019 1732 FF       		.byte	-1
 16020 1733 E0       		.byte	-32
 16021 1734 02       		.byte	2
 16022 1735 00       		.byte	0
 16023 1736 00       		.byte	0
ARM GAS  /tmp/cco7znPM.s 			page 335


 16024 1737 00       		.byte	0
 16025 1738 02       		.byte	2
 16026 1739 00       		.byte	0
 16027 173a 00       		.byte	0
 16028 173b 00       		.byte	0
 16029 173c 00       		.byte	0
 16030 173d 00       		.byte	0
 16031 173e 00       		.byte	0
 16032 173f 00       		.byte	0
 16033 1740 00000000 		.space	64
 16033      00000000 
 16033      00000000 
 16033      00000000 
 16033      00000000 
 16034 1780 00       		.byte	0
 16035 1781 00       		.byte	0
 16036 1782 00       		.byte	0
 16037 1783 00       		.byte	0
 16038 1784 00       		.byte	0
 16039 1785 0F       		.byte	15
 16040 1786 F8       		.byte	-8
 16041 1787 00       		.byte	0
 16042 1788 00       		.byte	0
 16043 1789 3F       		.byte	63
 16044 178a FE       		.byte	-2
 16045 178b 00       		.byte	0
 16046 178c 00       		.byte	0
 16047 178d F0       		.byte	-16
 16048 178e 07       		.byte	7
 16049 178f 80       		.byte	-128
 16050 1790 01       		.byte	1
 16051 1791 80       		.byte	-128
 16052 1792 00       		.byte	0
 16053 1793 C0       		.byte	-64
 16054 1794 01       		.byte	1
 16055 1795 00       		.byte	0
 16056 1796 00       		.byte	0
 16057 1797 40       		.byte	64
 16058 1798 02       		.byte	2
 16059 1799 00       		.byte	0
 16060 179a 00       		.byte	0
 16061 179b 20       		.byte	32
 16062 179c 02       		.byte	2
 16063 179d 00       		.byte	0
 16064 179e 00       		.byte	0
 16065 179f 20       		.byte	32
 16066 17a0 02       		.byte	2
 16067 17a1 00       		.byte	0
 16068 17a2 00       		.byte	0
 16069 17a3 20       		.byte	32
 16070 17a4 02       		.byte	2
 16071 17a5 00       		.byte	0
 16072 17a6 00       		.byte	0
 16073 17a7 20       		.byte	32
 16074 17a8 01       		.byte	1
 16075 17a9 00       		.byte	0
 16076 17aa 00       		.byte	0
ARM GAS  /tmp/cco7znPM.s 			page 336


 16077 17ab 40       		.byte	64
 16078 17ac 01       		.byte	1
 16079 17ad 80       		.byte	-128
 16080 17ae 00       		.byte	0
 16081 17af C0       		.byte	-64
 16082 17b0 00       		.byte	0
 16083 17b1 F0       		.byte	-16
 16084 17b2 03       		.byte	3
 16085 17b3 80       		.byte	-128
 16086 17b4 00       		.byte	0
 16087 17b5 3F       		.byte	63
 16088 17b6 FE       		.byte	-2
 16089 17b7 00       		.byte	0
 16090 17b8 00       		.byte	0
 16091 17b9 0F       		.byte	15
 16092 17ba F8       		.byte	-8
 16093 17bb 00       		.byte	0
 16094 17bc 00       		.byte	0
 16095 17bd 00       		.byte	0
 16096 17be 00       		.byte	0
 16097 17bf 00       		.byte	0
 16098 17c0 00000000 		.space	64
 16098      00000000 
 16098      00000000 
 16098      00000000 
 16098      00000000 
 16099 1800 00       		.byte	0
 16100 1801 00       		.byte	0
 16101 1802 00       		.byte	0
 16102 1803 00       		.byte	0
 16103 1804 02       		.byte	2
 16104 1805 00       		.byte	0
 16105 1806 00       		.byte	0
 16106 1807 20       		.byte	32
 16107 1808 02       		.byte	2
 16108 1809 00       		.byte	0
 16109 180a 00       		.byte	0
 16110 180b 20       		.byte	32
 16111 180c 03       		.byte	3
 16112 180d FF       		.byte	-1
 16113 180e FF       		.byte	-1
 16114 180f E0       		.byte	-32
 16115 1810 03       		.byte	3
 16116 1811 FF       		.byte	-1
 16117 1812 FF       		.byte	-1
 16118 1813 E0       		.byte	-32
 16119 1814 02       		.byte	2
 16120 1815 00       		.byte	0
 16121 1816 80       		.byte	-128
 16122 1817 20       		.byte	32
 16123 1818 02       		.byte	2
 16124 1819 00       		.byte	0
 16125 181a 80       		.byte	-128
 16126 181b 20       		.byte	32
 16127 181c 02       		.byte	2
 16128 181d 00       		.byte	0
 16129 181e 80       		.byte	-128
ARM GAS  /tmp/cco7znPM.s 			page 337


 16130 181f 00       		.byte	0
 16131 1820 02       		.byte	2
 16132 1821 00       		.byte	0
 16133 1822 80       		.byte	-128
 16134 1823 00       		.byte	0
 16135 1824 02       		.byte	2
 16136 1825 00       		.byte	0
 16137 1826 80       		.byte	-128
 16138 1827 00       		.byte	0
 16139 1828 02       		.byte	2
 16140 1829 00       		.byte	0
 16141 182a 80       		.byte	-128
 16142 182b 00       		.byte	0
 16143 182c 03       		.byte	3
 16144 182d 01       		.byte	1
 16145 182e 80       		.byte	-128
 16146 182f 00       		.byte	0
 16147 1830 01       		.byte	1
 16148 1831 83       		.byte	-125
 16149 1832 00       		.byte	0
 16150 1833 00       		.byte	0
 16151 1834 00       		.byte	0
 16152 1835 FE       		.byte	-2
 16153 1836 00       		.byte	0
 16154 1837 00       		.byte	0
 16155 1838 00       		.byte	0
 16156 1839 7C       		.byte	124
 16157 183a 00       		.byte	0
 16158 183b 00       		.byte	0
 16159 183c 00       		.byte	0
 16160 183d 00       		.byte	0
 16161 183e 00       		.byte	0
 16162 183f 00       		.byte	0
 16163 1840 00000000 		.space	64
 16163      00000000 
 16163      00000000 
 16163      00000000 
 16163      00000000 
 16164 1880 00       		.byte	0
 16165 1881 00       		.byte	0
 16166 1882 00       		.byte	0
 16167 1883 00       		.byte	0
 16168 1884 00       		.byte	0
 16169 1885 0F       		.byte	15
 16170 1886 F8       		.byte	-8
 16171 1887 00       		.byte	0
 16172 1888 00       		.byte	0
 16173 1889 7F       		.byte	127
 16174 188a FF       		.byte	-1
 16175 188b 00       		.byte	0
 16176 188c 00       		.byte	0
 16177 188d F0       		.byte	-16
 16178 188e 03       		.byte	3
 16179 188f 80       		.byte	-128
 16180 1890 01       		.byte	1
 16181 1891 80       		.byte	-128
 16182 1892 01       		.byte	1
ARM GAS  /tmp/cco7znPM.s 			page 338


 16183 1893 C0       		.byte	-64
 16184 1894 01       		.byte	1
 16185 1895 00       		.byte	0
 16186 1896 06       		.byte	6
 16187 1897 40       		.byte	64
 16188 1898 02       		.byte	2
 16189 1899 00       		.byte	0
 16190 189a 04       		.byte	4
 16191 189b 20       		.byte	32
 16192 189c 02       		.byte	2
 16193 189d 00       		.byte	0
 16194 189e 04       		.byte	4
 16195 189f 20       		.byte	32
 16196 18a0 02       		.byte	2
 16197 18a1 00       		.byte	0
 16198 18a2 06       		.byte	6
 16199 18a3 20       		.byte	32
 16200 18a4 02       		.byte	2
 16201 18a5 00       		.byte	0
 16202 18a6 03       		.byte	3
 16203 18a7 E0       		.byte	-32
 16204 18a8 01       		.byte	1
 16205 18a9 00       		.byte	0
 16206 18aa 00       		.byte	0
 16207 18ab F8       		.byte	-8
 16208 18ac 01       		.byte	1
 16209 18ad 80       		.byte	-128
 16210 18ae 00       		.byte	0
 16211 18af 5C       		.byte	92
 16212 18b0 00       		.byte	0
 16213 18b1 E0       		.byte	-32
 16214 18b2 03       		.byte	3
 16215 18b3 8C       		.byte	-116
 16216 18b4 00       		.byte	0
 16217 18b5 3F       		.byte	63
 16218 18b6 FF       		.byte	-1
 16219 18b7 0C       		.byte	12
 16220 18b8 00       		.byte	0
 16221 18b9 0F       		.byte	15
 16222 18ba FC       		.byte	-4
 16223 18bb 18       		.byte	24
 16224 18bc 00       		.byte	0
 16225 18bd 00       		.byte	0
 16226 18be 00       		.byte	0
 16227 18bf 00       		.byte	0
 16228 18c0 00000000 		.space	64
 16228      00000000 
 16228      00000000 
 16228      00000000 
 16228      00000000 
 16229 1900 00       		.byte	0
 16230 1901 00       		.byte	0
 16231 1902 00       		.byte	0
 16232 1903 00       		.byte	0
 16233 1904 02       		.byte	2
 16234 1905 00       		.byte	0
 16235 1906 00       		.byte	0
ARM GAS  /tmp/cco7znPM.s 			page 339


 16236 1907 20       		.byte	32
 16237 1908 02       		.byte	2
 16238 1909 00       		.byte	0
 16239 190a 00       		.byte	0
 16240 190b 20       		.byte	32
 16241 190c 03       		.byte	3
 16242 190d FF       		.byte	-1
 16243 190e FF       		.byte	-1
 16244 190f E0       		.byte	-32
 16245 1910 03       		.byte	3
 16246 1911 FF       		.byte	-1
 16247 1912 FF       		.byte	-1
 16248 1913 E0       		.byte	-32
 16249 1914 02       		.byte	2
 16250 1915 01       		.byte	1
 16251 1916 00       		.byte	0
 16252 1917 20       		.byte	32
 16253 1918 02       		.byte	2
 16254 1919 01       		.byte	1
 16255 191a 00       		.byte	0
 16256 191b 20       		.byte	32
 16257 191c 02       		.byte	2
 16258 191d 01       		.byte	1
 16259 191e 80       		.byte	-128
 16260 191f 00       		.byte	0
 16261 1920 02       		.byte	2
 16262 1921 01       		.byte	1
 16263 1922 E0       		.byte	-32
 16264 1923 00       		.byte	0
 16265 1924 02       		.byte	2
 16266 1925 01       		.byte	1
 16267 1926 FC       		.byte	-4
 16268 1927 00       		.byte	0
 16269 1928 03       		.byte	3
 16270 1929 03       		.byte	3
 16271 192a 3F       		.byte	63
 16272 192b 80       		.byte	-128
 16273 192c 01       		.byte	1
 16274 192d 86       		.byte	-122
 16275 192e 07       		.byte	7
 16276 192f E0       		.byte	-32
 16277 1930 01       		.byte	1
 16278 1931 FC       		.byte	-4
 16279 1932 00       		.byte	0
 16280 1933 E0       		.byte	-32
 16281 1934 00       		.byte	0
 16282 1935 F8       		.byte	-8
 16283 1936 00       		.byte	0
 16284 1937 20       		.byte	32
 16285 1938 00       		.byte	0
 16286 1939 00       		.byte	0
 16287 193a 00       		.byte	0
 16288 193b 20       		.byte	32
 16289 193c 00       		.byte	0
 16290 193d 00       		.byte	0
 16291 193e 00       		.byte	0
 16292 193f 00       		.byte	0
ARM GAS  /tmp/cco7znPM.s 			page 340


 16293 1940 00000000 		.space	64
 16293      00000000 
 16293      00000000 
 16293      00000000 
 16293      00000000 
 16294 1980 00       		.byte	0
 16295 1981 00       		.byte	0
 16296 1982 00       		.byte	0
 16297 1983 00       		.byte	0
 16298 1984 00       		.byte	0
 16299 1985 00       		.byte	0
 16300 1986 00       		.byte	0
 16301 1987 00       		.byte	0
 16302 1988 00       		.byte	0
 16303 1989 78       		.byte	120
 16304 198a 06       		.byte	6
 16305 198b 00       		.byte	0
 16306 198c 00       		.byte	0
 16307 198d FE       		.byte	-2
 16308 198e 01       		.byte	1
 16309 198f E0       		.byte	-32
 16310 1990 01       		.byte	1
 16311 1991 86       		.byte	-122
 16312 1992 00       		.byte	0
 16313 1993 C0       		.byte	-64
 16314 1994 03       		.byte	3
 16315 1995 03       		.byte	3
 16316 1996 00       		.byte	0
 16317 1997 40       		.byte	64
 16318 1998 02       		.byte	2
 16319 1999 03       		.byte	3
 16320 199a 00       		.byte	0
 16321 199b 20       		.byte	32
 16322 199c 02       		.byte	2
 16323 199d 01       		.byte	1
 16324 199e 80       		.byte	-128
 16325 199f 20       		.byte	32
 16326 19a0 02       		.byte	2
 16327 19a1 01       		.byte	1
 16328 19a2 80       		.byte	-128
 16329 19a3 20       		.byte	32
 16330 19a4 02       		.byte	2
 16331 19a5 01       		.byte	1
 16332 19a6 C0       		.byte	-64
 16333 19a7 20       		.byte	32
 16334 19a8 02       		.byte	2
 16335 19a9 00       		.byte	0
 16336 19aa C0       		.byte	-64
 16337 19ab 20       		.byte	32
 16338 19ac 01       		.byte	1
 16339 19ad 00       		.byte	0
 16340 19ae E0       		.byte	-32
 16341 19af 60       		.byte	96
 16342 19b0 01       		.byte	1
 16343 19b1 80       		.byte	-128
 16344 19b2 70       		.byte	112
 16345 19b3 C0       		.byte	-64
ARM GAS  /tmp/cco7znPM.s 			page 341


 16346 19b4 03       		.byte	3
 16347 19b5 E0       		.byte	-32
 16348 19b6 3F       		.byte	63
 16349 19b7 80       		.byte	-128
 16350 19b8 00       		.byte	0
 16351 19b9 00       		.byte	0
 16352 19ba 1F       		.byte	31
 16353 19bb 00       		.byte	0
 16354 19bc 00       		.byte	0
 16355 19bd 00       		.byte	0
 16356 19be 00       		.byte	0
 16357 19bf 00       		.byte	0
 16358 19c0 00000000 		.space	64
 16358      00000000 
 16358      00000000 
 16358      00000000 
 16358      00000000 
 16359 1a00 00       		.byte	0
 16360 1a01 00       		.byte	0
 16361 1a02 00       		.byte	0
 16362 1a03 00       		.byte	0
 16363 1a04 00       		.byte	0
 16364 1a05 60       		.byte	96
 16365 1a06 00       		.byte	0
 16366 1a07 00       		.byte	0
 16367 1a08 03       		.byte	3
 16368 1a09 80       		.byte	-128
 16369 1a0a 00       		.byte	0
 16370 1a0b 00       		.byte	0
 16371 1a0c 03       		.byte	3
 16372 1a0d 00       		.byte	0
 16373 1a0e 00       		.byte	0
 16374 1a0f 00       		.byte	0
 16375 1a10 02       		.byte	2
 16376 1a11 00       		.byte	0
 16377 1a12 00       		.byte	0
 16378 1a13 00       		.byte	0
 16379 1a14 02       		.byte	2
 16380 1a15 00       		.byte	0
 16381 1a16 00       		.byte	0
 16382 1a17 20       		.byte	32
 16383 1a18 02       		.byte	2
 16384 1a19 00       		.byte	0
 16385 1a1a 00       		.byte	0
 16386 1a1b 20       		.byte	32
 16387 1a1c 03       		.byte	3
 16388 1a1d FF       		.byte	-1
 16389 1a1e FF       		.byte	-1
 16390 1a1f E0       		.byte	-32
 16391 1a20 03       		.byte	3
 16392 1a21 FF       		.byte	-1
 16393 1a22 FF       		.byte	-1
 16394 1a23 E0       		.byte	-32
 16395 1a24 02       		.byte	2
 16396 1a25 00       		.byte	0
 16397 1a26 00       		.byte	0
 16398 1a27 20       		.byte	32
ARM GAS  /tmp/cco7znPM.s 			page 342


 16399 1a28 02       		.byte	2
 16400 1a29 00       		.byte	0
 16401 1a2a 00       		.byte	0
 16402 1a2b 20       		.byte	32
 16403 1a2c 02       		.byte	2
 16404 1a2d 00       		.byte	0
 16405 1a2e 00       		.byte	0
 16406 1a2f 00       		.byte	0
 16407 1a30 02       		.byte	2
 16408 1a31 00       		.byte	0
 16409 1a32 00       		.byte	0
 16410 1a33 00       		.byte	0
 16411 1a34 03       		.byte	3
 16412 1a35 80       		.byte	-128
 16413 1a36 00       		.byte	0
 16414 1a37 00       		.byte	0
 16415 1a38 00       		.byte	0
 16416 1a39 E0       		.byte	-32
 16417 1a3a 00       		.byte	0
 16418 1a3b 00       		.byte	0
 16419 1a3c 00       		.byte	0
 16420 1a3d 00       		.byte	0
 16421 1a3e 00       		.byte	0
 16422 1a3f 00       		.byte	0
 16423 1a40 00000000 		.space	64
 16423      00000000 
 16423      00000000 
 16423      00000000 
 16423      00000000 
 16424 1a80 02       		.byte	2
 16425 1a81 00       		.byte	0
 16426 1a82 00       		.byte	0
 16427 1a83 00       		.byte	0
 16428 1a84 02       		.byte	2
 16429 1a85 00       		.byte	0
 16430 1a86 00       		.byte	0
 16431 1a87 00       		.byte	0
 16432 1a88 03       		.byte	3
 16433 1a89 FF       		.byte	-1
 16434 1a8a FF       		.byte	-1
 16435 1a8b 00       		.byte	0
 16436 1a8c 03       		.byte	3
 16437 1a8d FF       		.byte	-1
 16438 1a8e FF       		.byte	-1
 16439 1a8f C0       		.byte	-64
 16440 1a90 02       		.byte	2
 16441 1a91 00       		.byte	0
 16442 1a92 00       		.byte	0
 16443 1a93 40       		.byte	64
 16444 1a94 02       		.byte	2
 16445 1a95 00       		.byte	0
 16446 1a96 00       		.byte	0
 16447 1a97 60       		.byte	96
 16448 1a98 00       		.byte	0
 16449 1a99 00       		.byte	0
 16450 1a9a 00       		.byte	0
 16451 1a9b 20       		.byte	32
ARM GAS  /tmp/cco7znPM.s 			page 343


 16452 1a9c 00       		.byte	0
 16453 1a9d 00       		.byte	0
 16454 1a9e 00       		.byte	0
 16455 1a9f 20       		.byte	32
 16456 1aa0 00       		.byte	0
 16457 1aa1 00       		.byte	0
 16458 1aa2 00       		.byte	0
 16459 1aa3 20       		.byte	32
 16460 1aa4 00       		.byte	0
 16461 1aa5 00       		.byte	0
 16462 1aa6 00       		.byte	0
 16463 1aa7 20       		.byte	32
 16464 1aa8 02       		.byte	2
 16465 1aa9 00       		.byte	0
 16466 1aaa 00       		.byte	0
 16467 1aab 40       		.byte	64
 16468 1aac 02       		.byte	2
 16469 1aad 00       		.byte	0
 16470 1aae 00       		.byte	0
 16471 1aaf 80       		.byte	-128
 16472 1ab0 03       		.byte	3
 16473 1ab1 FF       		.byte	-1
 16474 1ab2 FF       		.byte	-1
 16475 1ab3 00       		.byte	0
 16476 1ab4 02       		.byte	2
 16477 1ab5 00       		.byte	0
 16478 1ab6 00       		.byte	0
 16479 1ab7 00       		.byte	0
 16480 1ab8 02       		.byte	2
 16481 1ab9 00       		.byte	0
 16482 1aba 00       		.byte	0
 16483 1abb 00       		.byte	0
 16484 1abc 00       		.byte	0
 16485 1abd 00       		.byte	0
 16486 1abe 00       		.byte	0
 16487 1abf 00       		.byte	0
 16488 1ac0 00000000 		.space	64
 16488      00000000 
 16488      00000000 
 16488      00000000 
 16488      00000000 
 16489 1b00 00       		.byte	0
 16490 1b01 00       		.byte	0
 16491 1b02 00       		.byte	0
 16492 1b03 00       		.byte	0
 16493 1b04 02       		.byte	2
 16494 1b05 00       		.byte	0
 16495 1b06 00       		.byte	0
 16496 1b07 00       		.byte	0
 16497 1b08 02       		.byte	2
 16498 1b09 00       		.byte	0
 16499 1b0a 00       		.byte	0
 16500 1b0b 00       		.byte	0
 16501 1b0c 03       		.byte	3
 16502 1b0d C0       		.byte	-64
 16503 1b0e 00       		.byte	0
 16504 1b0f 00       		.byte	0
ARM GAS  /tmp/cco7znPM.s 			page 344


 16505 1b10 03       		.byte	3
 16506 1b11 FC       		.byte	-4
 16507 1b12 00       		.byte	0
 16508 1b13 00       		.byte	0
 16509 1b14 02       		.byte	2
 16510 1b15 3F       		.byte	63
 16511 1b16 C0       		.byte	-64
 16512 1b17 00       		.byte	0
 16513 1b18 00       		.byte	0
 16514 1b19 03       		.byte	3
 16515 1b1a F8       		.byte	-8
 16516 1b1b 00       		.byte	0
 16517 1b1c 00       		.byte	0
 16518 1b1d 00       		.byte	0
 16519 1b1e 7F       		.byte	127
 16520 1b1f 80       		.byte	-128
 16521 1b20 00       		.byte	0
 16522 1b21 00       		.byte	0
 16523 1b22 07       		.byte	7
 16524 1b23 E0       		.byte	-32
 16525 1b24 00       		.byte	0
 16526 1b25 00       		.byte	0
 16527 1b26 07       		.byte	7
 16528 1b27 80       		.byte	-128
 16529 1b28 00       		.byte	0
 16530 1b29 00       		.byte	0
 16531 1b2a 78       		.byte	120
 16532 1b2b 00       		.byte	0
 16533 1b2c 02       		.byte	2
 16534 1b2d 03       		.byte	3
 16535 1b2e C0       		.byte	-64
 16536 1b2f 00       		.byte	0
 16537 1b30 02       		.byte	2
 16538 1b31 3C       		.byte	60
 16539 1b32 00       		.byte	0
 16540 1b33 00       		.byte	0
 16541 1b34 03       		.byte	3
 16542 1b35 C0       		.byte	-64
 16543 1b36 00       		.byte	0
 16544 1b37 00       		.byte	0
 16545 1b38 02       		.byte	2
 16546 1b39 00       		.byte	0
 16547 1b3a 00       		.byte	0
 16548 1b3b 00       		.byte	0
 16549 1b3c 02       		.byte	2
 16550 1b3d 00       		.byte	0
 16551 1b3e 00       		.byte	0
 16552 1b3f 00       		.byte	0
 16553 1b40 00000000 		.space	64
 16553      00000000 
 16553      00000000 
 16553      00000000 
 16553      00000000 
 16554 1b80 02       		.byte	2
 16555 1b81 00       		.byte	0
 16556 1b82 00       		.byte	0
 16557 1b83 00       		.byte	0
ARM GAS  /tmp/cco7znPM.s 			page 345


 16558 1b84 03       		.byte	3
 16559 1b85 C0       		.byte	-64
 16560 1b86 00       		.byte	0
 16561 1b87 00       		.byte	0
 16562 1b88 03       		.byte	3
 16563 1b89 FF       		.byte	-1
 16564 1b8a 80       		.byte	-128
 16565 1b8b 00       		.byte	0
 16566 1b8c 02       		.byte	2
 16567 1b8d 3F       		.byte	63
 16568 1b8e FE       		.byte	-2
 16569 1b8f 00       		.byte	0
 16570 1b90 02       		.byte	2
 16571 1b91 00       		.byte	0
 16572 1b92 7F       		.byte	127
 16573 1b93 E0       		.byte	-32
 16574 1b94 00       		.byte	0
 16575 1b95 00       		.byte	0
 16576 1b96 0F       		.byte	15
 16577 1b97 00       		.byte	0
 16578 1b98 02       		.byte	2
 16579 1b99 00       		.byte	0
 16580 1b9a F0       		.byte	-16
 16581 1b9b 00       		.byte	0
 16582 1b9c 03       		.byte	3
 16583 1b9d EF       		.byte	-17
 16584 1b9e 00       		.byte	0
 16585 1b9f 00       		.byte	0
 16586 1ba0 03       		.byte	3
 16587 1ba1 FF       		.byte	-1
 16588 1ba2 80       		.byte	-128
 16589 1ba3 00       		.byte	0
 16590 1ba4 02       		.byte	2
 16591 1ba5 0F       		.byte	15
 16592 1ba6 FE       		.byte	-2
 16593 1ba7 00       		.byte	0
 16594 1ba8 00       		.byte	0
 16595 1ba9 00       		.byte	0
 16596 1baa 3F       		.byte	63
 16597 1bab E0       		.byte	-32
 16598 1bac 00       		.byte	0
 16599 1bad 00       		.byte	0
 16600 1bae 1F       		.byte	31
 16601 1baf 00       		.byte	0
 16602 1bb0 02       		.byte	2
 16603 1bb1 07       		.byte	7
 16604 1bb2 E0       		.byte	-32
 16605 1bb3 00       		.byte	0
 16606 1bb4 03       		.byte	3
 16607 1bb5 F8       		.byte	-8
 16608 1bb6 00       		.byte	0
 16609 1bb7 00       		.byte	0
 16610 1bb8 03       		.byte	3
 16611 1bb9 00       		.byte	0
 16612 1bba 00       		.byte	0
 16613 1bbb 00       		.byte	0
 16614 1bbc 02       		.byte	2
ARM GAS  /tmp/cco7znPM.s 			page 346


 16615 1bbd 00       		.byte	0
 16616 1bbe 00       		.byte	0
 16617 1bbf 00       		.byte	0
 16618 1bc0 00000000 		.space	64
 16618      00000000 
 16618      00000000 
 16618      00000000 
 16618      00000000 
 16619 1c00 00       		.byte	0
 16620 1c01 00       		.byte	0
 16621 1c02 00       		.byte	0
 16622 1c03 00       		.byte	0
 16623 1c04 02       		.byte	2
 16624 1c05 00       		.byte	0
 16625 1c06 00       		.byte	0
 16626 1c07 20       		.byte	32
 16627 1c08 02       		.byte	2
 16628 1c09 00       		.byte	0
 16629 1c0a 00       		.byte	0
 16630 1c0b 20       		.byte	32
 16631 1c0c 03       		.byte	3
 16632 1c0d 80       		.byte	-128
 16633 1c0e 00       		.byte	0
 16634 1c0f E0       		.byte	-32
 16635 1c10 03       		.byte	3
 16636 1c11 F0       		.byte	-16
 16637 1c12 03       		.byte	3
 16638 1c13 20       		.byte	32
 16639 1c14 02       		.byte	2
 16640 1c15 FC       		.byte	-4
 16641 1c16 0C       		.byte	12
 16642 1c17 20       		.byte	32
 16643 1c18 02       		.byte	2
 16644 1c19 1F       		.byte	31
 16645 1c1a 30       		.byte	48
 16646 1c1b 00       		.byte	0
 16647 1c1c 00       		.byte	0
 16648 1c1d 07       		.byte	7
 16649 1c1e C0       		.byte	-64
 16650 1c1f 00       		.byte	0
 16651 1c20 00       		.byte	0
 16652 1c21 07       		.byte	7
 16653 1c22 F0       		.byte	-16
 16654 1c23 00       		.byte	0
 16655 1c24 02       		.byte	2
 16656 1c25 18       		.byte	24
 16657 1c26 7C       		.byte	124
 16658 1c27 00       		.byte	0
 16659 1c28 02       		.byte	2
 16660 1c29 60       		.byte	96
 16661 1c2a 1F       		.byte	31
 16662 1c2b 20       		.byte	32
 16663 1c2c 03       		.byte	3
 16664 1c2d 80       		.byte	-128
 16665 1c2e 03       		.byte	3
 16666 1c2f E0       		.byte	-32
 16667 1c30 02       		.byte	2
ARM GAS  /tmp/cco7znPM.s 			page 347


 16668 1c31 00       		.byte	0
 16669 1c32 00       		.byte	0
 16670 1c33 E0       		.byte	-32
 16671 1c34 02       		.byte	2
 16672 1c35 00       		.byte	0
 16673 1c36 00       		.byte	0
 16674 1c37 20       		.byte	32
 16675 1c38 00       		.byte	0
 16676 1c39 00       		.byte	0
 16677 1c3a 00       		.byte	0
 16678 1c3b 20       		.byte	32
 16679 1c3c 00       		.byte	0
 16680 1c3d 00       		.byte	0
 16681 1c3e 00       		.byte	0
 16682 1c3f 00       		.byte	0
 16683 1c40 00000000 		.space	64
 16683      00000000 
 16683      00000000 
 16683      00000000 
 16683      00000000 
 16684 1c80 00       		.byte	0
 16685 1c81 00       		.byte	0
 16686 1c82 00       		.byte	0
 16687 1c83 00       		.byte	0
 16688 1c84 02       		.byte	2
 16689 1c85 00       		.byte	0
 16690 1c86 00       		.byte	0
 16691 1c87 00       		.byte	0
 16692 1c88 03       		.byte	3
 16693 1c89 00       		.byte	0
 16694 1c8a 00       		.byte	0
 16695 1c8b 00       		.byte	0
 16696 1c8c 03       		.byte	3
 16697 1c8d C0       		.byte	-64
 16698 1c8e 00       		.byte	0
 16699 1c8f 00       		.byte	0
 16700 1c90 03       		.byte	3
 16701 1c91 F8       		.byte	-8
 16702 1c92 00       		.byte	0
 16703 1c93 00       		.byte	0
 16704 1c94 02       		.byte	2
 16705 1c95 3E       		.byte	62
 16706 1c96 00       		.byte	0
 16707 1c97 20       		.byte	32
 16708 1c98 02       		.byte	2
 16709 1c99 0F       		.byte	15
 16710 1c9a C0       		.byte	-64
 16711 1c9b 20       		.byte	32
 16712 1c9c 00       		.byte	0
 16713 1c9d 01       		.byte	1
 16714 1c9e FF       		.byte	-1
 16715 1c9f E0       		.byte	-32
 16716 1ca0 00       		.byte	0
 16717 1ca1 00       		.byte	0
 16718 1ca2 7F       		.byte	127
 16719 1ca3 E0       		.byte	-32
 16720 1ca4 00       		.byte	0
ARM GAS  /tmp/cco7znPM.s 			page 348


 16721 1ca5 03       		.byte	3
 16722 1ca6 80       		.byte	-128
 16723 1ca7 20       		.byte	32
 16724 1ca8 02       		.byte	2
 16725 1ca9 1C       		.byte	28
 16726 1caa 00       		.byte	0
 16727 1cab 20       		.byte	32
 16728 1cac 02       		.byte	2
 16729 1cad 70       		.byte	112
 16730 1cae 00       		.byte	0
 16731 1caf 00       		.byte	0
 16732 1cb0 03       		.byte	3
 16733 1cb1 80       		.byte	-128
 16734 1cb2 00       		.byte	0
 16735 1cb3 00       		.byte	0
 16736 1cb4 02       		.byte	2
 16737 1cb5 00       		.byte	0
 16738 1cb6 00       		.byte	0
 16739 1cb7 00       		.byte	0
 16740 1cb8 02       		.byte	2
 16741 1cb9 00       		.byte	0
 16742 1cba 00       		.byte	0
 16743 1cbb 00       		.byte	0
 16744 1cbc 00       		.byte	0
 16745 1cbd 00       		.byte	0
 16746 1cbe 00       		.byte	0
 16747 1cbf 00       		.byte	0
 16748 1cc0 00000000 		.space	64
 16748      00000000 
 16748      00000000 
 16748      00000000 
 16748      00000000 
 16749 1d00 00       		.byte	0
 16750 1d01 00       		.byte	0
 16751 1d02 00       		.byte	0
 16752 1d03 00       		.byte	0
 16753 1d04 00       		.byte	0
 16754 1d05 00       		.byte	0
 16755 1d06 00       		.byte	0
 16756 1d07 20       		.byte	32
 16757 1d08 00       		.byte	0
 16758 1d09 60       		.byte	96
 16759 1d0a 00       		.byte	0
 16760 1d0b E0       		.byte	-32
 16761 1d0c 03       		.byte	3
 16762 1d0d 80       		.byte	-128
 16763 1d0e 03       		.byte	3
 16764 1d0f E0       		.byte	-32
 16765 1d10 03       		.byte	3
 16766 1d11 00       		.byte	0
 16767 1d12 0F       		.byte	15
 16768 1d13 A0       		.byte	-96
 16769 1d14 02       		.byte	2
 16770 1d15 00       		.byte	0
 16771 1d16 3E       		.byte	62
 16772 1d17 20       		.byte	32
 16773 1d18 02       		.byte	2
ARM GAS  /tmp/cco7znPM.s 			page 349


 16774 1d19 00       		.byte	0
 16775 1d1a F8       		.byte	-8
 16776 1d1b 20       		.byte	32
 16777 1d1c 02       		.byte	2
 16778 1d1d 03       		.byte	3
 16779 1d1e E0       		.byte	-32
 16780 1d1f 20       		.byte	32
 16781 1d20 02       		.byte	2
 16782 1d21 0F       		.byte	15
 16783 1d22 80       		.byte	-128
 16784 1d23 20       		.byte	32
 16785 1d24 02       		.byte	2
 16786 1d25 3E       		.byte	62
 16787 1d26 00       		.byte	0
 16788 1d27 20       		.byte	32
 16789 1d28 02       		.byte	2
 16790 1d29 78       		.byte	120
 16791 1d2a 00       		.byte	0
 16792 1d2b 20       		.byte	32
 16793 1d2c 03       		.byte	3
 16794 1d2d E0       		.byte	-32
 16795 1d2e 00       		.byte	0
 16796 1d2f 60       		.byte	96
 16797 1d30 03       		.byte	3
 16798 1d31 80       		.byte	-128
 16799 1d32 00       		.byte	0
 16800 1d33 E0       		.byte	-32
 16801 1d34 02       		.byte	2
 16802 1d35 00       		.byte	0
 16803 1d36 03       		.byte	3
 16804 1d37 00       		.byte	0
 16805 1d38 00       		.byte	0
 16806 1d39 00       		.byte	0
 16807 1d3a 00       		.byte	0
 16808 1d3b 00       		.byte	0
 16809 1d3c 00       		.byte	0
 16810 1d3d 00       		.byte	0
 16811 1d3e 00       		.byte	0
 16812 1d3f 00       		.byte	0
 16813 1d40 00000000 		.space	64
 16813      00000000 
 16813      00000000 
 16813      00000000 
 16813      00000000 
 16814 1d80 00       		.byte	0
 16815 1d81 00       		.byte	0
 16816 1d82 00       		.byte	0
 16817 1d83 00       		.byte	0
 16818 1d84 00       		.byte	0
 16819 1d85 00       		.byte	0
 16820 1d86 00       		.byte	0
 16821 1d87 00       		.byte	0
 16822 1d88 00       		.byte	0
 16823 1d89 00       		.byte	0
 16824 1d8a 00       		.byte	0
 16825 1d8b 00       		.byte	0
 16826 1d8c 00       		.byte	0
ARM GAS  /tmp/cco7znPM.s 			page 350


 16827 1d8d 00       		.byte	0
 16828 1d8e 00       		.byte	0
 16829 1d8f 00       		.byte	0
 16830 1d90 00       		.byte	0
 16831 1d91 00       		.byte	0
 16832 1d92 00       		.byte	0
 16833 1d93 00       		.byte	0
 16834 1d94 00       		.byte	0
 16835 1d95 00       		.byte	0
 16836 1d96 00       		.byte	0
 16837 1d97 00       		.byte	0
 16838 1d98 1F       		.byte	31
 16839 1d99 FF       		.byte	-1
 16840 1d9a FF       		.byte	-1
 16841 1d9b FC       		.byte	-4
 16842 1d9c 10       		.byte	16
 16843 1d9d 00       		.byte	0
 16844 1d9e 00       		.byte	0
 16845 1d9f 04       		.byte	4
 16846 1da0 10       		.byte	16
 16847 1da1 00       		.byte	0
 16848 1da2 00       		.byte	0
 16849 1da3 04       		.byte	4
 16850 1da4 10       		.byte	16
 16851 1da5 00       		.byte	0
 16852 1da6 00       		.byte	0
 16853 1da7 04       		.byte	4
 16854 1da8 10       		.byte	16
 16855 1da9 00       		.byte	0
 16856 1daa 00       		.byte	0
 16857 1dab 04       		.byte	4
 16858 1dac 10       		.byte	16
 16859 1dad 00       		.byte	0
 16860 1dae 00       		.byte	0
 16861 1daf 04       		.byte	4
 16862 1db0 10       		.byte	16
 16863 1db1 00       		.byte	0
 16864 1db2 00       		.byte	0
 16865 1db3 04       		.byte	4
 16866 1db4 10       		.byte	16
 16867 1db5 00       		.byte	0
 16868 1db6 00       		.byte	0
 16869 1db7 04       		.byte	4
 16870 1db8 00       		.byte	0
 16871 1db9 00       		.byte	0
 16872 1dba 00       		.byte	0
 16873 1dbb 00       		.byte	0
 16874 1dbc 00       		.byte	0
 16875 1dbd 00       		.byte	0
 16876 1dbe 00       		.byte	0
 16877 1dbf 00       		.byte	0
 16878 1dc0 00000000 		.space	64
 16878      00000000 
 16878      00000000 
 16878      00000000 
 16878      00000000 
 16879 1e00 00       		.byte	0
ARM GAS  /tmp/cco7znPM.s 			page 351


 16880 1e01 00       		.byte	0
 16881 1e02 00       		.byte	0
 16882 1e03 00       		.byte	0
 16883 1e04 00       		.byte	0
 16884 1e05 00       		.byte	0
 16885 1e06 00       		.byte	0
 16886 1e07 00       		.byte	0
 16887 1e08 00       		.byte	0
 16888 1e09 00       		.byte	0
 16889 1e0a 00       		.byte	0
 16890 1e0b 00       		.byte	0
 16891 1e0c 07       		.byte	7
 16892 1e0d 00       		.byte	0
 16893 1e0e 00       		.byte	0
 16894 1e0f 00       		.byte	0
 16895 1e10 03       		.byte	3
 16896 1e11 C0       		.byte	-64
 16897 1e12 00       		.byte	0
 16898 1e13 00       		.byte	0
 16899 1e14 00       		.byte	0
 16900 1e15 78       		.byte	120
 16901 1e16 00       		.byte	0
 16902 1e17 00       		.byte	0
 16903 1e18 00       		.byte	0
 16904 1e19 1E       		.byte	30
 16905 1e1a 00       		.byte	0
 16906 1e1b 00       		.byte	0
 16907 1e1c 00       		.byte	0
 16908 1e1d 03       		.byte	3
 16909 1e1e C0       		.byte	-64
 16910 1e1f 00       		.byte	0
 16911 1e20 00       		.byte	0
 16912 1e21 00       		.byte	0
 16913 1e22 F0       		.byte	-16
 16914 1e23 00       		.byte	0
 16915 1e24 00       		.byte	0
 16916 1e25 00       		.byte	0
 16917 1e26 1E       		.byte	30
 16918 1e27 00       		.byte	0
 16919 1e28 00       		.byte	0
 16920 1e29 00       		.byte	0
 16921 1e2a 07       		.byte	7
 16922 1e2b 80       		.byte	-128
 16923 1e2c 00       		.byte	0
 16924 1e2d 00       		.byte	0
 16925 1e2e 00       		.byte	0
 16926 1e2f F0       		.byte	-16
 16927 1e30 00       		.byte	0
 16928 1e31 00       		.byte	0
 16929 1e32 00       		.byte	0
 16930 1e33 3C       		.byte	60
 16931 1e34 00       		.byte	0
 16932 1e35 00       		.byte	0
 16933 1e36 00       		.byte	0
 16934 1e37 06       		.byte	6
 16935 1e38 00       		.byte	0
 16936 1e39 00       		.byte	0
ARM GAS  /tmp/cco7znPM.s 			page 352


 16937 1e3a 00       		.byte	0
 16938 1e3b 00       		.byte	0
 16939 1e3c 00       		.byte	0
 16940 1e3d 00       		.byte	0
 16941 1e3e 00       		.byte	0
 16942 1e3f 00       		.byte	0
 16943 1e40 00000000 		.space	64
 16943      00000000 
 16943      00000000 
 16943      00000000 
 16943      00000000 
 16944 1e80 00       		.byte	0
 16945 1e81 00       		.byte	0
 16946 1e82 00       		.byte	0
 16947 1e83 00       		.byte	0
 16948 1e84 00       		.byte	0
 16949 1e85 00       		.byte	0
 16950 1e86 00       		.byte	0
 16951 1e87 00       		.byte	0
 16952 1e88 10       		.byte	16
 16953 1e89 00       		.byte	0
 16954 1e8a 00       		.byte	0
 16955 1e8b 04       		.byte	4
 16956 1e8c 10       		.byte	16
 16957 1e8d 00       		.byte	0
 16958 1e8e 00       		.byte	0
 16959 1e8f 04       		.byte	4
 16960 1e90 10       		.byte	16
 16961 1e91 00       		.byte	0
 16962 1e92 00       		.byte	0
 16963 1e93 04       		.byte	4
 16964 1e94 10       		.byte	16
 16965 1e95 00       		.byte	0
 16966 1e96 00       		.byte	0
 16967 1e97 04       		.byte	4
 16968 1e98 10       		.byte	16
 16969 1e99 00       		.byte	0
 16970 1e9a 00       		.byte	0
 16971 1e9b 04       		.byte	4
 16972 1e9c 10       		.byte	16
 16973 1e9d 00       		.byte	0
 16974 1e9e 00       		.byte	0
 16975 1e9f 04       		.byte	4
 16976 1ea0 10       		.byte	16
 16977 1ea1 00       		.byte	0
 16978 1ea2 00       		.byte	0
 16979 1ea3 04       		.byte	4
 16980 1ea4 1F       		.byte	31
 16981 1ea5 FF       		.byte	-1
 16982 1ea6 FF       		.byte	-1
 16983 1ea7 FC       		.byte	-4
 16984 1ea8 00       		.byte	0
 16985 1ea9 00       		.byte	0
 16986 1eaa 00       		.byte	0
 16987 1eab 00       		.byte	0
 16988 1eac 00       		.byte	0
 16989 1ead 00       		.byte	0
ARM GAS  /tmp/cco7znPM.s 			page 353


 16990 1eae 00       		.byte	0
 16991 1eaf 00       		.byte	0
 16992 1eb0 00       		.byte	0
 16993 1eb1 00       		.byte	0
 16994 1eb2 00       		.byte	0
 16995 1eb3 00       		.byte	0
 16996 1eb4 00       		.byte	0
 16997 1eb5 00       		.byte	0
 16998 1eb6 00       		.byte	0
 16999 1eb7 00       		.byte	0
 17000 1eb8 00       		.byte	0
 17001 1eb9 00       		.byte	0
 17002 1eba 00       		.byte	0
 17003 1ebb 00       		.byte	0
 17004 1ebc 00       		.byte	0
 17005 1ebd 00       		.byte	0
 17006 1ebe 00       		.byte	0
 17007 1ebf 00       		.byte	0
 17008 1ec0 00000000 		.space	64
 17008      00000000 
 17008      00000000 
 17008      00000000 
 17008      00000000 
 17009 1f00 00       		.byte	0
 17010 1f01 00       		.byte	0
 17011 1f02 00       		.byte	0
 17012 1f03 00       		.byte	0
 17013 1f04 00       		.byte	0
 17014 1f05 00       		.byte	0
 17015 1f06 00       		.byte	0
 17016 1f07 00       		.byte	0
 17017 1f08 00       		.byte	0
 17018 1f09 00       		.byte	0
 17019 1f0a 00       		.byte	0
 17020 1f0b 00       		.byte	0
 17021 1f0c 00       		.byte	0
 17022 1f0d 00       		.byte	0
 17023 1f0e 00       		.byte	0
 17024 1f0f 00       		.byte	0
 17025 1f10 02       		.byte	2
 17026 1f11 00       		.byte	0
 17027 1f12 00       		.byte	0
 17028 1f13 00       		.byte	0
 17029 1f14 04       		.byte	4
 17030 1f15 00       		.byte	0
 17031 1f16 00       		.byte	0
 17032 1f17 00       		.byte	0
 17033 1f18 08       		.byte	8
 17034 1f19 00       		.byte	0
 17035 1f1a 00       		.byte	0
 17036 1f1b 00       		.byte	0
 17037 1f1c 18       		.byte	24
 17038 1f1d 00       		.byte	0
 17039 1f1e 00       		.byte	0
 17040 1f1f 00       		.byte	0
 17041 1f20 10       		.byte	16
 17042 1f21 00       		.byte	0
ARM GAS  /tmp/cco7znPM.s 			page 354


 17043 1f22 00       		.byte	0
 17044 1f23 00       		.byte	0
 17045 1f24 18       		.byte	24
 17046 1f25 00       		.byte	0
 17047 1f26 00       		.byte	0
 17048 1f27 00       		.byte	0
 17049 1f28 18       		.byte	24
 17050 1f29 00       		.byte	0
 17051 1f2a 00       		.byte	0
 17052 1f2b 00       		.byte	0
 17053 1f2c 04       		.byte	4
 17054 1f2d 00       		.byte	0
 17055 1f2e 00       		.byte	0
 17056 1f2f 00       		.byte	0
 17057 1f30 02       		.byte	2
 17058 1f31 00       		.byte	0
 17059 1f32 00       		.byte	0
 17060 1f33 00       		.byte	0
 17061 1f34 00       		.byte	0
 17062 1f35 00       		.byte	0
 17063 1f36 00       		.byte	0
 17064 1f37 00       		.byte	0
 17065 1f38 00       		.byte	0
 17066 1f39 00       		.byte	0
 17067 1f3a 00       		.byte	0
 17068 1f3b 00       		.byte	0
 17069 1f3c 00       		.byte	0
 17070 1f3d 00       		.byte	0
 17071 1f3e 00       		.byte	0
 17072 1f3f 00       		.byte	0
 17073 1f40 00000000 		.space	64
 17073      00000000 
 17073      00000000 
 17073      00000000 
 17073      00000000 
 17074 1f80 00       		.byte	0
 17075 1f81 00       		.byte	0
 17076 1f82 00       		.byte	0
 17077 1f83 01       		.byte	1
 17078 1f84 00       		.byte	0
 17079 1f85 00       		.byte	0
 17080 1f86 00       		.byte	0
 17081 1f87 01       		.byte	1
 17082 1f88 00       		.byte	0
 17083 1f89 00       		.byte	0
 17084 1f8a 00       		.byte	0
 17085 1f8b 01       		.byte	1
 17086 1f8c 00       		.byte	0
 17087 1f8d 00       		.byte	0
 17088 1f8e 00       		.byte	0
 17089 1f8f 01       		.byte	1
 17090 1f90 00       		.byte	0
 17091 1f91 00       		.byte	0
 17092 1f92 00       		.byte	0
 17093 1f93 01       		.byte	1
 17094 1f94 00       		.byte	0
 17095 1f95 00       		.byte	0
ARM GAS  /tmp/cco7znPM.s 			page 355


 17096 1f96 00       		.byte	0
 17097 1f97 01       		.byte	1
 17098 1f98 00       		.byte	0
 17099 1f99 00       		.byte	0
 17100 1f9a 00       		.byte	0
 17101 1f9b 01       		.byte	1
 17102 1f9c 00       		.byte	0
 17103 1f9d 00       		.byte	0
 17104 1f9e 00       		.byte	0
 17105 1f9f 01       		.byte	1
 17106 1fa0 00       		.byte	0
 17107 1fa1 00       		.byte	0
 17108 1fa2 00       		.byte	0
 17109 1fa3 01       		.byte	1
 17110 1fa4 00       		.byte	0
 17111 1fa5 00       		.byte	0
 17112 1fa6 00       		.byte	0
 17113 1fa7 01       		.byte	1
 17114 1fa8 00       		.byte	0
 17115 1fa9 00       		.byte	0
 17116 1faa 00       		.byte	0
 17117 1fab 01       		.byte	1
 17118 1fac 00       		.byte	0
 17119 1fad 00       		.byte	0
 17120 1fae 00       		.byte	0
 17121 1faf 01       		.byte	1
 17122 1fb0 00       		.byte	0
 17123 1fb1 00       		.byte	0
 17124 1fb2 00       		.byte	0
 17125 1fb3 01       		.byte	1
 17126 1fb4 00       		.byte	0
 17127 1fb5 00       		.byte	0
 17128 1fb6 00       		.byte	0
 17129 1fb7 01       		.byte	1
 17130 1fb8 00       		.byte	0
 17131 1fb9 00       		.byte	0
 17132 1fba 00       		.byte	0
 17133 1fbb 01       		.byte	1
 17134 1fbc 00       		.byte	0
 17135 1fbd 00       		.byte	0
 17136 1fbe 00       		.byte	0
 17137 1fbf 01       		.byte	1
 17138 1fc0 00000000 		.space	64
 17138      00000000 
 17138      00000000 
 17138      00000000 
 17138      00000000 
 17139 2000 00       		.byte	0
 17140 2001 00       		.byte	0
 17141 2002 00       		.byte	0
 17142 2003 00       		.byte	0
 17143 2004 00       		.byte	0
 17144 2005 00       		.byte	0
 17145 2006 00       		.byte	0
 17146 2007 00       		.byte	0
 17147 2008 00       		.byte	0
 17148 2009 00       		.byte	0
ARM GAS  /tmp/cco7znPM.s 			page 356


 17149 200a 00       		.byte	0
 17150 200b 00       		.byte	0
 17151 200c 10       		.byte	16
 17152 200d 00       		.byte	0
 17153 200e 00       		.byte	0
 17154 200f 00       		.byte	0
 17155 2010 10       		.byte	16
 17156 2011 00       		.byte	0
 17157 2012 00       		.byte	0
 17158 2013 00       		.byte	0
 17159 2014 10       		.byte	16
 17160 2015 00       		.byte	0
 17161 2016 00       		.byte	0
 17162 2017 00       		.byte	0
 17163 2018 18       		.byte	24
 17164 2019 00       		.byte	0
 17165 201a 00       		.byte	0
 17166 201b 00       		.byte	0
 17167 201c 08       		.byte	8
 17168 201d 00       		.byte	0
 17169 201e 00       		.byte	0
 17170 201f 00       		.byte	0
 17171 2020 04       		.byte	4
 17172 2021 00       		.byte	0
 17173 2022 00       		.byte	0
 17174 2023 00       		.byte	0
 17175 2024 00       		.byte	0
 17176 2025 00       		.byte	0
 17177 2026 00       		.byte	0
 17178 2027 00       		.byte	0
 17179 2028 00       		.byte	0
 17180 2029 00       		.byte	0
 17181 202a 00       		.byte	0
 17182 202b 00       		.byte	0
 17183 202c 00       		.byte	0
 17184 202d 00       		.byte	0
 17185 202e 00       		.byte	0
 17186 202f 00       		.byte	0
 17187 2030 00       		.byte	0
 17188 2031 00       		.byte	0
 17189 2032 00       		.byte	0
 17190 2033 00       		.byte	0
 17191 2034 00       		.byte	0
 17192 2035 00       		.byte	0
 17193 2036 00       		.byte	0
 17194 2037 00       		.byte	0
 17195 2038 00       		.byte	0
 17196 2039 00       		.byte	0
 17197 203a 00       		.byte	0
 17198 203b 00       		.byte	0
 17199 203c 00       		.byte	0
 17200 203d 00       		.byte	0
 17201 203e 00       		.byte	0
 17202 203f 00       		.byte	0
 17203 2040 00000000 		.space	64
 17203      00000000 
 17203      00000000 
ARM GAS  /tmp/cco7znPM.s 			page 357


 17203      00000000 
 17203      00000000 
 17204 2080 00       		.byte	0
 17205 2081 00       		.byte	0
 17206 2082 00       		.byte	0
 17207 2083 00       		.byte	0
 17208 2084 00       		.byte	0
 17209 2085 00       		.byte	0
 17210 2086 03       		.byte	3
 17211 2087 80       		.byte	-128
 17212 2088 00       		.byte	0
 17213 2089 01       		.byte	1
 17214 208a 8F       		.byte	-113
 17215 208b C0       		.byte	-64
 17216 208c 00       		.byte	0
 17217 208d 03       		.byte	3
 17218 208e 8C       		.byte	-116
 17219 208f 60       		.byte	96
 17220 2090 00       		.byte	0
 17221 2091 06       		.byte	6
 17222 2092 18       		.byte	24
 17223 2093 20       		.byte	32
 17224 2094 00       		.byte	0
 17225 2095 04       		.byte	4
 17226 2096 10       		.byte	16
 17227 2097 20       		.byte	32
 17228 2098 00       		.byte	0
 17229 2099 04       		.byte	4
 17230 209a 10       		.byte	16
 17231 209b 20       		.byte	32
 17232 209c 00       		.byte	0
 17233 209d 04       		.byte	4
 17234 209e 20       		.byte	32
 17235 209f 20       		.byte	32
 17236 20a0 00       		.byte	0
 17237 20a1 04       		.byte	4
 17238 20a2 20       		.byte	32
 17239 20a3 40       		.byte	64
 17240 20a4 00       		.byte	0
 17241 20a5 06       		.byte	6
 17242 20a6 20       		.byte	32
 17243 20a7 40       		.byte	64
 17244 20a8 00       		.byte	0
 17245 20a9 03       		.byte	3
 17246 20aa FF       		.byte	-1
 17247 20ab C0       		.byte	-64
 17248 20ac 00       		.byte	0
 17249 20ad 01       		.byte	1
 17250 20ae FF       		.byte	-1
 17251 20af E0       		.byte	-32
 17252 20b0 00       		.byte	0
 17253 20b1 00       		.byte	0
 17254 20b2 00       		.byte	0
 17255 20b3 20       		.byte	32
 17256 20b4 00       		.byte	0
 17257 20b5 00       		.byte	0
 17258 20b6 00       		.byte	0
ARM GAS  /tmp/cco7znPM.s 			page 358


 17259 20b7 20       		.byte	32
 17260 20b8 00       		.byte	0
 17261 20b9 00       		.byte	0
 17262 20ba 00       		.byte	0
 17263 20bb C0       		.byte	-64
 17264 20bc 00       		.byte	0
 17265 20bd 00       		.byte	0
 17266 20be 00       		.byte	0
 17267 20bf 00       		.byte	0
 17268 20c0 00000000 		.space	64
 17268      00000000 
 17268      00000000 
 17268      00000000 
 17268      00000000 
 17269 2100 00       		.byte	0
 17270 2101 00       		.byte	0
 17271 2102 00       		.byte	0
 17272 2103 00       		.byte	0
 17273 2104 02       		.byte	2
 17274 2105 00       		.byte	0
 17275 2106 00       		.byte	0
 17276 2107 00       		.byte	0
 17277 2108 02       		.byte	2
 17278 2109 00       		.byte	0
 17279 210a 00       		.byte	0
 17280 210b 00       		.byte	0
 17281 210c 03       		.byte	3
 17282 210d FF       		.byte	-1
 17283 210e FF       		.byte	-1
 17284 210f E0       		.byte	-32
 17285 2110 07       		.byte	7
 17286 2111 FF       		.byte	-1
 17287 2112 FF       		.byte	-1
 17288 2113 C0       		.byte	-64
 17289 2114 00       		.byte	0
 17290 2115 01       		.byte	1
 17291 2116 80       		.byte	-128
 17292 2117 C0       		.byte	-64
 17293 2118 00       		.byte	0
 17294 2119 02       		.byte	2
 17295 211a 00       		.byte	0
 17296 211b 60       		.byte	96
 17297 211c 00       		.byte	0
 17298 211d 02       		.byte	2
 17299 211e 00       		.byte	0
 17300 211f 20       		.byte	32
 17301 2120 00       		.byte	0
 17302 2121 04       		.byte	4
 17303 2122 00       		.byte	0
 17304 2123 20       		.byte	32
 17305 2124 00       		.byte	0
 17306 2125 04       		.byte	4
 17307 2126 00       		.byte	0
 17308 2127 20       		.byte	32
 17309 2128 00       		.byte	0
 17310 2129 04       		.byte	4
 17311 212a 00       		.byte	0
ARM GAS  /tmp/cco7znPM.s 			page 359


 17312 212b 20       		.byte	32
 17313 212c 00       		.byte	0
 17314 212d 06       		.byte	6
 17315 212e 00       		.byte	0
 17316 212f 40       		.byte	64
 17317 2130 00       		.byte	0
 17318 2131 03       		.byte	3
 17319 2132 00       		.byte	0
 17320 2133 C0       		.byte	-64
 17321 2134 00       		.byte	0
 17322 2135 01       		.byte	1
 17323 2136 FF       		.byte	-1
 17324 2137 80       		.byte	-128
 17325 2138 00       		.byte	0
 17326 2139 00       		.byte	0
 17327 213a FE       		.byte	-2
 17328 213b 00       		.byte	0
 17329 213c 00       		.byte	0
 17330 213d 00       		.byte	0
 17331 213e 00       		.byte	0
 17332 213f 00       		.byte	0
 17333 2140 00000000 		.space	64
 17333      00000000 
 17333      00000000 
 17333      00000000 
 17333      00000000 
 17334 2180 00       		.byte	0
 17335 2181 00       		.byte	0
 17336 2182 00       		.byte	0
 17337 2183 00       		.byte	0
 17338 2184 00       		.byte	0
 17339 2185 00       		.byte	0
 17340 2186 00       		.byte	0
 17341 2187 00       		.byte	0
 17342 2188 00       		.byte	0
 17343 2189 00       		.byte	0
 17344 218a 7E       		.byte	126
 17345 218b 00       		.byte	0
 17346 218c 00       		.byte	0
 17347 218d 01       		.byte	1
 17348 218e FF       		.byte	-1
 17349 218f 80       		.byte	-128
 17350 2190 00       		.byte	0
 17351 2191 03       		.byte	3
 17352 2192 81       		.byte	-127
 17353 2193 C0       		.byte	-64
 17354 2194 00       		.byte	0
 17355 2195 02       		.byte	2
 17356 2196 00       		.byte	0
 17357 2197 40       		.byte	64
 17358 2198 00       		.byte	0
 17359 2199 06       		.byte	6
 17360 219a 00       		.byte	0
 17361 219b 20       		.byte	32
 17362 219c 00       		.byte	0
 17363 219d 04       		.byte	4
 17364 219e 00       		.byte	0
ARM GAS  /tmp/cco7znPM.s 			page 360


 17365 219f 20       		.byte	32
 17366 21a0 00       		.byte	0
 17367 21a1 04       		.byte	4
 17368 21a2 00       		.byte	0
 17369 21a3 20       		.byte	32
 17370 21a4 00       		.byte	0
 17371 21a5 04       		.byte	4
 17372 21a6 00       		.byte	0
 17373 21a7 20       		.byte	32
 17374 21a8 00       		.byte	0
 17375 21a9 06       		.byte	6
 17376 21aa 00       		.byte	0
 17377 21ab 20       		.byte	32
 17378 21ac 00       		.byte	0
 17379 21ad 03       		.byte	3
 17380 21ae C0       		.byte	-64
 17381 21af 40       		.byte	64
 17382 21b0 00       		.byte	0
 17383 21b1 01       		.byte	1
 17384 21b2 C0       		.byte	-64
 17385 21b3 80       		.byte	-128
 17386 21b4 00       		.byte	0
 17387 21b5 00       		.byte	0
 17388 21b6 03       		.byte	3
 17389 21b7 00       		.byte	0
 17390 21b8 00       		.byte	0
 17391 21b9 00       		.byte	0
 17392 21ba 00       		.byte	0
 17393 21bb 00       		.byte	0
 17394 21bc 00       		.byte	0
 17395 21bd 00       		.byte	0
 17396 21be 00       		.byte	0
 17397 21bf 00       		.byte	0
 17398 21c0 00000000 		.space	64
 17398      00000000 
 17398      00000000 
 17398      00000000 
 17398      00000000 
 17399 2200 00       		.byte	0
 17400 2201 00       		.byte	0
 17401 2202 00       		.byte	0
 17402 2203 00       		.byte	0
 17403 2204 00       		.byte	0
 17404 2205 00       		.byte	0
 17405 2206 00       		.byte	0
 17406 2207 00       		.byte	0
 17407 2208 00       		.byte	0
 17408 2209 00       		.byte	0
 17409 220a 7E       		.byte	126
 17410 220b 00       		.byte	0
 17411 220c 00       		.byte	0
 17412 220d 01       		.byte	1
 17413 220e FF       		.byte	-1
 17414 220f 80       		.byte	-128
 17415 2210 00       		.byte	0
 17416 2211 03       		.byte	3
 17417 2212 80       		.byte	-128
ARM GAS  /tmp/cco7znPM.s 			page 361


 17418 2213 C0       		.byte	-64
 17419 2214 00       		.byte	0
 17420 2215 06       		.byte	6
 17421 2216 00       		.byte	0
 17422 2217 60       		.byte	96
 17423 2218 00       		.byte	0
 17424 2219 04       		.byte	4
 17425 221a 00       		.byte	0
 17426 221b 20       		.byte	32
 17427 221c 00       		.byte	0
 17428 221d 04       		.byte	4
 17429 221e 00       		.byte	0
 17430 221f 20       		.byte	32
 17431 2220 00       		.byte	0
 17432 2221 04       		.byte	4
 17433 2222 00       		.byte	0
 17434 2223 20       		.byte	32
 17435 2224 02       		.byte	2
 17436 2225 04       		.byte	4
 17437 2226 00       		.byte	0
 17438 2227 40       		.byte	64
 17439 2228 02       		.byte	2
 17440 2229 02       		.byte	2
 17441 222a 00       		.byte	0
 17442 222b 80       		.byte	-128
 17443 222c 03       		.byte	3
 17444 222d FF       		.byte	-1
 17445 222e FF       		.byte	-1
 17446 222f E0       		.byte	-32
 17447 2230 07       		.byte	7
 17448 2231 FF       		.byte	-1
 17449 2232 FF       		.byte	-1
 17450 2233 C0       		.byte	-64
 17451 2234 00       		.byte	0
 17452 2235 00       		.byte	0
 17453 2236 00       		.byte	0
 17454 2237 40       		.byte	64
 17455 2238 00       		.byte	0
 17456 2239 00       		.byte	0
 17457 223a 00       		.byte	0
 17458 223b 40       		.byte	64
 17459 223c 00       		.byte	0
 17460 223d 00       		.byte	0
 17461 223e 00       		.byte	0
 17462 223f 00       		.byte	0
 17463 2240 00000000 		.space	64
 17463      00000000 
 17463      00000000 
 17463      00000000 
 17463      00000000 
 17464 2280 00       		.byte	0
 17465 2281 00       		.byte	0
 17466 2282 00       		.byte	0
 17467 2283 00       		.byte	0
 17468 2284 00       		.byte	0
 17469 2285 00       		.byte	0
 17470 2286 00       		.byte	0
ARM GAS  /tmp/cco7znPM.s 			page 362


 17471 2287 00       		.byte	0
 17472 2288 00       		.byte	0
 17473 2289 00       		.byte	0
 17474 228a 7E       		.byte	126
 17475 228b 00       		.byte	0
 17476 228c 00       		.byte	0
 17477 228d 01       		.byte	1
 17478 228e FF       		.byte	-1
 17479 228f 80       		.byte	-128
 17480 2290 00       		.byte	0
 17481 2291 03       		.byte	3
 17482 2292 11       		.byte	17
 17483 2293 C0       		.byte	-64
 17484 2294 00       		.byte	0
 17485 2295 02       		.byte	2
 17486 2296 10       		.byte	16
 17487 2297 40       		.byte	64
 17488 2298 00       		.byte	0
 17489 2299 04       		.byte	4
 17490 229a 10       		.byte	16
 17491 229b 60       		.byte	96
 17492 229c 00       		.byte	0
 17493 229d 04       		.byte	4
 17494 229e 10       		.byte	16
 17495 229f 20       		.byte	32
 17496 22a0 00       		.byte	0
 17497 22a1 04       		.byte	4
 17498 22a2 10       		.byte	16
 17499 22a3 20       		.byte	32
 17500 22a4 00       		.byte	0
 17501 22a5 04       		.byte	4
 17502 22a6 10       		.byte	16
 17503 22a7 20       		.byte	32
 17504 22a8 00       		.byte	0
 17505 22a9 06       		.byte	6
 17506 22aa 10       		.byte	16
 17507 22ab 20       		.byte	32
 17508 22ac 00       		.byte	0
 17509 22ad 03       		.byte	3
 17510 22ae 10       		.byte	16
 17511 22af 40       		.byte	64
 17512 22b0 00       		.byte	0
 17513 22b1 01       		.byte	1
 17514 22b2 F0       		.byte	-16
 17515 22b3 C0       		.byte	-64
 17516 22b4 00       		.byte	0
 17517 22b5 00       		.byte	0
 17518 22b6 71       		.byte	113
 17519 22b7 00       		.byte	0
 17520 22b8 00       		.byte	0
 17521 22b9 00       		.byte	0
 17522 22ba 00       		.byte	0
 17523 22bb 00       		.byte	0
 17524 22bc 00       		.byte	0
 17525 22bd 00       		.byte	0
 17526 22be 00       		.byte	0
 17527 22bf 00       		.byte	0
ARM GAS  /tmp/cco7znPM.s 			page 363


 17528 22c0 00000000 		.space	64
 17528      00000000 
 17528      00000000 
 17528      00000000 
 17528      00000000 
 17529 2300 00       		.byte	0
 17530 2301 00       		.byte	0
 17531 2302 00       		.byte	0
 17532 2303 00       		.byte	0
 17533 2304 00       		.byte	0
 17534 2305 00       		.byte	0
 17535 2306 00       		.byte	0
 17536 2307 00       		.byte	0
 17537 2308 00       		.byte	0
 17538 2309 04       		.byte	4
 17539 230a 00       		.byte	0
 17540 230b 00       		.byte	0
 17541 230c 00       		.byte	0
 17542 230d 04       		.byte	4
 17543 230e 00       		.byte	0
 17544 230f 20       		.byte	32
 17545 2310 00       		.byte	0
 17546 2311 04       		.byte	4
 17547 2312 00       		.byte	0
 17548 2313 20       		.byte	32
 17549 2314 00       		.byte	0
 17550 2315 04       		.byte	4
 17551 2316 00       		.byte	0
 17552 2317 20       		.byte	32
 17553 2318 00       		.byte	0
 17554 2319 7F       		.byte	127
 17555 231a FF       		.byte	-1
 17556 231b E0       		.byte	-32
 17557 231c 01       		.byte	1
 17558 231d FF       		.byte	-1
 17559 231e FF       		.byte	-1
 17560 231f E0       		.byte	-32
 17561 2320 01       		.byte	1
 17562 2321 04       		.byte	4
 17563 2322 00       		.byte	0
 17564 2323 20       		.byte	32
 17565 2324 03       		.byte	3
 17566 2325 04       		.byte	4
 17567 2326 00       		.byte	0
 17568 2327 20       		.byte	32
 17569 2328 02       		.byte	2
 17570 2329 04       		.byte	4
 17571 232a 00       		.byte	0
 17572 232b 20       		.byte	32
 17573 232c 02       		.byte	2
 17574 232d 04       		.byte	4
 17575 232e 00       		.byte	0
 17576 232f 20       		.byte	32
 17577 2330 02       		.byte	2
 17578 2331 04       		.byte	4
 17579 2332 00       		.byte	0
 17580 2333 00       		.byte	0
ARM GAS  /tmp/cco7znPM.s 			page 364


 17581 2334 02       		.byte	2
 17582 2335 00       		.byte	0
 17583 2336 00       		.byte	0
 17584 2337 00       		.byte	0
 17585 2338 01       		.byte	1
 17586 2339 C0       		.byte	-64
 17587 233a 00       		.byte	0
 17588 233b 00       		.byte	0
 17589 233c 01       		.byte	1
 17590 233d C0       		.byte	-64
 17591 233e 00       		.byte	0
 17592 233f 00       		.byte	0
 17593 2340 00000000 		.space	64
 17593      00000000 
 17593      00000000 
 17593      00000000 
 17593      00000000 
 17594 2380 00       		.byte	0
 17595 2381 00       		.byte	0
 17596 2382 00       		.byte	0
 17597 2383 00       		.byte	0
 17598 2384 00       		.byte	0
 17599 2385 00       		.byte	0
 17600 2386 00       		.byte	0
 17601 2387 00       		.byte	0
 17602 2388 00       		.byte	0
 17603 2389 00       		.byte	0
 17604 238a 00       		.byte	0
 17605 238b 1C       		.byte	28
 17606 238c 00       		.byte	0
 17607 238d 00       		.byte	0
 17608 238e E3       		.byte	-29
 17609 238f 3E       		.byte	62
 17610 2390 00       		.byte	0
 17611 2391 03       		.byte	3
 17612 2392 FF       		.byte	-1
 17613 2393 C2       		.byte	-62
 17614 2394 00       		.byte	0
 17615 2395 02       		.byte	2
 17616 2396 0C       		.byte	12
 17617 2397 C3       		.byte	-61
 17618 2398 00       		.byte	0
 17619 2399 04       		.byte	4
 17620 239a 04       		.byte	4
 17621 239b C1       		.byte	-63
 17622 239c 00       		.byte	0
 17623 239d 04       		.byte	4
 17624 239e 04       		.byte	4
 17625 239f C1       		.byte	-63
 17626 23a0 00       		.byte	0
 17627 23a1 04       		.byte	4
 17628 23a2 04       		.byte	4
 17629 23a3 C1       		.byte	-63
 17630 23a4 00       		.byte	0
 17631 23a5 04       		.byte	4
 17632 23a6 04       		.byte	4
 17633 23a7 C1       		.byte	-63
ARM GAS  /tmp/cco7znPM.s 			page 365


 17634 23a8 00       		.byte	0
 17635 23a9 06       		.byte	6
 17636 23aa 0C       		.byte	12
 17637 23ab C1       		.byte	-63
 17638 23ac 00       		.byte	0
 17639 23ad 03       		.byte	3
 17640 23ae F8       		.byte	-8
 17641 23af C3       		.byte	-61
 17642 23b0 00       		.byte	0
 17643 23b1 05       		.byte	5
 17644 23b2 F0       		.byte	-16
 17645 23b3 62       		.byte	98
 17646 23b4 00       		.byte	0
 17647 23b5 06       		.byte	6
 17648 23b6 00       		.byte	0
 17649 23b7 7E       		.byte	126
 17650 23b8 00       		.byte	0
 17651 23b9 06       		.byte	6
 17652 23ba 00       		.byte	0
 17653 23bb 3C       		.byte	60
 17654 23bc 00       		.byte	0
 17655 23bd 00       		.byte	0
 17656 23be 00       		.byte	0
 17657 23bf 00       		.byte	0
 17658 23c0 00000000 		.space	64
 17658      00000000 
 17658      00000000 
 17658      00000000 
 17658      00000000 
 17659 2400 00       		.byte	0
 17660 2401 00       		.byte	0
 17661 2402 00       		.byte	0
 17662 2403 00       		.byte	0
 17663 2404 02       		.byte	2
 17664 2405 00       		.byte	0
 17665 2406 00       		.byte	0
 17666 2407 20       		.byte	32
 17667 2408 02       		.byte	2
 17668 2409 00       		.byte	0
 17669 240a 00       		.byte	0
 17670 240b 20       		.byte	32
 17671 240c 03       		.byte	3
 17672 240d FF       		.byte	-1
 17673 240e FF       		.byte	-1
 17674 240f E0       		.byte	-32
 17675 2410 07       		.byte	7
 17676 2411 FF       		.byte	-1
 17677 2412 FF       		.byte	-1
 17678 2413 E0       		.byte	-32
 17679 2414 00       		.byte	0
 17680 2415 01       		.byte	1
 17681 2416 00       		.byte	0
 17682 2417 20       		.byte	32
 17683 2418 00       		.byte	0
 17684 2419 02       		.byte	2
 17685 241a 00       		.byte	0
 17686 241b 20       		.byte	32
ARM GAS  /tmp/cco7znPM.s 			page 366


 17687 241c 00       		.byte	0
 17688 241d 06       		.byte	6
 17689 241e 00       		.byte	0
 17690 241f 00       		.byte	0
 17691 2420 00       		.byte	0
 17692 2421 04       		.byte	4
 17693 2422 00       		.byte	0
 17694 2423 00       		.byte	0
 17695 2424 00       		.byte	0
 17696 2425 04       		.byte	4
 17697 2426 00       		.byte	0
 17698 2427 00       		.byte	0
 17699 2428 00       		.byte	0
 17700 2429 04       		.byte	4
 17701 242a 00       		.byte	0
 17702 242b 20       		.byte	32
 17703 242c 00       		.byte	0
 17704 242d 06       		.byte	6
 17705 242e 00       		.byte	0
 17706 242f 20       		.byte	32
 17707 2430 00       		.byte	0
 17708 2431 03       		.byte	3
 17709 2432 FF       		.byte	-1
 17710 2433 E0       		.byte	-32
 17711 2434 00       		.byte	0
 17712 2435 01       		.byte	1
 17713 2436 FF       		.byte	-1
 17714 2437 E0       		.byte	-32
 17715 2438 00       		.byte	0
 17716 2439 00       		.byte	0
 17717 243a 00       		.byte	0
 17718 243b 20       		.byte	32
 17719 243c 00       		.byte	0
 17720 243d 00       		.byte	0
 17721 243e 00       		.byte	0
 17722 243f 20       		.byte	32
 17723 2440 00000000 		.space	64
 17723      00000000 
 17723      00000000 
 17723      00000000 
 17723      00000000 
 17724 2480 00       		.byte	0
 17725 2481 00       		.byte	0
 17726 2482 00       		.byte	0
 17727 2483 00       		.byte	0
 17728 2484 00       		.byte	0
 17729 2485 00       		.byte	0
 17730 2486 00       		.byte	0
 17731 2487 00       		.byte	0
 17732 2488 00       		.byte	0
 17733 2489 00       		.byte	0
 17734 248a 00       		.byte	0
 17735 248b 00       		.byte	0
 17736 248c 00       		.byte	0
 17737 248d 04       		.byte	4
 17738 248e 00       		.byte	0
 17739 248f 20       		.byte	32
ARM GAS  /tmp/cco7znPM.s 			page 367


 17740 2490 00       		.byte	0
 17741 2491 04       		.byte	4
 17742 2492 00       		.byte	0
 17743 2493 20       		.byte	32
 17744 2494 00       		.byte	0
 17745 2495 04       		.byte	4
 17746 2496 00       		.byte	0
 17747 2497 20       		.byte	32
 17748 2498 00       		.byte	0
 17749 2499 04       		.byte	4
 17750 249a 00       		.byte	0
 17751 249b 20       		.byte	32
 17752 249c 03       		.byte	3
 17753 249d 87       		.byte	-121
 17754 249e FF       		.byte	-1
 17755 249f E0       		.byte	-32
 17756 24a0 03       		.byte	3
 17757 24a1 8F       		.byte	-113
 17758 24a2 FF       		.byte	-1
 17759 24a3 E0       		.byte	-32
 17760 24a4 03       		.byte	3
 17761 24a5 80       		.byte	-128
 17762 24a6 00       		.byte	0
 17763 24a7 20       		.byte	32
 17764 24a8 00       		.byte	0
 17765 24a9 00       		.byte	0
 17766 24aa 00       		.byte	0
 17767 24ab 20       		.byte	32
 17768 24ac 00       		.byte	0
 17769 24ad 00       		.byte	0
 17770 24ae 00       		.byte	0
 17771 24af 20       		.byte	32
 17772 24b0 00       		.byte	0
 17773 24b1 00       		.byte	0
 17774 24b2 00       		.byte	0
 17775 24b3 20       		.byte	32
 17776 24b4 00       		.byte	0
 17777 24b5 00       		.byte	0
 17778 24b6 00       		.byte	0
 17779 24b7 00       		.byte	0
 17780 24b8 00       		.byte	0
 17781 24b9 00       		.byte	0
 17782 24ba 00       		.byte	0
 17783 24bb 00       		.byte	0
 17784 24bc 00       		.byte	0
 17785 24bd 00       		.byte	0
 17786 24be 00       		.byte	0
 17787 24bf 00       		.byte	0
 17788 24c0 00000000 		.space	64
 17788      00000000 
 17788      00000000 
 17788      00000000 
 17788      00000000 
 17789 2500 00       		.byte	0
 17790 2501 00       		.byte	0
 17791 2502 00       		.byte	0
 17792 2503 00       		.byte	0
ARM GAS  /tmp/cco7znPM.s 			page 368


 17793 2504 00       		.byte	0
 17794 2505 00       		.byte	0
 17795 2506 00       		.byte	0
 17796 2507 00       		.byte	0
 17797 2508 00       		.byte	0
 17798 2509 00       		.byte	0
 17799 250a 00       		.byte	0
 17800 250b 00       		.byte	0
 17801 250c 00       		.byte	0
 17802 250d 00       		.byte	0
 17803 250e 00       		.byte	0
 17804 250f 06       		.byte	6
 17805 2510 00       		.byte	0
 17806 2511 00       		.byte	0
 17807 2512 00       		.byte	0
 17808 2513 07       		.byte	7
 17809 2514 00       		.byte	0
 17810 2515 00       		.byte	0
 17811 2516 00       		.byte	0
 17812 2517 01       		.byte	1
 17813 2518 00       		.byte	0
 17814 2519 00       		.byte	0
 17815 251a 00       		.byte	0
 17816 251b 01       		.byte	1
 17817 251c 00       		.byte	0
 17818 251d 04       		.byte	4
 17819 251e 00       		.byte	0
 17820 251f 01       		.byte	1
 17821 2520 00       		.byte	0
 17822 2521 04       		.byte	4
 17823 2522 00       		.byte	0
 17824 2523 01       		.byte	1
 17825 2524 00       		.byte	0
 17826 2525 04       		.byte	4
 17827 2526 00       		.byte	0
 17828 2527 03       		.byte	3
 17829 2528 00       		.byte	0
 17830 2529 04       		.byte	4
 17831 252a 00       		.byte	0
 17832 252b 06       		.byte	6
 17833 252c 03       		.byte	3
 17834 252d 87       		.byte	-121
 17835 252e FF       		.byte	-1
 17836 252f FC       		.byte	-4
 17837 2530 03       		.byte	3
 17838 2531 8F       		.byte	-113
 17839 2532 FF       		.byte	-1
 17840 2533 F8       		.byte	-8
 17841 2534 03       		.byte	3
 17842 2535 80       		.byte	-128
 17843 2536 00       		.byte	0
 17844 2537 00       		.byte	0
 17845 2538 00       		.byte	0
 17846 2539 00       		.byte	0
 17847 253a 00       		.byte	0
 17848 253b 00       		.byte	0
 17849 253c 00       		.byte	0
ARM GAS  /tmp/cco7znPM.s 			page 369


 17850 253d 00       		.byte	0
 17851 253e 00       		.byte	0
 17852 253f 00       		.byte	0
 17853 2540 00000000 		.space	64
 17853      00000000 
 17853      00000000 
 17853      00000000 
 17853      00000000 
 17854 2580 00       		.byte	0
 17855 2581 00       		.byte	0
 17856 2582 00       		.byte	0
 17857 2583 00       		.byte	0
 17858 2584 02       		.byte	2
 17859 2585 00       		.byte	0
 17860 2586 00       		.byte	0
 17861 2587 20       		.byte	32
 17862 2588 02       		.byte	2
 17863 2589 00       		.byte	0
 17864 258a 00       		.byte	0
 17865 258b 20       		.byte	32
 17866 258c 03       		.byte	3
 17867 258d FF       		.byte	-1
 17868 258e FF       		.byte	-1
 17869 258f E0       		.byte	-32
 17870 2590 07       		.byte	7
 17871 2591 FF       		.byte	-1
 17872 2592 FF       		.byte	-1
 17873 2593 E0       		.byte	-32
 17874 2594 00       		.byte	0
 17875 2595 00       		.byte	0
 17876 2596 08       		.byte	8
 17877 2597 20       		.byte	32
 17878 2598 00       		.byte	0
 17879 2599 00       		.byte	0
 17880 259a 10       		.byte	16
 17881 259b 20       		.byte	32
 17882 259c 00       		.byte	0
 17883 259d 00       		.byte	0
 17884 259e 30       		.byte	48
 17885 259f 00       		.byte	0
 17886 25a0 00       		.byte	0
 17887 25a1 00       		.byte	0
 17888 25a2 FC       		.byte	-4
 17889 25a3 00       		.byte	0
 17890 25a4 00       		.byte	0
 17891 25a5 05       		.byte	5
 17892 25a6 8E       		.byte	-114
 17893 25a7 00       		.byte	0
 17894 25a8 00       		.byte	0
 17895 25a9 07       		.byte	7
 17896 25aa 07       		.byte	7
 17897 25ab A0       		.byte	-96
 17898 25ac 00       		.byte	0
 17899 25ad 06       		.byte	6
 17900 25ae 01       		.byte	1
 17901 25af E0       		.byte	-32
 17902 25b0 00       		.byte	0
ARM GAS  /tmp/cco7znPM.s 			page 370


 17903 25b1 04       		.byte	4
 17904 25b2 00       		.byte	0
 17905 25b3 E0       		.byte	-32
 17906 25b4 00       		.byte	0
 17907 25b5 04       		.byte	4
 17908 25b6 00       		.byte	0
 17909 25b7 20       		.byte	32
 17910 25b8 00       		.byte	0
 17911 25b9 00       		.byte	0
 17912 25ba 00       		.byte	0
 17913 25bb 20       		.byte	32
 17914 25bc 00       		.byte	0
 17915 25bd 00       		.byte	0
 17916 25be 00       		.byte	0
 17917 25bf 00       		.byte	0
 17918 25c0 00000000 		.space	64
 17918      00000000 
 17918      00000000 
 17918      00000000 
 17918      00000000 
 17919 2600 00       		.byte	0
 17920 2601 00       		.byte	0
 17921 2602 00       		.byte	0
 17922 2603 00       		.byte	0
 17923 2604 00       		.byte	0
 17924 2605 00       		.byte	0
 17925 2606 00       		.byte	0
 17926 2607 00       		.byte	0
 17927 2608 00       		.byte	0
 17928 2609 00       		.byte	0
 17929 260a 00       		.byte	0
 17930 260b 00       		.byte	0
 17931 260c 02       		.byte	2
 17932 260d 00       		.byte	0
 17933 260e 00       		.byte	0
 17934 260f 20       		.byte	32
 17935 2610 02       		.byte	2
 17936 2611 00       		.byte	0
 17937 2612 00       		.byte	0
 17938 2613 20       		.byte	32
 17939 2614 02       		.byte	2
 17940 2615 00       		.byte	0
 17941 2616 00       		.byte	0
 17942 2617 20       		.byte	32
 17943 2618 02       		.byte	2
 17944 2619 00       		.byte	0
 17945 261a 00       		.byte	0
 17946 261b 20       		.byte	32
 17947 261c 03       		.byte	3
 17948 261d FF       		.byte	-1
 17949 261e FF       		.byte	-1
 17950 261f E0       		.byte	-32
 17951 2620 07       		.byte	7
 17952 2621 FF       		.byte	-1
 17953 2622 FF       		.byte	-1
 17954 2623 E0       		.byte	-32
 17955 2624 00       		.byte	0
ARM GAS  /tmp/cco7znPM.s 			page 371


 17956 2625 00       		.byte	0
 17957 2626 00       		.byte	0
 17958 2627 20       		.byte	32
 17959 2628 00       		.byte	0
 17960 2629 00       		.byte	0
 17961 262a 00       		.byte	0
 17962 262b 20       		.byte	32
 17963 262c 00       		.byte	0
 17964 262d 00       		.byte	0
 17965 262e 00       		.byte	0
 17966 262f 20       		.byte	32
 17967 2630 00       		.byte	0
 17968 2631 00       		.byte	0
 17969 2632 00       		.byte	0
 17970 2633 20       		.byte	32
 17971 2634 00       		.byte	0
 17972 2635 00       		.byte	0
 17973 2636 00       		.byte	0
 17974 2637 00       		.byte	0
 17975 2638 00       		.byte	0
 17976 2639 00       		.byte	0
 17977 263a 00       		.byte	0
 17978 263b 00       		.byte	0
 17979 263c 00       		.byte	0
 17980 263d 00       		.byte	0
 17981 263e 00       		.byte	0
 17982 263f 00       		.byte	0
 17983 2640 00000000 		.space	64
 17983      00000000 
 17983      00000000 
 17983      00000000 
 17983      00000000 
 17984 2680 00       		.byte	0
 17985 2681 00       		.byte	0
 17986 2682 00       		.byte	0
 17987 2683 00       		.byte	0
 17988 2684 00       		.byte	0
 17989 2685 04       		.byte	4
 17990 2686 00       		.byte	0
 17991 2687 20       		.byte	32
 17992 2688 00       		.byte	0
 17993 2689 07       		.byte	7
 17994 268a FF       		.byte	-1
 17995 268b E0       		.byte	-32
 17996 268c 00       		.byte	0
 17997 268d 0F       		.byte	15
 17998 268e FF       		.byte	-1
 17999 268f E0       		.byte	-32
 18000 2690 00       		.byte	0
 18001 2691 02       		.byte	2
 18002 2692 00       		.byte	0
 18003 2693 20       		.byte	32
 18004 2694 00       		.byte	0
 18005 2695 04       		.byte	4
 18006 2696 00       		.byte	0
 18007 2697 00       		.byte	0
 18008 2698 00       		.byte	0
ARM GAS  /tmp/cco7znPM.s 			page 372


 18009 2699 04       		.byte	4
 18010 269a 00       		.byte	0
 18011 269b 20       		.byte	32
 18012 269c 00       		.byte	0
 18013 269d 07       		.byte	7
 18014 269e FF       		.byte	-1
 18015 269f E0       		.byte	-32
 18016 26a0 00       		.byte	0
 18017 26a1 03       		.byte	3
 18018 26a2 FF       		.byte	-1
 18019 26a3 E0       		.byte	-32
 18020 26a4 00       		.byte	0
 18021 26a5 02       		.byte	2
 18022 26a6 00       		.byte	0
 18023 26a7 20       		.byte	32
 18024 26a8 00       		.byte	0
 18025 26a9 04       		.byte	4
 18026 26aa 00       		.byte	0
 18027 26ab 00       		.byte	0
 18028 26ac 00       		.byte	0
 18029 26ad 04       		.byte	4
 18030 26ae 00       		.byte	0
 18031 26af 20       		.byte	32
 18032 26b0 00       		.byte	0
 18033 26b1 07       		.byte	7
 18034 26b2 FF       		.byte	-1
 18035 26b3 E0       		.byte	-32
 18036 26b4 00       		.byte	0
 18037 26b5 03       		.byte	3
 18038 26b6 FF       		.byte	-1
 18039 26b7 E0       		.byte	-32
 18040 26b8 00       		.byte	0
 18041 26b9 00       		.byte	0
 18042 26ba 00       		.byte	0
 18043 26bb 20       		.byte	32
 18044 26bc 00       		.byte	0
 18045 26bd 00       		.byte	0
 18046 26be 00       		.byte	0
 18047 26bf 00       		.byte	0
 18048 26c0 00000000 		.space	64
 18048      00000000 
 18048      00000000 
 18048      00000000 
 18048      00000000 
 18049 2700 00       		.byte	0
 18050 2701 00       		.byte	0
 18051 2702 00       		.byte	0
 18052 2703 00       		.byte	0
 18053 2704 00       		.byte	0
 18054 2705 04       		.byte	4
 18055 2706 00       		.byte	0
 18056 2707 20       		.byte	32
 18057 2708 00       		.byte	0
 18058 2709 04       		.byte	4
 18059 270a 00       		.byte	0
 18060 270b 20       		.byte	32
 18061 270c 00       		.byte	0
ARM GAS  /tmp/cco7znPM.s 			page 373


 18062 270d 07       		.byte	7
 18063 270e FF       		.byte	-1
 18064 270f E0       		.byte	-32
 18065 2710 00       		.byte	0
 18066 2711 0F       		.byte	15
 18067 2712 FF       		.byte	-1
 18068 2713 E0       		.byte	-32
 18069 2714 00       		.byte	0
 18070 2715 01       		.byte	1
 18071 2716 00       		.byte	0
 18072 2717 20       		.byte	32
 18073 2718 00       		.byte	0
 18074 2719 02       		.byte	2
 18075 271a 00       		.byte	0
 18076 271b 20       		.byte	32
 18077 271c 00       		.byte	0
 18078 271d 02       		.byte	2
 18079 271e 00       		.byte	0
 18080 271f 00       		.byte	0
 18081 2720 00       		.byte	0
 18082 2721 04       		.byte	4
 18083 2722 00       		.byte	0
 18084 2723 00       		.byte	0
 18085 2724 00       		.byte	0
 18086 2725 04       		.byte	4
 18087 2726 00       		.byte	0
 18088 2727 00       		.byte	0
 18089 2728 00       		.byte	0
 18090 2729 04       		.byte	4
 18091 272a 00       		.byte	0
 18092 272b 20       		.byte	32
 18093 272c 00       		.byte	0
 18094 272d 06       		.byte	6
 18095 272e 00       		.byte	0
 18096 272f 20       		.byte	32
 18097 2730 00       		.byte	0
 18098 2731 03       		.byte	3
 18099 2732 FF       		.byte	-1
 18100 2733 E0       		.byte	-32
 18101 2734 00       		.byte	0
 18102 2735 01       		.byte	1
 18103 2736 FF       		.byte	-1
 18104 2737 E0       		.byte	-32
 18105 2738 00       		.byte	0
 18106 2739 00       		.byte	0
 18107 273a 00       		.byte	0
 18108 273b 20       		.byte	32
 18109 273c 00       		.byte	0
 18110 273d 00       		.byte	0
 18111 273e 00       		.byte	0
 18112 273f 20       		.byte	32
 18113 2740 00000000 		.space	64
 18113      00000000 
 18113      00000000 
 18113      00000000 
 18113      00000000 
 18114 2780 00       		.byte	0
ARM GAS  /tmp/cco7znPM.s 			page 374


 18115 2781 00       		.byte	0
 18116 2782 00       		.byte	0
 18117 2783 00       		.byte	0
 18118 2784 00       		.byte	0
 18119 2785 00       		.byte	0
 18120 2786 00       		.byte	0
 18121 2787 00       		.byte	0
 18122 2788 00       		.byte	0
 18123 2789 00       		.byte	0
 18124 278a 7E       		.byte	126
 18125 278b 00       		.byte	0
 18126 278c 00       		.byte	0
 18127 278d 00       		.byte	0
 18128 278e FF       		.byte	-1
 18129 278f 80       		.byte	-128
 18130 2790 00       		.byte	0
 18131 2791 03       		.byte	3
 18132 2792 81       		.byte	-127
 18133 2793 C0       		.byte	-64
 18134 2794 00       		.byte	0
 18135 2795 02       		.byte	2
 18136 2796 00       		.byte	0
 18137 2797 40       		.byte	64
 18138 2798 00       		.byte	0
 18139 2799 06       		.byte	6
 18140 279a 00       		.byte	0
 18141 279b 20       		.byte	32
 18142 279c 00       		.byte	0
 18143 279d 04       		.byte	4
 18144 279e 00       		.byte	0
 18145 279f 20       		.byte	32
 18146 27a0 00       		.byte	0
 18147 27a1 04       		.byte	4
 18148 27a2 00       		.byte	0
 18149 27a3 20       		.byte	32
 18150 27a4 00       		.byte	0
 18151 27a5 04       		.byte	4
 18152 27a6 00       		.byte	0
 18153 27a7 20       		.byte	32
 18154 27a8 00       		.byte	0
 18155 27a9 06       		.byte	6
 18156 27aa 00       		.byte	0
 18157 27ab 20       		.byte	32
 18158 27ac 00       		.byte	0
 18159 27ad 02       		.byte	2
 18160 27ae 00       		.byte	0
 18161 27af 40       		.byte	64
 18162 27b0 00       		.byte	0
 18163 27b1 03       		.byte	3
 18164 27b2 81       		.byte	-127
 18165 27b3 C0       		.byte	-64
 18166 27b4 00       		.byte	0
 18167 27b5 01       		.byte	1
 18168 27b6 FF       		.byte	-1
 18169 27b7 80       		.byte	-128
 18170 27b8 00       		.byte	0
 18171 27b9 00       		.byte	0
ARM GAS  /tmp/cco7znPM.s 			page 375


 18172 27ba 7E       		.byte	126
 18173 27bb 00       		.byte	0
 18174 27bc 00       		.byte	0
 18175 27bd 00       		.byte	0
 18176 27be 00       		.byte	0
 18177 27bf 00       		.byte	0
 18178 27c0 00000000 		.space	64
 18178      00000000 
 18178      00000000 
 18178      00000000 
 18178      00000000 
 18179 2800 00       		.byte	0
 18180 2801 00       		.byte	0
 18181 2802 00       		.byte	0
 18182 2803 00       		.byte	0
 18183 2804 00       		.byte	0
 18184 2805 04       		.byte	4
 18185 2806 00       		.byte	0
 18186 2807 01       		.byte	1
 18187 2808 00       		.byte	0
 18188 2809 04       		.byte	4
 18189 280a 00       		.byte	0
 18190 280b 01       		.byte	1
 18191 280c 00       		.byte	0
 18192 280d 07       		.byte	7
 18193 280e FF       		.byte	-1
 18194 280f FF       		.byte	-1
 18195 2810 00       		.byte	0
 18196 2811 0F       		.byte	15
 18197 2812 FF       		.byte	-1
 18198 2813 FF       		.byte	-1
 18199 2814 00       		.byte	0
 18200 2815 01       		.byte	1
 18201 2816 00       		.byte	0
 18202 2817 C1       		.byte	-63
 18203 2818 00       		.byte	0
 18204 2819 02       		.byte	2
 18205 281a 00       		.byte	0
 18206 281b 41       		.byte	65
 18207 281c 00       		.byte	0
 18208 281d 04       		.byte	4
 18209 281e 00       		.byte	0
 18210 281f 20       		.byte	32
 18211 2820 00       		.byte	0
 18212 2821 04       		.byte	4
 18213 2822 00       		.byte	0
 18214 2823 20       		.byte	32
 18215 2824 00       		.byte	0
 18216 2825 04       		.byte	4
 18217 2826 00       		.byte	0
 18218 2827 20       		.byte	32
 18219 2828 00       		.byte	0
 18220 2829 04       		.byte	4
 18221 282a 00       		.byte	0
 18222 282b 20       		.byte	32
 18223 282c 00       		.byte	0
 18224 282d 06       		.byte	6
ARM GAS  /tmp/cco7znPM.s 			page 376


 18225 282e 00       		.byte	0
 18226 282f 40       		.byte	64
 18227 2830 00       		.byte	0
 18228 2831 03       		.byte	3
 18229 2832 01       		.byte	1
 18230 2833 C0       		.byte	-64
 18231 2834 00       		.byte	0
 18232 2835 01       		.byte	1
 18233 2836 FF       		.byte	-1
 18234 2837 80       		.byte	-128
 18235 2838 00       		.byte	0
 18236 2839 00       		.byte	0
 18237 283a 7E       		.byte	126
 18238 283b 00       		.byte	0
 18239 283c 00       		.byte	0
 18240 283d 00       		.byte	0
 18241 283e 00       		.byte	0
 18242 283f 00       		.byte	0
 18243 2840 00000000 		.space	64
 18243      00000000 
 18243      00000000 
 18243      00000000 
 18243      00000000 
 18244 2880 00       		.byte	0
 18245 2881 00       		.byte	0
 18246 2882 00       		.byte	0
 18247 2883 00       		.byte	0
 18248 2884 00       		.byte	0
 18249 2885 00       		.byte	0
 18250 2886 00       		.byte	0
 18251 2887 00       		.byte	0
 18252 2888 00       		.byte	0
 18253 2889 00       		.byte	0
 18254 288a 7E       		.byte	126
 18255 288b 00       		.byte	0
 18256 288c 00       		.byte	0
 18257 288d 01       		.byte	1
 18258 288e FF       		.byte	-1
 18259 288f 80       		.byte	-128
 18260 2890 00       		.byte	0
 18261 2891 03       		.byte	3
 18262 2892 80       		.byte	-128
 18263 2893 C0       		.byte	-64
 18264 2894 00       		.byte	0
 18265 2895 02       		.byte	2
 18266 2896 00       		.byte	0
 18267 2897 60       		.byte	96
 18268 2898 00       		.byte	0
 18269 2899 04       		.byte	4
 18270 289a 00       		.byte	0
 18271 289b 20       		.byte	32
 18272 289c 00       		.byte	0
 18273 289d 04       		.byte	4
 18274 289e 00       		.byte	0
 18275 289f 20       		.byte	32
 18276 28a0 00       		.byte	0
 18277 28a1 04       		.byte	4
ARM GAS  /tmp/cco7znPM.s 			page 377


 18278 28a2 00       		.byte	0
 18279 28a3 20       		.byte	32
 18280 28a4 00       		.byte	0
 18281 28a5 04       		.byte	4
 18282 28a6 00       		.byte	0
 18283 28a7 20       		.byte	32
 18284 28a8 00       		.byte	0
 18285 28a9 02       		.byte	2
 18286 28aa 00       		.byte	0
 18287 28ab 41       		.byte	65
 18288 28ac 00       		.byte	0
 18289 28ad 03       		.byte	3
 18290 28ae 00       		.byte	0
 18291 28af C1       		.byte	-63
 18292 28b0 00       		.byte	0
 18293 28b1 03       		.byte	3
 18294 28b2 FF       		.byte	-1
 18295 28b3 FF       		.byte	-1
 18296 28b4 00       		.byte	0
 18297 28b5 07       		.byte	7
 18298 28b6 FF       		.byte	-1
 18299 28b7 FF       		.byte	-1
 18300 28b8 00       		.byte	0
 18301 28b9 00       		.byte	0
 18302 28ba 00       		.byte	0
 18303 28bb 01       		.byte	1
 18304 28bc 00       		.byte	0
 18305 28bd 00       		.byte	0
 18306 28be 00       		.byte	0
 18307 28bf 01       		.byte	1
 18308 28c0 00000000 		.space	64
 18308      00000000 
 18308      00000000 
 18308      00000000 
 18308      00000000 
 18309 2900 00       		.byte	0
 18310 2901 00       		.byte	0
 18311 2902 00       		.byte	0
 18312 2903 00       		.byte	0
 18313 2904 00       		.byte	0
 18314 2905 04       		.byte	4
 18315 2906 00       		.byte	0
 18316 2907 20       		.byte	32
 18317 2908 00       		.byte	0
 18318 2909 04       		.byte	4
 18319 290a 00       		.byte	0
 18320 290b 20       		.byte	32
 18321 290c 00       		.byte	0
 18322 290d 04       		.byte	4
 18323 290e 00       		.byte	0
 18324 290f 20       		.byte	32
 18325 2910 00       		.byte	0
 18326 2911 04       		.byte	4
 18327 2912 00       		.byte	0
 18328 2913 20       		.byte	32
 18329 2914 00       		.byte	0
 18330 2915 0F       		.byte	15
ARM GAS  /tmp/cco7znPM.s 			page 378


 18331 2916 FF       		.byte	-1
 18332 2917 E0       		.byte	-32
 18333 2918 00       		.byte	0
 18334 2919 0F       		.byte	15
 18335 291a FF       		.byte	-1
 18336 291b E0       		.byte	-32
 18337 291c 00       		.byte	0
 18338 291d 00       		.byte	0
 18339 291e C0       		.byte	-64
 18340 291f 20       		.byte	32
 18341 2920 00       		.byte	0
 18342 2921 01       		.byte	1
 18343 2922 00       		.byte	0
 18344 2923 20       		.byte	32
 18345 2924 00       		.byte	0
 18346 2925 02       		.byte	2
 18347 2926 00       		.byte	0
 18348 2927 20       		.byte	32
 18349 2928 00       		.byte	0
 18350 2929 06       		.byte	6
 18351 292a 00       		.byte	0
 18352 292b 20       		.byte	32
 18353 292c 00       		.byte	0
 18354 292d 04       		.byte	4
 18355 292e 00       		.byte	0
 18356 292f 00       		.byte	0
 18357 2930 00       		.byte	0
 18358 2931 04       		.byte	4
 18359 2932 00       		.byte	0
 18360 2933 00       		.byte	0
 18361 2934 00       		.byte	0
 18362 2935 07       		.byte	7
 18363 2936 00       		.byte	0
 18364 2937 00       		.byte	0
 18365 2938 00       		.byte	0
 18366 2939 03       		.byte	3
 18367 293a 00       		.byte	0
 18368 293b 00       		.byte	0
 18369 293c 00       		.byte	0
 18370 293d 00       		.byte	0
 18371 293e 00       		.byte	0
 18372 293f 00       		.byte	0
 18373 2940 00000000 		.space	64
 18373      00000000 
 18373      00000000 
 18373      00000000 
 18373      00000000 
 18374 2980 00       		.byte	0
 18375 2981 00       		.byte	0
 18376 2982 00       		.byte	0
 18377 2983 00       		.byte	0
 18378 2984 00       		.byte	0
 18379 2985 00       		.byte	0
 18380 2986 00       		.byte	0
 18381 2987 00       		.byte	0
 18382 2988 00       		.byte	0
 18383 2989 00       		.byte	0
ARM GAS  /tmp/cco7znPM.s 			page 379


 18384 298a 03       		.byte	3
 18385 298b E0       		.byte	-32
 18386 298c 00       		.byte	0
 18387 298d 01       		.byte	1
 18388 298e C0       		.byte	-64
 18389 298f E0       		.byte	-32
 18390 2990 00       		.byte	0
 18391 2991 03       		.byte	3
 18392 2992 E0       		.byte	-32
 18393 2993 40       		.byte	64
 18394 2994 00       		.byte	0
 18395 2995 06       		.byte	6
 18396 2996 30       		.byte	48
 18397 2997 20       		.byte	32
 18398 2998 00       		.byte	0
 18399 2999 04       		.byte	4
 18400 299a 30       		.byte	48
 18401 299b 20       		.byte	32
 18402 299c 00       		.byte	0
 18403 299d 04       		.byte	4
 18404 299e 18       		.byte	24
 18405 299f 20       		.byte	32
 18406 29a0 00       		.byte	0
 18407 29a1 04       		.byte	4
 18408 29a2 18       		.byte	24
 18409 29a3 20       		.byte	32
 18410 29a4 00       		.byte	0
 18411 29a5 04       		.byte	4
 18412 29a6 18       		.byte	24
 18413 29a7 20       		.byte	32
 18414 29a8 00       		.byte	0
 18415 29a9 04       		.byte	4
 18416 29aa 0C       		.byte	12
 18417 29ab 20       		.byte	32
 18418 29ac 00       		.byte	0
 18419 29ad 02       		.byte	2
 18420 29ae 0C       		.byte	12
 18421 29af 60       		.byte	96
 18422 29b0 00       		.byte	0
 18423 29b1 03       		.byte	3
 18424 29b2 07       		.byte	7
 18425 29b3 C0       		.byte	-64
 18426 29b4 00       		.byte	0
 18427 29b5 07       		.byte	7
 18428 29b6 83       		.byte	-125
 18429 29b7 80       		.byte	-128
 18430 29b8 00       		.byte	0
 18431 29b9 00       		.byte	0
 18432 29ba 00       		.byte	0
 18433 29bb 00       		.byte	0
 18434 29bc 00       		.byte	0
 18435 29bd 00       		.byte	0
 18436 29be 00       		.byte	0
 18437 29bf 00       		.byte	0
 18438 29c0 00000000 		.space	64
 18438      00000000 
 18438      00000000 
ARM GAS  /tmp/cco7znPM.s 			page 380


 18438      00000000 
 18438      00000000 
 18439 2a00 00       		.byte	0
 18440 2a01 00       		.byte	0
 18441 2a02 00       		.byte	0
 18442 2a03 00       		.byte	0
 18443 2a04 00       		.byte	0
 18444 2a05 00       		.byte	0
 18445 2a06 00       		.byte	0
 18446 2a07 00       		.byte	0
 18447 2a08 00       		.byte	0
 18448 2a09 04       		.byte	4
 18449 2a0a 00       		.byte	0
 18450 2a0b 00       		.byte	0
 18451 2a0c 00       		.byte	0
 18452 2a0d 04       		.byte	4
 18453 2a0e 00       		.byte	0
 18454 2a0f 00       		.byte	0
 18455 2a10 00       		.byte	0
 18456 2a11 04       		.byte	4
 18457 2a12 00       		.byte	0
 18458 2a13 00       		.byte	0
 18459 2a14 00       		.byte	0
 18460 2a15 0C       		.byte	12
 18461 2a16 00       		.byte	0
 18462 2a17 00       		.byte	0
 18463 2a18 00       		.byte	0
 18464 2a19 1F       		.byte	31
 18465 2a1a FF       		.byte	-1
 18466 2a1b 80       		.byte	-128
 18467 2a1c 00       		.byte	0
 18468 2a1d FF       		.byte	-1
 18469 2a1e FF       		.byte	-1
 18470 2a1f C0       		.byte	-64
 18471 2a20 00       		.byte	0
 18472 2a21 04       		.byte	4
 18473 2a22 00       		.byte	0
 18474 2a23 60       		.byte	96
 18475 2a24 00       		.byte	0
 18476 2a25 04       		.byte	4
 18477 2a26 00       		.byte	0
 18478 2a27 20       		.byte	32
 18479 2a28 00       		.byte	0
 18480 2a29 04       		.byte	4
 18481 2a2a 00       		.byte	0
 18482 2a2b 20       		.byte	32
 18483 2a2c 00       		.byte	0
 18484 2a2d 04       		.byte	4
 18485 2a2e 00       		.byte	0
 18486 2a2f 20       		.byte	32
 18487 2a30 00       		.byte	0
 18488 2a31 04       		.byte	4
 18489 2a32 00       		.byte	0
 18490 2a33 40       		.byte	64
 18491 2a34 00       		.byte	0
 18492 2a35 00       		.byte	0
 18493 2a36 01       		.byte	1
ARM GAS  /tmp/cco7znPM.s 			page 381


 18494 2a37 80       		.byte	-128
 18495 2a38 00       		.byte	0
 18496 2a39 00       		.byte	0
 18497 2a3a 00       		.byte	0
 18498 2a3b 00       		.byte	0
 18499 2a3c 00       		.byte	0
 18500 2a3d 00       		.byte	0
 18501 2a3e 00       		.byte	0
 18502 2a3f 00       		.byte	0
 18503 2a40 00000000 		.space	64
 18503      00000000 
 18503      00000000 
 18503      00000000 
 18503      00000000 
 18504 2a80 00       		.byte	0
 18505 2a81 00       		.byte	0
 18506 2a82 00       		.byte	0
 18507 2a83 00       		.byte	0
 18508 2a84 00       		.byte	0
 18509 2a85 04       		.byte	4
 18510 2a86 00       		.byte	0
 18511 2a87 00       		.byte	0
 18512 2a88 00       		.byte	0
 18513 2a89 04       		.byte	4
 18514 2a8a 00       		.byte	0
 18515 2a8b 00       		.byte	0
 18516 2a8c 00       		.byte	0
 18517 2a8d 07       		.byte	7
 18518 2a8e FF       		.byte	-1
 18519 2a8f 80       		.byte	-128
 18520 2a90 00       		.byte	0
 18521 2a91 0F       		.byte	15
 18522 2a92 FF       		.byte	-1
 18523 2a93 C0       		.byte	-64
 18524 2a94 00       		.byte	0
 18525 2a95 00       		.byte	0
 18526 2a96 00       		.byte	0
 18527 2a97 60       		.byte	96
 18528 2a98 00       		.byte	0
 18529 2a99 00       		.byte	0
 18530 2a9a 00       		.byte	0
 18531 2a9b 20       		.byte	32
 18532 2a9c 00       		.byte	0
 18533 2a9d 00       		.byte	0
 18534 2a9e 00       		.byte	0
 18535 2a9f 20       		.byte	32
 18536 2aa0 00       		.byte	0
 18537 2aa1 00       		.byte	0
 18538 2aa2 00       		.byte	0
 18539 2aa3 20       		.byte	32
 18540 2aa4 00       		.byte	0
 18541 2aa5 00       		.byte	0
 18542 2aa6 00       		.byte	0
 18543 2aa7 20       		.byte	32
 18544 2aa8 00       		.byte	0
 18545 2aa9 04       		.byte	4
 18546 2aaa 00       		.byte	0
ARM GAS  /tmp/cco7znPM.s 			page 382


 18547 2aab 40       		.byte	64
 18548 2aac 00       		.byte	0
 18549 2aad 04       		.byte	4
 18550 2aae 00       		.byte	0
 18551 2aaf 80       		.byte	-128
 18552 2ab0 00       		.byte	0
 18553 2ab1 07       		.byte	7
 18554 2ab2 FF       		.byte	-1
 18555 2ab3 E0       		.byte	-32
 18556 2ab4 00       		.byte	0
 18557 2ab5 0F       		.byte	15
 18558 2ab6 FF       		.byte	-1
 18559 2ab7 C0       		.byte	-64
 18560 2ab8 00       		.byte	0
 18561 2ab9 00       		.byte	0
 18562 2aba 00       		.byte	0
 18563 2abb 40       		.byte	64
 18564 2abc 00       		.byte	0
 18565 2abd 00       		.byte	0
 18566 2abe 00       		.byte	0
 18567 2abf 40       		.byte	64
 18568 2ac0 00000000 		.space	64
 18568      00000000 
 18568      00000000 
 18568      00000000 
 18568      00000000 
 18569 2b00 00       		.byte	0
 18570 2b01 00       		.byte	0
 18571 2b02 00       		.byte	0
 18572 2b03 00       		.byte	0
 18573 2b04 00       		.byte	0
 18574 2b05 04       		.byte	4
 18575 2b06 00       		.byte	0
 18576 2b07 00       		.byte	0
 18577 2b08 00       		.byte	0
 18578 2b09 04       		.byte	4
 18579 2b0a 00       		.byte	0
 18580 2b0b 00       		.byte	0
 18581 2b0c 00       		.byte	0
 18582 2b0d 07       		.byte	7
 18583 2b0e 80       		.byte	-128
 18584 2b0f 00       		.byte	0
 18585 2b10 00       		.byte	0
 18586 2b11 07       		.byte	7
 18587 2b12 F0       		.byte	-16
 18588 2b13 00       		.byte	0
 18589 2b14 00       		.byte	0
 18590 2b15 04       		.byte	4
 18591 2b16 FE       		.byte	-2
 18592 2b17 00       		.byte	0
 18593 2b18 00       		.byte	0
 18594 2b19 04       		.byte	4
 18595 2b1a 1F       		.byte	31
 18596 2b1b C0       		.byte	-64
 18597 2b1c 00       		.byte	0
 18598 2b1d 00       		.byte	0
 18599 2b1e 03       		.byte	3
ARM GAS  /tmp/cco7znPM.s 			page 383


 18600 2b1f E0       		.byte	-32
 18601 2b20 00       		.byte	0
 18602 2b21 00       		.byte	0
 18603 2b22 03       		.byte	3
 18604 2b23 80       		.byte	-128
 18605 2b24 00       		.byte	0
 18606 2b25 00       		.byte	0
 18607 2b26 1C       		.byte	28
 18608 2b27 00       		.byte	0
 18609 2b28 00       		.byte	0
 18610 2b29 04       		.byte	4
 18611 2b2a 60       		.byte	96
 18612 2b2b 00       		.byte	0
 18613 2b2c 00       		.byte	0
 18614 2b2d 07       		.byte	7
 18615 2b2e 80       		.byte	-128
 18616 2b2f 00       		.byte	0
 18617 2b30 00       		.byte	0
 18618 2b31 06       		.byte	6
 18619 2b32 00       		.byte	0
 18620 2b33 00       		.byte	0
 18621 2b34 00       		.byte	0
 18622 2b35 04       		.byte	4
 18623 2b36 00       		.byte	0
 18624 2b37 00       		.byte	0
 18625 2b38 00       		.byte	0
 18626 2b39 00       		.byte	0
 18627 2b3a 00       		.byte	0
 18628 2b3b 00       		.byte	0
 18629 2b3c 00       		.byte	0
 18630 2b3d 00       		.byte	0
 18631 2b3e 00       		.byte	0
 18632 2b3f 00       		.byte	0
 18633 2b40 00000000 		.space	64
 18633      00000000 
 18633      00000000 
 18633      00000000 
 18633      00000000 
 18634 2b80 00       		.byte	0
 18635 2b81 04       		.byte	4
 18636 2b82 00       		.byte	0
 18637 2b83 00       		.byte	0
 18638 2b84 00       		.byte	0
 18639 2b85 06       		.byte	6
 18640 2b86 00       		.byte	0
 18641 2b87 00       		.byte	0
 18642 2b88 00       		.byte	0
 18643 2b89 07       		.byte	7
 18644 2b8a C0       		.byte	-64
 18645 2b8b 00       		.byte	0
 18646 2b8c 00       		.byte	0
 18647 2b8d 07       		.byte	7
 18648 2b8e FC       		.byte	-4
 18649 2b8f 00       		.byte	0
 18650 2b90 00       		.byte	0
 18651 2b91 04       		.byte	4
 18652 2b92 3F       		.byte	63
ARM GAS  /tmp/cco7znPM.s 			page 384


 18653 2b93 80       		.byte	-128
 18654 2b94 00       		.byte	0
 18655 2b95 00       		.byte	0
 18656 2b96 03       		.byte	3
 18657 2b97 E0       		.byte	-32
 18658 2b98 00       		.byte	0
 18659 2b99 04       		.byte	4
 18660 2b9a 0F       		.byte	15
 18661 2b9b 80       		.byte	-128
 18662 2b9c 00       		.byte	0
 18663 2b9d 06       		.byte	6
 18664 2b9e F0       		.byte	-16
 18665 2b9f 00       		.byte	0
 18666 2ba0 00       		.byte	0
 18667 2ba1 07       		.byte	7
 18668 2ba2 F0       		.byte	-16
 18669 2ba3 00       		.byte	0
 18670 2ba4 00       		.byte	0
 18671 2ba5 07       		.byte	7
 18672 2ba6 FF       		.byte	-1
 18673 2ba7 80       		.byte	-128
 18674 2ba8 00       		.byte	0
 18675 2ba9 04       		.byte	4
 18676 2baa 0F       		.byte	15
 18677 2bab E0       		.byte	-32
 18678 2bac 00       		.byte	0
 18679 2bad 00       		.byte	0
 18680 2bae 03       		.byte	3
 18681 2baf 80       		.byte	-128
 18682 2bb0 00       		.byte	0
 18683 2bb1 04       		.byte	4
 18684 2bb2 3C       		.byte	60
 18685 2bb3 00       		.byte	0
 18686 2bb4 00       		.byte	0
 18687 2bb5 07       		.byte	7
 18688 2bb6 C0       		.byte	-64
 18689 2bb7 00       		.byte	0
 18690 2bb8 00       		.byte	0
 18691 2bb9 06       		.byte	6
 18692 2bba 00       		.byte	0
 18693 2bbb 00       		.byte	0
 18694 2bbc 00       		.byte	0
 18695 2bbd 04       		.byte	4
 18696 2bbe 00       		.byte	0
 18697 2bbf 00       		.byte	0
 18698 2bc0 00000000 		.space	64
 18698      00000000 
 18698      00000000 
 18698      00000000 
 18698      00000000 
 18699 2c00 00       		.byte	0
 18700 2c01 00       		.byte	0
 18701 2c02 00       		.byte	0
 18702 2c03 00       		.byte	0
 18703 2c04 00       		.byte	0
 18704 2c05 00       		.byte	0
 18705 2c06 00       		.byte	0
ARM GAS  /tmp/cco7znPM.s 			page 385


 18706 2c07 20       		.byte	32
 18707 2c08 00       		.byte	0
 18708 2c09 04       		.byte	4
 18709 2c0a 00       		.byte	0
 18710 2c0b 20       		.byte	32
 18711 2c0c 00       		.byte	0
 18712 2c0d 04       		.byte	4
 18713 2c0e 00       		.byte	0
 18714 2c0f 60       		.byte	96
 18715 2c10 00       		.byte	0
 18716 2c11 07       		.byte	7
 18717 2c12 00       		.byte	0
 18718 2c13 E0       		.byte	-32
 18719 2c14 00       		.byte	0
 18720 2c15 07       		.byte	7
 18721 2c16 83       		.byte	-125
 18722 2c17 20       		.byte	32
 18723 2c18 00       		.byte	0
 18724 2c19 07       		.byte	7
 18725 2c1a E6       		.byte	-26
 18726 2c1b 00       		.byte	0
 18727 2c1c 00       		.byte	0
 18728 2c1d 04       		.byte	4
 18729 2c1e F8       		.byte	-8
 18730 2c1f 00       		.byte	0
 18731 2c20 00       		.byte	0
 18732 2c21 00       		.byte	0
 18733 2c22 3C       		.byte	60
 18734 2c23 00       		.byte	0
 18735 2c24 00       		.byte	0
 18736 2c25 04       		.byte	4
 18737 2c26 5E       		.byte	94
 18738 2c27 20       		.byte	32
 18739 2c28 00       		.byte	0
 18740 2c29 05       		.byte	5
 18741 2c2a 87       		.byte	-121
 18742 2c2b A0       		.byte	-96
 18743 2c2c 00       		.byte	0
 18744 2c2d 06       		.byte	6
 18745 2c2e 01       		.byte	1
 18746 2c2f E0       		.byte	-32
 18747 2c30 00       		.byte	0
 18748 2c31 04       		.byte	4
 18749 2c32 00       		.byte	0
 18750 2c33 60       		.byte	96
 18751 2c34 00       		.byte	0
 18752 2c35 04       		.byte	4
 18753 2c36 00       		.byte	0
 18754 2c37 20       		.byte	32
 18755 2c38 00       		.byte	0
 18756 2c39 00       		.byte	0
 18757 2c3a 00       		.byte	0
 18758 2c3b 20       		.byte	32
 18759 2c3c 00       		.byte	0
 18760 2c3d 00       		.byte	0
 18761 2c3e 00       		.byte	0
 18762 2c3f 00       		.byte	0
ARM GAS  /tmp/cco7znPM.s 			page 386


 18763 2c40 00000000 		.space	64
 18763      00000000 
 18763      00000000 
 18763      00000000 
 18763      00000000 
 18764 2c80 00       		.byte	0
 18765 2c81 00       		.byte	0
 18766 2c82 00       		.byte	0
 18767 2c83 00       		.byte	0
 18768 2c84 00       		.byte	0
 18769 2c85 04       		.byte	4
 18770 2c86 00       		.byte	0
 18771 2c87 00       		.byte	0
 18772 2c88 00       		.byte	0
 18773 2c89 04       		.byte	4
 18774 2c8a 00       		.byte	0
 18775 2c8b 03       		.byte	3
 18776 2c8c 00       		.byte	0
 18777 2c8d 07       		.byte	7
 18778 2c8e 00       		.byte	0
 18779 2c8f 03       		.byte	3
 18780 2c90 00       		.byte	0
 18781 2c91 07       		.byte	7
 18782 2c92 E0       		.byte	-32
 18783 2c93 01       		.byte	1
 18784 2c94 00       		.byte	0
 18785 2c95 04       		.byte	4
 18786 2c96 F8       		.byte	-8
 18787 2c97 01       		.byte	1
 18788 2c98 00       		.byte	0
 18789 2c99 04       		.byte	4
 18790 2c9a 1F       		.byte	31
 18791 2c9b 02       		.byte	2
 18792 2c9c 00       		.byte	0
 18793 2c9d 00       		.byte	0
 18794 2c9e 07       		.byte	7
 18795 2c9f FC       		.byte	-4
 18796 2ca0 00       		.byte	0
 18797 2ca1 00       		.byte	0
 18798 2ca2 00       		.byte	0
 18799 2ca3 E0       		.byte	-32
 18800 2ca4 00       		.byte	0
 18801 2ca5 00       		.byte	0
 18802 2ca6 07       		.byte	7
 18803 2ca7 00       		.byte	0
 18804 2ca8 00       		.byte	0
 18805 2ca9 04       		.byte	4
 18806 2caa 38       		.byte	56
 18807 2cab 00       		.byte	0
 18808 2cac 00       		.byte	0
 18809 2cad 07       		.byte	7
 18810 2cae C0       		.byte	-64
 18811 2caf 00       		.byte	0
 18812 2cb0 00       		.byte	0
 18813 2cb1 06       		.byte	6
 18814 2cb2 00       		.byte	0
 18815 2cb3 00       		.byte	0
ARM GAS  /tmp/cco7znPM.s 			page 387


 18816 2cb4 00       		.byte	0
 18817 2cb5 04       		.byte	4
 18818 2cb6 00       		.byte	0
 18819 2cb7 00       		.byte	0
 18820 2cb8 00       		.byte	0
 18821 2cb9 04       		.byte	4
 18822 2cba 00       		.byte	0
 18823 2cbb 00       		.byte	0
 18824 2cbc 00       		.byte	0
 18825 2cbd 00       		.byte	0
 18826 2cbe 00       		.byte	0
 18827 2cbf 00       		.byte	0
 18828 2cc0 00000000 		.space	64
 18828      00000000 
 18828      00000000 
 18828      00000000 
 18828      00000000 
 18829 2d00 00       		.byte	0
 18830 2d01 00       		.byte	0
 18831 2d02 00       		.byte	0
 18832 2d03 00       		.byte	0
 18833 2d04 00       		.byte	0
 18834 2d05 00       		.byte	0
 18835 2d06 00       		.byte	0
 18836 2d07 00       		.byte	0
 18837 2d08 00       		.byte	0
 18838 2d09 07       		.byte	7
 18839 2d0a 80       		.byte	-128
 18840 2d0b 60       		.byte	96
 18841 2d0c 00       		.byte	0
 18842 2d0d 06       		.byte	6
 18843 2d0e 00       		.byte	0
 18844 2d0f E0       		.byte	-32
 18845 2d10 00       		.byte	0
 18846 2d11 04       		.byte	4
 18847 2d12 03       		.byte	3
 18848 2d13 E0       		.byte	-32
 18849 2d14 00       		.byte	0
 18850 2d15 04       		.byte	4
 18851 2d16 07       		.byte	7
 18852 2d17 A0       		.byte	-96
 18853 2d18 00       		.byte	0
 18854 2d19 04       		.byte	4
 18855 2d1a 0E       		.byte	14
 18856 2d1b 20       		.byte	32
 18857 2d1c 00       		.byte	0
 18858 2d1d 04       		.byte	4
 18859 2d1e 3C       		.byte	60
 18860 2d1f 20       		.byte	32
 18861 2d20 00       		.byte	0
 18862 2d21 04       		.byte	4
 18863 2d22 70       		.byte	112
 18864 2d23 20       		.byte	32
 18865 2d24 00       		.byte	0
 18866 2d25 05       		.byte	5
 18867 2d26 E0       		.byte	-32
 18868 2d27 20       		.byte	32
ARM GAS  /tmp/cco7znPM.s 			page 388


 18869 2d28 00       		.byte	0
 18870 2d29 07       		.byte	7
 18871 2d2a 80       		.byte	-128
 18872 2d2b 20       		.byte	32
 18873 2d2c 00       		.byte	0
 18874 2d2d 07       		.byte	7
 18875 2d2e 00       		.byte	0
 18876 2d2f 60       		.byte	96
 18877 2d30 00       		.byte	0
 18878 2d31 04       		.byte	4
 18879 2d32 00       		.byte	0
 18880 2d33 E0       		.byte	-32
 18881 2d34 00       		.byte	0
 18882 2d35 00       		.byte	0
 18883 2d36 03       		.byte	3
 18884 2d37 80       		.byte	-128
 18885 2d38 00       		.byte	0
 18886 2d39 00       		.byte	0
 18887 2d3a 00       		.byte	0
 18888 2d3b 00       		.byte	0
 18889 2d3c 00       		.byte	0
 18890 2d3d 00       		.byte	0
 18891 2d3e 00       		.byte	0
 18892 2d3f 00       		.byte	0
 18893 2d40 00000000 		.space	64
 18893      00000000 
 18893      00000000 
 18893      00000000 
 18893      00000000 
 18894 2d80 00       		.byte	0
 18895 2d81 00       		.byte	0
 18896 2d82 00       		.byte	0
 18897 2d83 00       		.byte	0
 18898 2d84 00       		.byte	0
 18899 2d85 00       		.byte	0
 18900 2d86 00       		.byte	0
 18901 2d87 00       		.byte	0
 18902 2d88 00       		.byte	0
 18903 2d89 00       		.byte	0
 18904 2d8a 00       		.byte	0
 18905 2d8b 00       		.byte	0
 18906 2d8c 00       		.byte	0
 18907 2d8d 00       		.byte	0
 18908 2d8e 00       		.byte	0
 18909 2d8f 00       		.byte	0
 18910 2d90 00       		.byte	0
 18911 2d91 00       		.byte	0
 18912 2d92 00       		.byte	0
 18913 2d93 00       		.byte	0
 18914 2d94 00       		.byte	0
 18915 2d95 00       		.byte	0
 18916 2d96 00       		.byte	0
 18917 2d97 00       		.byte	0
 18918 2d98 00       		.byte	0
 18919 2d99 00       		.byte	0
 18920 2d9a 00       		.byte	0
 18921 2d9b 00       		.byte	0
ARM GAS  /tmp/cco7znPM.s 			page 389


 18922 2d9c 00       		.byte	0
 18923 2d9d 00       		.byte	0
 18924 2d9e 80       		.byte	-128
 18925 2d9f 00       		.byte	0
 18926 2da0 00       		.byte	0
 18927 2da1 00       		.byte	0
 18928 2da2 80       		.byte	-128
 18929 2da3 00       		.byte	0
 18930 2da4 00       		.byte	0
 18931 2da5 01       		.byte	1
 18932 2da6 40       		.byte	64
 18933 2da7 00       		.byte	0
 18934 2da8 07       		.byte	7
 18935 2da9 FE       		.byte	-2
 18936 2daa 3F       		.byte	63
 18937 2dab F8       		.byte	-8
 18938 2dac 08       		.byte	8
 18939 2dad 00       		.byte	0
 18940 2dae 00       		.byte	0
 18941 2daf 04       		.byte	4
 18942 2db0 10       		.byte	16
 18943 2db1 00       		.byte	0
 18944 2db2 00       		.byte	0
 18945 2db3 02       		.byte	2
 18946 2db4 10       		.byte	16
 18947 2db5 00       		.byte	0
 18948 2db6 00       		.byte	0
 18949 2db7 02       		.byte	2
 18950 2db8 00       		.byte	0
 18951 2db9 00       		.byte	0
 18952 2dba 00       		.byte	0
 18953 2dbb 00       		.byte	0
 18954 2dbc 00       		.byte	0
 18955 2dbd 00       		.byte	0
 18956 2dbe 00       		.byte	0
 18957 2dbf 00       		.byte	0
 18958 2dc0 00000000 		.space	64
 18958      00000000 
 18958      00000000 
 18958      00000000 
 18958      00000000 
 18959 2e00 00       		.byte	0
 18960 2e01 00       		.byte	0
 18961 2e02 00       		.byte	0
 18962 2e03 00       		.byte	0
 18963 2e04 00       		.byte	0
 18964 2e05 00       		.byte	0
 18965 2e06 00       		.byte	0
 18966 2e07 00       		.byte	0
 18967 2e08 00       		.byte	0
 18968 2e09 00       		.byte	0
 18969 2e0a 00       		.byte	0
 18970 2e0b 00       		.byte	0
 18971 2e0c 00       		.byte	0
 18972 2e0d 00       		.byte	0
 18973 2e0e 00       		.byte	0
 18974 2e0f 00       		.byte	0
ARM GAS  /tmp/cco7znPM.s 			page 390


 18975 2e10 00       		.byte	0
 18976 2e11 00       		.byte	0
 18977 2e12 00       		.byte	0
 18978 2e13 00       		.byte	0
 18979 2e14 00       		.byte	0
 18980 2e15 00       		.byte	0
 18981 2e16 00       		.byte	0
 18982 2e17 00       		.byte	0
 18983 2e18 00       		.byte	0
 18984 2e19 00       		.byte	0
 18985 2e1a 00       		.byte	0
 18986 2e1b 00       		.byte	0
 18987 2e1c 00       		.byte	0
 18988 2e1d 00       		.byte	0
 18989 2e1e 00       		.byte	0
 18990 2e1f 00       		.byte	0
 18991 2e20 FF       		.byte	-1
 18992 2e21 FF       		.byte	-1
 18993 2e22 FF       		.byte	-1
 18994 2e23 FF       		.byte	-1
 18995 2e24 00       		.byte	0
 18996 2e25 00       		.byte	0
 18997 2e26 00       		.byte	0
 18998 2e27 00       		.byte	0
 18999 2e28 00       		.byte	0
 19000 2e29 00       		.byte	0
 19001 2e2a 00       		.byte	0
 19002 2e2b 00       		.byte	0
 19003 2e2c 00       		.byte	0
 19004 2e2d 00       		.byte	0
 19005 2e2e 00       		.byte	0
 19006 2e2f 00       		.byte	0
 19007 2e30 00       		.byte	0
 19008 2e31 00       		.byte	0
 19009 2e32 00       		.byte	0
 19010 2e33 00       		.byte	0
 19011 2e34 00       		.byte	0
 19012 2e35 00       		.byte	0
 19013 2e36 00       		.byte	0
 19014 2e37 00       		.byte	0
 19015 2e38 00       		.byte	0
 19016 2e39 00       		.byte	0
 19017 2e3a 00       		.byte	0
 19018 2e3b 00       		.byte	0
 19019 2e3c 00       		.byte	0
 19020 2e3d 00       		.byte	0
 19021 2e3e 00       		.byte	0
 19022 2e3f 00       		.byte	0
 19023 2e40 00000000 		.space	64
 19023      00000000 
 19023      00000000 
 19023      00000000 
 19023      00000000 
 19024 2e80 00       		.byte	0
 19025 2e81 00       		.byte	0
 19026 2e82 00       		.byte	0
 19027 2e83 00       		.byte	0
ARM GAS  /tmp/cco7znPM.s 			page 391


 19028 2e84 00       		.byte	0
 19029 2e85 00       		.byte	0
 19030 2e86 00       		.byte	0
 19031 2e87 00       		.byte	0
 19032 2e88 10       		.byte	16
 19033 2e89 00       		.byte	0
 19034 2e8a 00       		.byte	0
 19035 2e8b 02       		.byte	2
 19036 2e8c 10       		.byte	16
 19037 2e8d 00       		.byte	0
 19038 2e8e 00       		.byte	0
 19039 2e8f 02       		.byte	2
 19040 2e90 08       		.byte	8
 19041 2e91 00       		.byte	0
 19042 2e92 00       		.byte	0
 19043 2e93 04       		.byte	4
 19044 2e94 07       		.byte	7
 19045 2e95 FE       		.byte	-2
 19046 2e96 3F       		.byte	63
 19047 2e97 F8       		.byte	-8
 19048 2e98 00       		.byte	0
 19049 2e99 01       		.byte	1
 19050 2e9a 40       		.byte	64
 19051 2e9b 00       		.byte	0
 19052 2e9c 00       		.byte	0
 19053 2e9d 00       		.byte	0
 19054 2e9e 80       		.byte	-128
 19055 2e9f 00       		.byte	0
 19056 2ea0 00       		.byte	0
 19057 2ea1 00       		.byte	0
 19058 2ea2 80       		.byte	-128
 19059 2ea3 00       		.byte	0
 19060 2ea4 00       		.byte	0
 19061 2ea5 00       		.byte	0
 19062 2ea6 00       		.byte	0
 19063 2ea7 00       		.byte	0
 19064 2ea8 00       		.byte	0
 19065 2ea9 00       		.byte	0
 19066 2eaa 00       		.byte	0
 19067 2eab 00       		.byte	0
 19068 2eac 00       		.byte	0
 19069 2ead 00       		.byte	0
 19070 2eae 00       		.byte	0
 19071 2eaf 00       		.byte	0
 19072 2eb0 00       		.byte	0
 19073 2eb1 00       		.byte	0
 19074 2eb2 00       		.byte	0
 19075 2eb3 00       		.byte	0
 19076 2eb4 00       		.byte	0
 19077 2eb5 00       		.byte	0
 19078 2eb6 00       		.byte	0
 19079 2eb7 00       		.byte	0
 19080 2eb8 00       		.byte	0
 19081 2eb9 00       		.byte	0
 19082 2eba 00       		.byte	0
 19083 2ebb 00       		.byte	0
 19084 2ebc 00       		.byte	0
ARM GAS  /tmp/cco7znPM.s 			page 392


 19085 2ebd 00       		.byte	0
 19086 2ebe 00       		.byte	0
 19087 2ebf 00       		.byte	0
 19088 2ec0 00000000 		.space	64
 19088      00000000 
 19088      00000000 
 19088      00000000 
 19088      00000000 
 19089 2f00 00       		.byte	0
 19090 2f01 00       		.byte	0
 19091 2f02 00       		.byte	0
 19092 2f03 00       		.byte	0
 19093 2f04 18       		.byte	24
 19094 2f05 00       		.byte	0
 19095 2f06 00       		.byte	0
 19096 2f07 00       		.byte	0
 19097 2f08 30       		.byte	48
 19098 2f09 00       		.byte	0
 19099 2f0a 00       		.byte	0
 19100 2f0b 00       		.byte	0
 19101 2f0c 40       		.byte	64
 19102 2f0d 00       		.byte	0
 19103 2f0e 00       		.byte	0
 19104 2f0f 00       		.byte	0
 19105 2f10 40       		.byte	64
 19106 2f11 00       		.byte	0
 19107 2f12 00       		.byte	0
 19108 2f13 00       		.byte	0
 19109 2f14 40       		.byte	64
 19110 2f15 00       		.byte	0
 19111 2f16 00       		.byte	0
 19112 2f17 00       		.byte	0
 19113 2f18 20       		.byte	32
 19114 2f19 00       		.byte	0
 19115 2f1a 00       		.byte	0
 19116 2f1b 00       		.byte	0
 19117 2f1c 30       		.byte	48
 19118 2f1d 00       		.byte	0
 19119 2f1e 00       		.byte	0
 19120 2f1f 00       		.byte	0
 19121 2f20 08       		.byte	8
 19122 2f21 00       		.byte	0
 19123 2f22 00       		.byte	0
 19124 2f23 00       		.byte	0
 19125 2f24 04       		.byte	4
 19126 2f25 00       		.byte	0
 19127 2f26 00       		.byte	0
 19128 2f27 00       		.byte	0
 19129 2f28 02       		.byte	2
 19130 2f29 00       		.byte	0
 19131 2f2a 00       		.byte	0
 19132 2f2b 00       		.byte	0
 19133 2f2c 02       		.byte	2
 19134 2f2d 00       		.byte	0
 19135 2f2e 00       		.byte	0
 19136 2f2f 00       		.byte	0
 19137 2f30 02       		.byte	2
ARM GAS  /tmp/cco7znPM.s 			page 393


 19138 2f31 00       		.byte	0
 19139 2f32 00       		.byte	0
 19140 2f33 00       		.byte	0
 19141 2f34 0C       		.byte	12
 19142 2f35 00       		.byte	0
 19143 2f36 00       		.byte	0
 19144 2f37 00       		.byte	0
 19145 2f38 18       		.byte	24
 19146 2f39 00       		.byte	0
 19147 2f3a 00       		.byte	0
 19148 2f3b 00       		.byte	0
 19149 2f3c 00       		.byte	0
 19150 2f3d 00       		.byte	0
 19151 2f3e 00       		.byte	0
 19152 2f3f 00       		.byte	0
 19153 2f40 00000000 		.space	64
 19153      00000000 
 19153      00000000 
 19153      00000000 
 19153      00000000 
 19154              		.text
 19155              	.Letext0:
 19156              		.file 2 "/usr/include/newlib/machine/_default_types.h"
 19157              		.file 3 "/usr/include/newlib/sys/_stdint.h"
 19158              		.file 4 "Drivers/CMSIS/Include/core_cm4.h"
 19159              		.file 5 "Drivers/CMSIS/Device/ST/STM32F4xx/Include/system_stm32f4xx.h"
 19160              		.file 6 "Drivers/CMSIS/Device/ST/STM32F4xx/Include/stm32f429xx.h"
 19161              		.file 7 "/usr/include/newlib/sys/lock.h"
 19162              		.file 8 "/usr/include/newlib/sys/_types.h"
 19163              		.file 9 "/usr/lib/gcc/arm-none-eabi/6.3.1/include/stddef.h"
 19164              		.file 10 "/usr/include/newlib/sys/reent.h"
 19165              		.file 11 "Drivers/STM32F4xx_HAL_Driver/Inc/stm32f4xx_hal_def.h"
 19166              		.file 12 "Drivers/STM32F4xx_HAL_Driver/Inc/stm32f4xx_hal_gpio.h"
 19167              		.file 13 "Drivers/STM32F4xx_HAL_Driver/Inc/stm32f4xx_hal_dma.h"
 19168              		.file 14 "Drivers/STM32F4xx_HAL_Driver/Inc/stm32f4xx_ll_fmc.h"
 19169              		.file 15 "Drivers/STM32F4xx_HAL_Driver/Inc/stm32f4xx_hal_sram.h"
 19170              		.file 16 "Inc/bsp_tftlcd.h"
 19171              		.file 17 "Inc/font.h"
 19172              		.file 18 "Drivers/STM32F4xx_HAL_Driver/Inc/stm32f4xx_hal.h"
 19173              		.file 19 "/usr/include/newlib/stdio.h"
ARM GAS  /tmp/cco7znPM.s 			page 394


DEFINED SYMBOLS
                            *ABS*:0000000000000000 bsp_tftlcd.c
     /tmp/cco7znPM.s:18     .text.LCD_WR_REG:0000000000000000 $t
     /tmp/cco7znPM.s:25     .text.LCD_WR_REG:0000000000000000 LCD_WR_REG
     /tmp/cco7znPM.s:53     .text.LCD_WR_DATA:0000000000000000 $t
     /tmp/cco7znPM.s:60     .text.LCD_WR_DATA:0000000000000000 LCD_WR_DATA
     /tmp/cco7znPM.s:86     .text.LCD_WR_DATA:0000000000000014 $d
     /tmp/cco7znPM.s:91     .text.LCD_RD_DATA:0000000000000000 $t
     /tmp/cco7znPM.s:98     .text.LCD_RD_DATA:0000000000000000 LCD_RD_DATA
     /tmp/cco7znPM.s:114    .text.LCD_RD_DATA:0000000000000008 $d
     /tmp/cco7znPM.s:119    .text.LCD_WriteReg:0000000000000000 $t
     /tmp/cco7znPM.s:126    .text.LCD_WriteReg:0000000000000000 LCD_WriteReg
     /tmp/cco7znPM.s:145    .text.LCD_WriteRAM_Prepare:0000000000000000 $t
     /tmp/cco7znPM.s:152    .text.LCD_WriteRAM_Prepare:0000000000000000 LCD_WriteRAM_Prepare
     /tmp/cco7znPM.s:168    .text.LCD_WriteRAM_Prepare:000000000000000c $d
                            *COM*:000000000000000e lcddev
     /tmp/cco7znPM.s:173    .text.LCD_Scan_Dir:0000000000000000 $t
     /tmp/cco7znPM.s:180    .text.LCD_Scan_Dir:0000000000000000 LCD_Scan_Dir
     /tmp/cco7znPM.s:235    .text.LCD_Scan_Dir:0000000000000050 $d
     /tmp/cco7znPM.s:243    .text.LCD_Scan_Dir:0000000000000058 $t
     /tmp/cco7znPM.s:300    .text.LCD_Scan_Dir:0000000000000084 $d
     /tmp/cco7znPM.s:560    .text.LCD_Scan_Dir:00000000000001fc $d
     /tmp/cco7znPM.s:565    .text.LCD_Display_Dir:0000000000000000 $t
     /tmp/cco7znPM.s:572    .text.LCD_Display_Dir:0000000000000000 LCD_Display_Dir
     /tmp/cco7znPM.s:767    .text.LCD_Display_Dir:0000000000000134 $d
     /tmp/cco7znPM.s:772    .text.LCD_SetCursor:0000000000000000 $t
     /tmp/cco7znPM.s:779    .text.LCD_SetCursor:0000000000000000 LCD_SetCursor
     /tmp/cco7znPM.s:968    .text.LCD_SetCursor:0000000000000118 $d
     /tmp/cco7znPM.s:973    .text.LCD_DrawPoint:0000000000000000 $t
     /tmp/cco7znPM.s:980    .text.LCD_DrawPoint:0000000000000000 LCD_DrawPoint
     /tmp/cco7znPM.s:1007   .text.LCD_DrawPoint:0000000000000014 $d
     /tmp/cco7znPM.s:1012   .text.LCD_Fast_DrawPoint:0000000000000000 $t
     /tmp/cco7znPM.s:1019   .text.LCD_Fast_DrawPoint:0000000000000000 LCD_Fast_DrawPoint
     /tmp/cco7znPM.s:1194   .text.LCD_Fast_DrawPoint:0000000000000100 $d
     /tmp/cco7znPM.s:1199   .text.LCD_Clear:0000000000000000 $t
     /tmp/cco7znPM.s:1206   .text.LCD_Clear:0000000000000000 LCD_Clear
     /tmp/cco7znPM.s:1261   .text.LCD_Clear:000000000000002c $d
     /tmp/cco7znPM.s:1266   .text.HAL_SRAM_MspInit:0000000000000000 $t
     /tmp/cco7znPM.s:1273   .text.HAL_SRAM_MspInit:0000000000000000 HAL_SRAM_MspInit
     /tmp/cco7znPM.s:1387   .text.HAL_SRAM_MspInit:000000000000009c $d
     /tmp/cco7znPM.s:1395   .text.LCD_Init:0000000000000000 $t
     /tmp/cco7znPM.s:1402   .text.LCD_Init:0000000000000000 LCD_Init
     /tmp/cco7znPM.s:1699   .text.LCD_Init:00000000000001c4 $d
                            *COM*:0000000000000050 SRAM_Handler
     /tmp/cco7znPM.s:1706   .text.LCD_Init:00000000000001d8 $t
     /tmp/cco7znPM.s:6547   .text.LCD_ShowChar:0000000000000000 $t
     /tmp/cco7znPM.s:6554   .text.LCD_ShowChar:0000000000000000 LCD_ShowChar
     /tmp/cco7znPM.s:6743   .text.LCD_ShowChar:00000000000000ec $d
     /tmp/cco7znPM.s:6754   .text.LCD_ShowString:0000000000000000 $t
     /tmp/cco7znPM.s:6761   .text.LCD_ShowString:0000000000000000 LCD_ShowString
     /tmp/cco7znPM.s:6862   .data.BACK_COLOR:0000000000000000 BACK_COLOR
     /tmp/cco7znPM.s:6869   .data.POINT_COLOR:0000000000000000 POINT_COLOR
     /tmp/cco7znPM.s:12978  .rodata.asc2_3216:0000000000000000 asc2_3216
     /tmp/cco7znPM.s:9552   .rodata.asc2_2412:0000000000000000 asc2_2412
     /tmp/cco7znPM.s:8026   .rodata.asc2_1608:0000000000000000 asc2_1608
     /tmp/cco7znPM.s:6880   .rodata.asc2_1206:0000000000000000 asc2_1206
     /tmp/cco7znPM.s:6858   .data.BACK_COLOR:0000000000000000 $d
ARM GAS  /tmp/cco7znPM.s 			page 395


     /tmp/cco7znPM.s:6865   .data.POINT_COLOR:0000000000000000 $d
     /tmp/cco7znPM.s:6872   .rodata.LCD_Init.str1.4:0000000000000000 $d
     /tmp/cco7znPM.s:6876   .rodata.asc2_1206:0000000000000000 $d
     /tmp/cco7znPM.s:8022   .rodata.asc2_1608:0000000000000000 $d
     /tmp/cco7znPM.s:9548   .rodata.asc2_2412:0000000000000000 $d
     /tmp/cco7znPM.s:12974  .rodata.asc2_3216:0000000000000000 $d
                     .debug_frame:0000000000000010 $d
     /tmp/cco7znPM.s:307    .text.LCD_Scan_Dir:000000000000008b $d
     /tmp/cco7znPM.s:307    .text.LCD_Scan_Dir:000000000000008c $t

UNDEFINED SYMBOLS
HAL_GPIO_Init
HAL_SRAM_Init
HAL_Delay
printf
HAL_GPIO_WritePin
