ARM GAS  /tmp/ccODvp7u.s 			page 1


   1              		.cpu cortex-m4
   2              		.eabi_attribute 27, 1
   3              		.eabi_attribute 28, 1
   4              		.eabi_attribute 20, 1
   5              		.eabi_attribute 21, 1
   6              		.eabi_attribute 23, 3
   7              		.eabi_attribute 24, 1
   8              		.eabi_attribute 25, 1
   9              		.eabi_attribute 26, 1
  10              		.eabi_attribute 30, 1
  11              		.eabi_attribute 34, 1
  12              		.eabi_attribute 18, 4
  13              		.file	"stm32f4xx_hal_sram.c"
  14              		.text
  15              	.Ltext0:
  16              		.cfi_sections	.debug_frame
  17              		.section	.text.HAL_SRAM_DMA_XferCpltCallback,"ax",%progbits
  18              		.align	1
  19              		.weak	HAL_SRAM_DMA_XferCpltCallback
  20              		.syntax unified
  21              		.thumb
  22              		.thumb_func
  23              		.fpu fpv4-sp-d16
  25              	HAL_SRAM_DMA_XferCpltCallback:
  26              	.LFB128:
  27              		.file 1 "Drivers/STM32F4xx_HAL_Driver/Src/stm32f4xx_hal_sram.c"
   1:Drivers/STM32F4xx_HAL_Driver/Src/stm32f4xx_hal_sram.c **** /**
   2:Drivers/STM32F4xx_HAL_Driver/Src/stm32f4xx_hal_sram.c ****   ******************************************************************************
   3:Drivers/STM32F4xx_HAL_Driver/Src/stm32f4xx_hal_sram.c ****   * @file    stm32f4xx_hal_sram.c
   4:Drivers/STM32F4xx_HAL_Driver/Src/stm32f4xx_hal_sram.c ****   * @author  MCD Application Team
   5:Drivers/STM32F4xx_HAL_Driver/Src/stm32f4xx_hal_sram.c ****   * @brief   SRAM HAL module driver.
   6:Drivers/STM32F4xx_HAL_Driver/Src/stm32f4xx_hal_sram.c ****   *          This file provides a generic firmware to drive SRAM memories  
   7:Drivers/STM32F4xx_HAL_Driver/Src/stm32f4xx_hal_sram.c ****   *          mounted as external device.
   8:Drivers/STM32F4xx_HAL_Driver/Src/stm32f4xx_hal_sram.c ****   *         
   9:Drivers/STM32F4xx_HAL_Driver/Src/stm32f4xx_hal_sram.c ****   @verbatim
  10:Drivers/STM32F4xx_HAL_Driver/Src/stm32f4xx_hal_sram.c ****   ==============================================================================
  11:Drivers/STM32F4xx_HAL_Driver/Src/stm32f4xx_hal_sram.c ****                           ##### How to use this driver #####
  12:Drivers/STM32F4xx_HAL_Driver/Src/stm32f4xx_hal_sram.c ****   ==============================================================================  
  13:Drivers/STM32F4xx_HAL_Driver/Src/stm32f4xx_hal_sram.c ****   [..]
  14:Drivers/STM32F4xx_HAL_Driver/Src/stm32f4xx_hal_sram.c ****     This driver is a generic layered driver which contains a set of APIs used to 
  15:Drivers/STM32F4xx_HAL_Driver/Src/stm32f4xx_hal_sram.c ****     control SRAM memories. It uses the FMC layer functions to interface 
  16:Drivers/STM32F4xx_HAL_Driver/Src/stm32f4xx_hal_sram.c ****     with SRAM devices.  
  17:Drivers/STM32F4xx_HAL_Driver/Src/stm32f4xx_hal_sram.c ****     The following sequence should be followed to configure the FMC/FSMC to interface
  18:Drivers/STM32F4xx_HAL_Driver/Src/stm32f4xx_hal_sram.c ****     with SRAM/PSRAM memories: 
  19:Drivers/STM32F4xx_HAL_Driver/Src/stm32f4xx_hal_sram.c ****       
  20:Drivers/STM32F4xx_HAL_Driver/Src/stm32f4xx_hal_sram.c ****    (#) Declare a SRAM_HandleTypeDef handle structure, for example:
  21:Drivers/STM32F4xx_HAL_Driver/Src/stm32f4xx_hal_sram.c ****           SRAM_HandleTypeDef  hsram; and: 
  22:Drivers/STM32F4xx_HAL_Driver/Src/stm32f4xx_hal_sram.c ****           
  23:Drivers/STM32F4xx_HAL_Driver/Src/stm32f4xx_hal_sram.c ****        (++) Fill the SRAM_HandleTypeDef handle "Init" field with the allowed 
  24:Drivers/STM32F4xx_HAL_Driver/Src/stm32f4xx_hal_sram.c ****             values of the structure member.
  25:Drivers/STM32F4xx_HAL_Driver/Src/stm32f4xx_hal_sram.c ****             
  26:Drivers/STM32F4xx_HAL_Driver/Src/stm32f4xx_hal_sram.c ****        (++) Fill the SRAM_HandleTypeDef handle "Instance" field with a predefined 
  27:Drivers/STM32F4xx_HAL_Driver/Src/stm32f4xx_hal_sram.c ****             base register instance for NOR or SRAM device 
  28:Drivers/STM32F4xx_HAL_Driver/Src/stm32f4xx_hal_sram.c ****                          
  29:Drivers/STM32F4xx_HAL_Driver/Src/stm32f4xx_hal_sram.c ****        (++) Fill the SRAM_HandleTypeDef handle "Extended" field with a predefined
  30:Drivers/STM32F4xx_HAL_Driver/Src/stm32f4xx_hal_sram.c ****             base register instance for NOR or SRAM extended mode 
  31:Drivers/STM32F4xx_HAL_Driver/Src/stm32f4xx_hal_sram.c ****              
ARM GAS  /tmp/ccODvp7u.s 			page 2


  32:Drivers/STM32F4xx_HAL_Driver/Src/stm32f4xx_hal_sram.c ****    (#) Declare two FMC_NORSRAM_TimingTypeDef structures, for both normal and extended 
  33:Drivers/STM32F4xx_HAL_Driver/Src/stm32f4xx_hal_sram.c ****        mode timings; for example:
  34:Drivers/STM32F4xx_HAL_Driver/Src/stm32f4xx_hal_sram.c ****           FMC_NORSRAM_TimingTypeDef  Timing and FMC_NORSRAM_TimingTypeDef  ExTiming;
  35:Drivers/STM32F4xx_HAL_Driver/Src/stm32f4xx_hal_sram.c ****       and fill its fields with the allowed values of the structure member.
  36:Drivers/STM32F4xx_HAL_Driver/Src/stm32f4xx_hal_sram.c ****       
  37:Drivers/STM32F4xx_HAL_Driver/Src/stm32f4xx_hal_sram.c ****    (#) Initialize the SRAM Controller by calling the function HAL_SRAM_Init(). This function
  38:Drivers/STM32F4xx_HAL_Driver/Src/stm32f4xx_hal_sram.c ****        performs the following sequence:
  39:Drivers/STM32F4xx_HAL_Driver/Src/stm32f4xx_hal_sram.c ****           
  40:Drivers/STM32F4xx_HAL_Driver/Src/stm32f4xx_hal_sram.c ****        (##) MSP hardware layer configuration using the function HAL_SRAM_MspInit()
  41:Drivers/STM32F4xx_HAL_Driver/Src/stm32f4xx_hal_sram.c ****        (##) Control register configuration using the FMC NORSRAM interface function 
  42:Drivers/STM32F4xx_HAL_Driver/Src/stm32f4xx_hal_sram.c ****             FMC_NORSRAM_Init()
  43:Drivers/STM32F4xx_HAL_Driver/Src/stm32f4xx_hal_sram.c ****        (##) Timing register configuration using the FMC NORSRAM interface function 
  44:Drivers/STM32F4xx_HAL_Driver/Src/stm32f4xx_hal_sram.c ****             FMC_NORSRAM_Timing_Init()
  45:Drivers/STM32F4xx_HAL_Driver/Src/stm32f4xx_hal_sram.c ****        (##) Extended mode Timing register configuration using the FMC NORSRAM interface function 
  46:Drivers/STM32F4xx_HAL_Driver/Src/stm32f4xx_hal_sram.c ****             FMC_NORSRAM_Extended_Timing_Init()
  47:Drivers/STM32F4xx_HAL_Driver/Src/stm32f4xx_hal_sram.c ****        (##) Enable the SRAM device using the macro __FMC_NORSRAM_ENABLE()    
  48:Drivers/STM32F4xx_HAL_Driver/Src/stm32f4xx_hal_sram.c **** 
  49:Drivers/STM32F4xx_HAL_Driver/Src/stm32f4xx_hal_sram.c ****    (#) At this stage you can perform read/write accesses from/to the memory connected 
  50:Drivers/STM32F4xx_HAL_Driver/Src/stm32f4xx_hal_sram.c ****        to the NOR/SRAM Bank. You can perform either polling or DMA transfer using the
  51:Drivers/STM32F4xx_HAL_Driver/Src/stm32f4xx_hal_sram.c ****        following APIs:
  52:Drivers/STM32F4xx_HAL_Driver/Src/stm32f4xx_hal_sram.c ****        (++) HAL_SRAM_Read()/HAL_SRAM_Write() for polling read/write access
  53:Drivers/STM32F4xx_HAL_Driver/Src/stm32f4xx_hal_sram.c ****        (++) HAL_SRAM_Read_DMA()/HAL_SRAM_Write_DMA() for DMA read/write transfer
  54:Drivers/STM32F4xx_HAL_Driver/Src/stm32f4xx_hal_sram.c ****        
  55:Drivers/STM32F4xx_HAL_Driver/Src/stm32f4xx_hal_sram.c ****    (#) You can also control the SRAM device by calling the control APIs HAL_SRAM_WriteOperation_Ena
  56:Drivers/STM32F4xx_HAL_Driver/Src/stm32f4xx_hal_sram.c ****        HAL_SRAM_WriteOperation_Disable() to respectively enable/disable the SRAM write operation  
  57:Drivers/STM32F4xx_HAL_Driver/Src/stm32f4xx_hal_sram.c ****        
  58:Drivers/STM32F4xx_HAL_Driver/Src/stm32f4xx_hal_sram.c ****    (#) You can continuously monitor the SRAM device HAL state by calling the function
  59:Drivers/STM32F4xx_HAL_Driver/Src/stm32f4xx_hal_sram.c ****        HAL_SRAM_GetState()              
  60:Drivers/STM32F4xx_HAL_Driver/Src/stm32f4xx_hal_sram.c ****                              
  61:Drivers/STM32F4xx_HAL_Driver/Src/stm32f4xx_hal_sram.c ****   @endverbatim
  62:Drivers/STM32F4xx_HAL_Driver/Src/stm32f4xx_hal_sram.c ****   ******************************************************************************
  63:Drivers/STM32F4xx_HAL_Driver/Src/stm32f4xx_hal_sram.c ****   * @attention
  64:Drivers/STM32F4xx_HAL_Driver/Src/stm32f4xx_hal_sram.c ****   *
  65:Drivers/STM32F4xx_HAL_Driver/Src/stm32f4xx_hal_sram.c ****   * <h2><center>&copy; COPYRIGHT(c) 2017 STMicroelectronics</center></h2>
  66:Drivers/STM32F4xx_HAL_Driver/Src/stm32f4xx_hal_sram.c ****   *
  67:Drivers/STM32F4xx_HAL_Driver/Src/stm32f4xx_hal_sram.c ****   * Redistribution and use in source and binary forms, with or without modification,
  68:Drivers/STM32F4xx_HAL_Driver/Src/stm32f4xx_hal_sram.c ****   * are permitted provided that the following conditions are met:
  69:Drivers/STM32F4xx_HAL_Driver/Src/stm32f4xx_hal_sram.c ****   *   1. Redistributions of source code must retain the above copyright notice,
  70:Drivers/STM32F4xx_HAL_Driver/Src/stm32f4xx_hal_sram.c ****   *      this list of conditions and the following disclaimer.
  71:Drivers/STM32F4xx_HAL_Driver/Src/stm32f4xx_hal_sram.c ****   *   2. Redistributions in binary form must reproduce the above copyright notice,
  72:Drivers/STM32F4xx_HAL_Driver/Src/stm32f4xx_hal_sram.c ****   *      this list of conditions and the following disclaimer in the documentation
  73:Drivers/STM32F4xx_HAL_Driver/Src/stm32f4xx_hal_sram.c ****   *      and/or other materials provided with the distribution.
  74:Drivers/STM32F4xx_HAL_Driver/Src/stm32f4xx_hal_sram.c ****   *   3. Neither the name of STMicroelectronics nor the names of its contributors
  75:Drivers/STM32F4xx_HAL_Driver/Src/stm32f4xx_hal_sram.c ****   *      may be used to endorse or promote products derived from this software
  76:Drivers/STM32F4xx_HAL_Driver/Src/stm32f4xx_hal_sram.c ****   *      without specific prior written permission.
  77:Drivers/STM32F4xx_HAL_Driver/Src/stm32f4xx_hal_sram.c ****   *
  78:Drivers/STM32F4xx_HAL_Driver/Src/stm32f4xx_hal_sram.c ****   * THIS SOFTWARE IS PROVIDED BY THE COPYRIGHT HOLDERS AND CONTRIBUTORS "AS IS"
  79:Drivers/STM32F4xx_HAL_Driver/Src/stm32f4xx_hal_sram.c ****   * AND ANY EXPRESS OR IMPLIED WARRANTIES, INCLUDING, BUT NOT LIMITED TO, THE
  80:Drivers/STM32F4xx_HAL_Driver/Src/stm32f4xx_hal_sram.c ****   * IMPLIED WARRANTIES OF MERCHANTABILITY AND FITNESS FOR A PARTICULAR PURPOSE ARE
  81:Drivers/STM32F4xx_HAL_Driver/Src/stm32f4xx_hal_sram.c ****   * DISCLAIMED. IN NO EVENT SHALL THE COPYRIGHT HOLDER OR CONTRIBUTORS BE LIABLE
  82:Drivers/STM32F4xx_HAL_Driver/Src/stm32f4xx_hal_sram.c ****   * FOR ANY DIRECT, INDIRECT, INCIDENTAL, SPECIAL, EXEMPLARY, OR CONSEQUENTIAL
  83:Drivers/STM32F4xx_HAL_Driver/Src/stm32f4xx_hal_sram.c ****   * DAMAGES (INCLUDING, BUT NOT LIMITED TO, PROCUREMENT OF SUBSTITUTE GOODS OR
  84:Drivers/STM32F4xx_HAL_Driver/Src/stm32f4xx_hal_sram.c ****   * SERVICES; LOSS OF USE, DATA, OR PROFITS; OR BUSINESS INTERRUPTION) HOWEVER
  85:Drivers/STM32F4xx_HAL_Driver/Src/stm32f4xx_hal_sram.c ****   * CAUSED AND ON ANY THEORY OF LIABILITY, WHETHER IN CONTRACT, STRICT LIABILITY,
  86:Drivers/STM32F4xx_HAL_Driver/Src/stm32f4xx_hal_sram.c ****   * OR TORT (INCLUDING NEGLIGENCE OR OTHERWISE) ARISING IN ANY WAY OUT OF THE USE
  87:Drivers/STM32F4xx_HAL_Driver/Src/stm32f4xx_hal_sram.c ****   * OF THIS SOFTWARE, EVEN IF ADVISED OF THE POSSIBILITY OF SUCH DAMAGE.
  88:Drivers/STM32F4xx_HAL_Driver/Src/stm32f4xx_hal_sram.c ****   *
ARM GAS  /tmp/ccODvp7u.s 			page 3


  89:Drivers/STM32F4xx_HAL_Driver/Src/stm32f4xx_hal_sram.c ****   ******************************************************************************
  90:Drivers/STM32F4xx_HAL_Driver/Src/stm32f4xx_hal_sram.c ****   */ 
  91:Drivers/STM32F4xx_HAL_Driver/Src/stm32f4xx_hal_sram.c **** 
  92:Drivers/STM32F4xx_HAL_Driver/Src/stm32f4xx_hal_sram.c **** /* Includes ------------------------------------------------------------------*/
  93:Drivers/STM32F4xx_HAL_Driver/Src/stm32f4xx_hal_sram.c **** #include "stm32f4xx_hal.h"
  94:Drivers/STM32F4xx_HAL_Driver/Src/stm32f4xx_hal_sram.c **** 
  95:Drivers/STM32F4xx_HAL_Driver/Src/stm32f4xx_hal_sram.c **** /** @addtogroup STM32F4xx_HAL_Driver
  96:Drivers/STM32F4xx_HAL_Driver/Src/stm32f4xx_hal_sram.c ****   * @{
  97:Drivers/STM32F4xx_HAL_Driver/Src/stm32f4xx_hal_sram.c ****   */
  98:Drivers/STM32F4xx_HAL_Driver/Src/stm32f4xx_hal_sram.c **** 
  99:Drivers/STM32F4xx_HAL_Driver/Src/stm32f4xx_hal_sram.c **** /** @defgroup SRAM SRAM
 100:Drivers/STM32F4xx_HAL_Driver/Src/stm32f4xx_hal_sram.c ****   * @brief SRAM driver modules
 101:Drivers/STM32F4xx_HAL_Driver/Src/stm32f4xx_hal_sram.c ****   * @{
 102:Drivers/STM32F4xx_HAL_Driver/Src/stm32f4xx_hal_sram.c ****   */
 103:Drivers/STM32F4xx_HAL_Driver/Src/stm32f4xx_hal_sram.c **** #ifdef HAL_SRAM_MODULE_ENABLED
 104:Drivers/STM32F4xx_HAL_Driver/Src/stm32f4xx_hal_sram.c **** 
 105:Drivers/STM32F4xx_HAL_Driver/Src/stm32f4xx_hal_sram.c **** #if defined(STM32F405xx) || defined(STM32F415xx) || defined(STM32F407xx) || defined(STM32F417xx) ||
 106:Drivers/STM32F4xx_HAL_Driver/Src/stm32f4xx_hal_sram.c ****     defined(STM32F427xx) || defined(STM32F437xx) || defined(STM32F429xx) || defined(STM32F439xx) ||
 107:Drivers/STM32F4xx_HAL_Driver/Src/stm32f4xx_hal_sram.c ****     defined(STM32F446xx) || defined(STM32F469xx) || defined(STM32F479xx) || defined(STM32F412Zx) ||
 108:Drivers/STM32F4xx_HAL_Driver/Src/stm32f4xx_hal_sram.c ****     defined(STM32F412Vx) || defined(STM32F412Rx) || defined(STM32F413xx) || defined(STM32F423xx)
 109:Drivers/STM32F4xx_HAL_Driver/Src/stm32f4xx_hal_sram.c **** 
 110:Drivers/STM32F4xx_HAL_Driver/Src/stm32f4xx_hal_sram.c **** /* Private typedef -----------------------------------------------------------*/
 111:Drivers/STM32F4xx_HAL_Driver/Src/stm32f4xx_hal_sram.c **** /* Private define ------------------------------------------------------------*/
 112:Drivers/STM32F4xx_HAL_Driver/Src/stm32f4xx_hal_sram.c **** /* Private macro -------------------------------------------------------------*/    
 113:Drivers/STM32F4xx_HAL_Driver/Src/stm32f4xx_hal_sram.c **** /* Private variables ---------------------------------------------------------*/
 114:Drivers/STM32F4xx_HAL_Driver/Src/stm32f4xx_hal_sram.c **** /* Private functions ---------------------------------------------------------*/
 115:Drivers/STM32F4xx_HAL_Driver/Src/stm32f4xx_hal_sram.c **** 
 116:Drivers/STM32F4xx_HAL_Driver/Src/stm32f4xx_hal_sram.c **** /* Exported functions --------------------------------------------------------*/
 117:Drivers/STM32F4xx_HAL_Driver/Src/stm32f4xx_hal_sram.c **** /** @defgroup SRAM_Exported_Functions SRAM Exported Functions
 118:Drivers/STM32F4xx_HAL_Driver/Src/stm32f4xx_hal_sram.c ****   * @{
 119:Drivers/STM32F4xx_HAL_Driver/Src/stm32f4xx_hal_sram.c ****   */
 120:Drivers/STM32F4xx_HAL_Driver/Src/stm32f4xx_hal_sram.c **** /** @defgroup SRAM_Exported_Functions_Group1 Initialization and de-initialization functions 
 121:Drivers/STM32F4xx_HAL_Driver/Src/stm32f4xx_hal_sram.c ****   * @brief    Initialization and Configuration functions 
 122:Drivers/STM32F4xx_HAL_Driver/Src/stm32f4xx_hal_sram.c ****   *
 123:Drivers/STM32F4xx_HAL_Driver/Src/stm32f4xx_hal_sram.c ****   @verbatim    
 124:Drivers/STM32F4xx_HAL_Driver/Src/stm32f4xx_hal_sram.c ****   ==============================================================================
 125:Drivers/STM32F4xx_HAL_Driver/Src/stm32f4xx_hal_sram.c ****            ##### SRAM Initialization and de_initialization functions #####
 126:Drivers/STM32F4xx_HAL_Driver/Src/stm32f4xx_hal_sram.c ****   ==============================================================================
 127:Drivers/STM32F4xx_HAL_Driver/Src/stm32f4xx_hal_sram.c ****     [..]  This section provides functions allowing to initialize/de-initialize
 128:Drivers/STM32F4xx_HAL_Driver/Src/stm32f4xx_hal_sram.c ****           the SRAM memory
 129:Drivers/STM32F4xx_HAL_Driver/Src/stm32f4xx_hal_sram.c ****   
 130:Drivers/STM32F4xx_HAL_Driver/Src/stm32f4xx_hal_sram.c **** @endverbatim
 131:Drivers/STM32F4xx_HAL_Driver/Src/stm32f4xx_hal_sram.c ****   * @{
 132:Drivers/STM32F4xx_HAL_Driver/Src/stm32f4xx_hal_sram.c ****   */
 133:Drivers/STM32F4xx_HAL_Driver/Src/stm32f4xx_hal_sram.c **** 
 134:Drivers/STM32F4xx_HAL_Driver/Src/stm32f4xx_hal_sram.c **** /**
 135:Drivers/STM32F4xx_HAL_Driver/Src/stm32f4xx_hal_sram.c ****   * @brief  Performs the SRAM device initialization sequence
 136:Drivers/STM32F4xx_HAL_Driver/Src/stm32f4xx_hal_sram.c ****   * @param  hsram pointer to a SRAM_HandleTypeDef structure that contains
 137:Drivers/STM32F4xx_HAL_Driver/Src/stm32f4xx_hal_sram.c ****   *                the configuration information for SRAM module.
 138:Drivers/STM32F4xx_HAL_Driver/Src/stm32f4xx_hal_sram.c ****   * @param  Timing Pointer to SRAM control timing structure 
 139:Drivers/STM32F4xx_HAL_Driver/Src/stm32f4xx_hal_sram.c ****   * @param  ExtTiming Pointer to SRAM extended mode timing structure  
 140:Drivers/STM32F4xx_HAL_Driver/Src/stm32f4xx_hal_sram.c ****   * @retval HAL status
 141:Drivers/STM32F4xx_HAL_Driver/Src/stm32f4xx_hal_sram.c ****   */
 142:Drivers/STM32F4xx_HAL_Driver/Src/stm32f4xx_hal_sram.c **** HAL_StatusTypeDef HAL_SRAM_Init(SRAM_HandleTypeDef *hsram, FMC_NORSRAM_TimingTypeDef *Timing, FMC_N
 143:Drivers/STM32F4xx_HAL_Driver/Src/stm32f4xx_hal_sram.c **** { 
 144:Drivers/STM32F4xx_HAL_Driver/Src/stm32f4xx_hal_sram.c ****   /* Check the SRAM handle parameter */
 145:Drivers/STM32F4xx_HAL_Driver/Src/stm32f4xx_hal_sram.c ****   if(hsram == NULL)
ARM GAS  /tmp/ccODvp7u.s 			page 4


 146:Drivers/STM32F4xx_HAL_Driver/Src/stm32f4xx_hal_sram.c ****   {
 147:Drivers/STM32F4xx_HAL_Driver/Src/stm32f4xx_hal_sram.c ****      return HAL_ERROR;
 148:Drivers/STM32F4xx_HAL_Driver/Src/stm32f4xx_hal_sram.c ****   }
 149:Drivers/STM32F4xx_HAL_Driver/Src/stm32f4xx_hal_sram.c ****   
 150:Drivers/STM32F4xx_HAL_Driver/Src/stm32f4xx_hal_sram.c ****   if(hsram->State == HAL_SRAM_STATE_RESET)
 151:Drivers/STM32F4xx_HAL_Driver/Src/stm32f4xx_hal_sram.c ****   {  
 152:Drivers/STM32F4xx_HAL_Driver/Src/stm32f4xx_hal_sram.c ****     /* Allocate lock resource and initialize it */
 153:Drivers/STM32F4xx_HAL_Driver/Src/stm32f4xx_hal_sram.c ****     hsram->Lock = HAL_UNLOCKED;
 154:Drivers/STM32F4xx_HAL_Driver/Src/stm32f4xx_hal_sram.c ****     /* Initialize the low level hardware (MSP) */
 155:Drivers/STM32F4xx_HAL_Driver/Src/stm32f4xx_hal_sram.c ****     HAL_SRAM_MspInit(hsram);
 156:Drivers/STM32F4xx_HAL_Driver/Src/stm32f4xx_hal_sram.c ****   }
 157:Drivers/STM32F4xx_HAL_Driver/Src/stm32f4xx_hal_sram.c ****   
 158:Drivers/STM32F4xx_HAL_Driver/Src/stm32f4xx_hal_sram.c ****   /* Initialize SRAM control Interface */
 159:Drivers/STM32F4xx_HAL_Driver/Src/stm32f4xx_hal_sram.c ****   FMC_NORSRAM_Init(hsram->Instance, &(hsram->Init));
 160:Drivers/STM32F4xx_HAL_Driver/Src/stm32f4xx_hal_sram.c **** 
 161:Drivers/STM32F4xx_HAL_Driver/Src/stm32f4xx_hal_sram.c ****   /* Initialize SRAM timing Interface */
 162:Drivers/STM32F4xx_HAL_Driver/Src/stm32f4xx_hal_sram.c ****   FMC_NORSRAM_Timing_Init(hsram->Instance, Timing, hsram->Init.NSBank); 
 163:Drivers/STM32F4xx_HAL_Driver/Src/stm32f4xx_hal_sram.c **** 
 164:Drivers/STM32F4xx_HAL_Driver/Src/stm32f4xx_hal_sram.c ****   /* Initialize SRAM extended mode timing Interface */
 165:Drivers/STM32F4xx_HAL_Driver/Src/stm32f4xx_hal_sram.c ****   FMC_NORSRAM_Extended_Timing_Init(hsram->Extended, ExtTiming, hsram->Init.NSBank,  hsram->Init.Ext
 166:Drivers/STM32F4xx_HAL_Driver/Src/stm32f4xx_hal_sram.c ****   
 167:Drivers/STM32F4xx_HAL_Driver/Src/stm32f4xx_hal_sram.c ****   /* Enable the NORSRAM device */
 168:Drivers/STM32F4xx_HAL_Driver/Src/stm32f4xx_hal_sram.c ****   __FMC_NORSRAM_ENABLE(hsram->Instance, hsram->Init.NSBank); 
 169:Drivers/STM32F4xx_HAL_Driver/Src/stm32f4xx_hal_sram.c ****   
 170:Drivers/STM32F4xx_HAL_Driver/Src/stm32f4xx_hal_sram.c ****   return HAL_OK;
 171:Drivers/STM32F4xx_HAL_Driver/Src/stm32f4xx_hal_sram.c **** }
 172:Drivers/STM32F4xx_HAL_Driver/Src/stm32f4xx_hal_sram.c **** 
 173:Drivers/STM32F4xx_HAL_Driver/Src/stm32f4xx_hal_sram.c **** /**
 174:Drivers/STM32F4xx_HAL_Driver/Src/stm32f4xx_hal_sram.c ****   * @brief  Performs the SRAM device De-initialization sequence.
 175:Drivers/STM32F4xx_HAL_Driver/Src/stm32f4xx_hal_sram.c ****   * @param  hsram pointer to a SRAM_HandleTypeDef structure that contains
 176:Drivers/STM32F4xx_HAL_Driver/Src/stm32f4xx_hal_sram.c ****   *                the configuration information for SRAM module.
 177:Drivers/STM32F4xx_HAL_Driver/Src/stm32f4xx_hal_sram.c ****   * @retval HAL status
 178:Drivers/STM32F4xx_HAL_Driver/Src/stm32f4xx_hal_sram.c ****   */
 179:Drivers/STM32F4xx_HAL_Driver/Src/stm32f4xx_hal_sram.c **** HAL_StatusTypeDef  HAL_SRAM_DeInit(SRAM_HandleTypeDef *hsram)
 180:Drivers/STM32F4xx_HAL_Driver/Src/stm32f4xx_hal_sram.c **** { 
 181:Drivers/STM32F4xx_HAL_Driver/Src/stm32f4xx_hal_sram.c ****   /* De-Initialize the low level hardware (MSP) */
 182:Drivers/STM32F4xx_HAL_Driver/Src/stm32f4xx_hal_sram.c ****   HAL_SRAM_MspDeInit(hsram);
 183:Drivers/STM32F4xx_HAL_Driver/Src/stm32f4xx_hal_sram.c ****    
 184:Drivers/STM32F4xx_HAL_Driver/Src/stm32f4xx_hal_sram.c ****   /* Configure the SRAM registers with their reset values */
 185:Drivers/STM32F4xx_HAL_Driver/Src/stm32f4xx_hal_sram.c ****   FMC_NORSRAM_DeInit(hsram->Instance, hsram->Extended, hsram->Init.NSBank);
 186:Drivers/STM32F4xx_HAL_Driver/Src/stm32f4xx_hal_sram.c **** 
 187:Drivers/STM32F4xx_HAL_Driver/Src/stm32f4xx_hal_sram.c ****   hsram->State = HAL_SRAM_STATE_RESET;
 188:Drivers/STM32F4xx_HAL_Driver/Src/stm32f4xx_hal_sram.c ****   
 189:Drivers/STM32F4xx_HAL_Driver/Src/stm32f4xx_hal_sram.c ****   /* Release Lock */
 190:Drivers/STM32F4xx_HAL_Driver/Src/stm32f4xx_hal_sram.c ****   __HAL_UNLOCK(hsram);
 191:Drivers/STM32F4xx_HAL_Driver/Src/stm32f4xx_hal_sram.c **** 
 192:Drivers/STM32F4xx_HAL_Driver/Src/stm32f4xx_hal_sram.c ****   return HAL_OK;
 193:Drivers/STM32F4xx_HAL_Driver/Src/stm32f4xx_hal_sram.c **** }
 194:Drivers/STM32F4xx_HAL_Driver/Src/stm32f4xx_hal_sram.c **** 
 195:Drivers/STM32F4xx_HAL_Driver/Src/stm32f4xx_hal_sram.c **** /**
 196:Drivers/STM32F4xx_HAL_Driver/Src/stm32f4xx_hal_sram.c ****   * @brief  SRAM MSP Init.
 197:Drivers/STM32F4xx_HAL_Driver/Src/stm32f4xx_hal_sram.c ****   * @param  hsram pointer to a SRAM_HandleTypeDef structure that contains
 198:Drivers/STM32F4xx_HAL_Driver/Src/stm32f4xx_hal_sram.c ****   *                the configuration information for SRAM module.
 199:Drivers/STM32F4xx_HAL_Driver/Src/stm32f4xx_hal_sram.c ****   * @retval None
 200:Drivers/STM32F4xx_HAL_Driver/Src/stm32f4xx_hal_sram.c ****   */
 201:Drivers/STM32F4xx_HAL_Driver/Src/stm32f4xx_hal_sram.c **** __weak void HAL_SRAM_MspInit(SRAM_HandleTypeDef *hsram)
 202:Drivers/STM32F4xx_HAL_Driver/Src/stm32f4xx_hal_sram.c **** {
ARM GAS  /tmp/ccODvp7u.s 			page 5


 203:Drivers/STM32F4xx_HAL_Driver/Src/stm32f4xx_hal_sram.c ****   /* Prevent unused argument(s) compilation warning */
 204:Drivers/STM32F4xx_HAL_Driver/Src/stm32f4xx_hal_sram.c ****   UNUSED(hsram);
 205:Drivers/STM32F4xx_HAL_Driver/Src/stm32f4xx_hal_sram.c ****     /* NOTE : This function Should not be modified, when the callback is needed,
 206:Drivers/STM32F4xx_HAL_Driver/Src/stm32f4xx_hal_sram.c ****             the HAL_SRAM_MspInit could be implemented in the user file
 207:Drivers/STM32F4xx_HAL_Driver/Src/stm32f4xx_hal_sram.c ****    */ 
 208:Drivers/STM32F4xx_HAL_Driver/Src/stm32f4xx_hal_sram.c **** }
 209:Drivers/STM32F4xx_HAL_Driver/Src/stm32f4xx_hal_sram.c **** 
 210:Drivers/STM32F4xx_HAL_Driver/Src/stm32f4xx_hal_sram.c **** /**
 211:Drivers/STM32F4xx_HAL_Driver/Src/stm32f4xx_hal_sram.c ****   * @brief  SRAM MSP DeInit.
 212:Drivers/STM32F4xx_HAL_Driver/Src/stm32f4xx_hal_sram.c ****   * @param  hsram pointer to a SRAM_HandleTypeDef structure that contains
 213:Drivers/STM32F4xx_HAL_Driver/Src/stm32f4xx_hal_sram.c ****   *                the configuration information for SRAM module.
 214:Drivers/STM32F4xx_HAL_Driver/Src/stm32f4xx_hal_sram.c ****   * @retval None
 215:Drivers/STM32F4xx_HAL_Driver/Src/stm32f4xx_hal_sram.c ****   */
 216:Drivers/STM32F4xx_HAL_Driver/Src/stm32f4xx_hal_sram.c **** __weak void HAL_SRAM_MspDeInit(SRAM_HandleTypeDef *hsram)
 217:Drivers/STM32F4xx_HAL_Driver/Src/stm32f4xx_hal_sram.c **** {
 218:Drivers/STM32F4xx_HAL_Driver/Src/stm32f4xx_hal_sram.c ****   /* Prevent unused argument(s) compilation warning */
 219:Drivers/STM32F4xx_HAL_Driver/Src/stm32f4xx_hal_sram.c ****   UNUSED(hsram);
 220:Drivers/STM32F4xx_HAL_Driver/Src/stm32f4xx_hal_sram.c ****   /* NOTE : This function Should not be modified, when the callback is needed,
 221:Drivers/STM32F4xx_HAL_Driver/Src/stm32f4xx_hal_sram.c ****             the HAL_SRAM_MspDeInit could be implemented in the user file
 222:Drivers/STM32F4xx_HAL_Driver/Src/stm32f4xx_hal_sram.c ****    */ 
 223:Drivers/STM32F4xx_HAL_Driver/Src/stm32f4xx_hal_sram.c **** }
 224:Drivers/STM32F4xx_HAL_Driver/Src/stm32f4xx_hal_sram.c **** 
 225:Drivers/STM32F4xx_HAL_Driver/Src/stm32f4xx_hal_sram.c **** /**
 226:Drivers/STM32F4xx_HAL_Driver/Src/stm32f4xx_hal_sram.c ****   * @brief  DMA transfer complete callback.
 227:Drivers/STM32F4xx_HAL_Driver/Src/stm32f4xx_hal_sram.c ****   * @param  hdma pointer to a SRAM_HandleTypeDef structure that contains
 228:Drivers/STM32F4xx_HAL_Driver/Src/stm32f4xx_hal_sram.c ****   *                the configuration information for SRAM module.
 229:Drivers/STM32F4xx_HAL_Driver/Src/stm32f4xx_hal_sram.c ****   * @retval None
 230:Drivers/STM32F4xx_HAL_Driver/Src/stm32f4xx_hal_sram.c ****   */
 231:Drivers/STM32F4xx_HAL_Driver/Src/stm32f4xx_hal_sram.c **** __weak void HAL_SRAM_DMA_XferCpltCallback(DMA_HandleTypeDef *hdma)
 232:Drivers/STM32F4xx_HAL_Driver/Src/stm32f4xx_hal_sram.c **** {
  28              		.loc 1 232 0
  29              		.cfi_startproc
  30              		@ args = 0, pretend = 0, frame = 0
  31              		@ frame_needed = 0, uses_anonymous_args = 0
  32              		@ link register save eliminated.
  33              	.LVL0:
  34 0000 7047     		bx	lr
  35              		.cfi_endproc
  36              	.LFE128:
  38              		.section	.text.HAL_SRAM_DMA_XferErrorCallback,"ax",%progbits
  39              		.align	1
  40              		.weak	HAL_SRAM_DMA_XferErrorCallback
  41              		.syntax unified
  42              		.thumb
  43              		.thumb_func
  44              		.fpu fpv4-sp-d16
  46              	HAL_SRAM_DMA_XferErrorCallback:
  47              	.LFB129:
 233:Drivers/STM32F4xx_HAL_Driver/Src/stm32f4xx_hal_sram.c ****   /* Prevent unused argument(s) compilation warning */
 234:Drivers/STM32F4xx_HAL_Driver/Src/stm32f4xx_hal_sram.c ****   UNUSED(hdma);
 235:Drivers/STM32F4xx_HAL_Driver/Src/stm32f4xx_hal_sram.c ****   /* NOTE : This function Should not be modified, when the callback is needed,
 236:Drivers/STM32F4xx_HAL_Driver/Src/stm32f4xx_hal_sram.c ****             the HAL_SRAM_DMA_XferCpltCallback could be implemented in the user file
 237:Drivers/STM32F4xx_HAL_Driver/Src/stm32f4xx_hal_sram.c ****    */ 
 238:Drivers/STM32F4xx_HAL_Driver/Src/stm32f4xx_hal_sram.c **** }
 239:Drivers/STM32F4xx_HAL_Driver/Src/stm32f4xx_hal_sram.c **** 
 240:Drivers/STM32F4xx_HAL_Driver/Src/stm32f4xx_hal_sram.c **** /**
 241:Drivers/STM32F4xx_HAL_Driver/Src/stm32f4xx_hal_sram.c ****   * @brief  DMA transfer complete error callback.
ARM GAS  /tmp/ccODvp7u.s 			page 6


 242:Drivers/STM32F4xx_HAL_Driver/Src/stm32f4xx_hal_sram.c ****   * @param  hdma pointer to a SRAM_HandleTypeDef structure that contains
 243:Drivers/STM32F4xx_HAL_Driver/Src/stm32f4xx_hal_sram.c ****   *                the configuration information for SRAM module.
 244:Drivers/STM32F4xx_HAL_Driver/Src/stm32f4xx_hal_sram.c ****   * @retval None
 245:Drivers/STM32F4xx_HAL_Driver/Src/stm32f4xx_hal_sram.c ****   */
 246:Drivers/STM32F4xx_HAL_Driver/Src/stm32f4xx_hal_sram.c **** __weak void HAL_SRAM_DMA_XferErrorCallback(DMA_HandleTypeDef *hdma)
 247:Drivers/STM32F4xx_HAL_Driver/Src/stm32f4xx_hal_sram.c **** {
  48              		.loc 1 247 0
  49              		.cfi_startproc
  50              		@ args = 0, pretend = 0, frame = 0
  51              		@ frame_needed = 0, uses_anonymous_args = 0
  52              		@ link register save eliminated.
  53              	.LVL1:
  54 0000 7047     		bx	lr
  55              		.cfi_endproc
  56              	.LFE129:
  58              		.section	.text.HAL_SRAM_MspInit,"ax",%progbits
  59              		.align	1
  60              		.weak	HAL_SRAM_MspInit
  61              		.syntax unified
  62              		.thumb
  63              		.thumb_func
  64              		.fpu fpv4-sp-d16
  66              	HAL_SRAM_MspInit:
  67              	.LFB126:
 202:Drivers/STM32F4xx_HAL_Driver/Src/stm32f4xx_hal_sram.c ****   /* Prevent unused argument(s) compilation warning */
  68              		.loc 1 202 0
  69              		.cfi_startproc
  70              		@ args = 0, pretend = 0, frame = 0
  71              		@ frame_needed = 0, uses_anonymous_args = 0
  72              		@ link register save eliminated.
  73              	.LVL2:
  74 0000 7047     		bx	lr
  75              		.cfi_endproc
  76              	.LFE126:
  78              		.section	.text.HAL_SRAM_Init,"ax",%progbits
  79              		.align	1
  80              		.global	HAL_SRAM_Init
  81              		.syntax unified
  82              		.thumb
  83              		.thumb_func
  84              		.fpu fpv4-sp-d16
  86              	HAL_SRAM_Init:
  87              	.LFB124:
 143:Drivers/STM32F4xx_HAL_Driver/Src/stm32f4xx_hal_sram.c ****   /* Check the SRAM handle parameter */
  88              		.loc 1 143 0
  89              		.cfi_startproc
  90              		@ args = 0, pretend = 0, frame = 0
  91              		@ frame_needed = 0, uses_anonymous_args = 0
  92              	.LVL3:
 145:Drivers/STM32F4xx_HAL_Driver/Src/stm32f4xx_hal_sram.c ****   {
  93              		.loc 1 145 0
  94 0000 28B3     		cbz	r0, .L7
 143:Drivers/STM32F4xx_HAL_Driver/Src/stm32f4xx_hal_sram.c ****   /* Check the SRAM handle parameter */
  95              		.loc 1 143 0
  96 0002 70B5     		push	{r4, r5, r6, lr}
  97              	.LCFI0:
  98              		.cfi_def_cfa_offset 16
ARM GAS  /tmp/ccODvp7u.s 			page 7


  99              		.cfi_offset 4, -16
 100              		.cfi_offset 5, -12
 101              		.cfi_offset 6, -8
 102              		.cfi_offset 14, -4
 103 0004 0446     		mov	r4, r0
 104 0006 1546     		mov	r5, r2
 105 0008 0E46     		mov	r6, r1
 150:Drivers/STM32F4xx_HAL_Driver/Src/stm32f4xx_hal_sram.c ****   {  
 106              		.loc 1 150 0
 107 000a 90F84930 		ldrb	r3, [r0, #73]	@ zero_extendqisi2
 108 000e CBB1     		cbz	r3, .L12
 109              	.LVL4:
 110              	.L6:
 159:Drivers/STM32F4xx_HAL_Driver/Src/stm32f4xx_hal_sram.c **** 
 111              		.loc 1 159 0
 112 0010 04F10801 		add	r1, r4, #8
 113 0014 2068     		ldr	r0, [r4]
 114 0016 FFF7FEFF 		bl	FMC_NORSRAM_Init
 115              	.LVL5:
 162:Drivers/STM32F4xx_HAL_Driver/Src/stm32f4xx_hal_sram.c **** 
 116              		.loc 1 162 0
 117 001a A268     		ldr	r2, [r4, #8]
 118 001c 3146     		mov	r1, r6
 119 001e 2068     		ldr	r0, [r4]
 120 0020 FFF7FEFF 		bl	FMC_NORSRAM_Timing_Init
 121              	.LVL6:
 165:Drivers/STM32F4xx_HAL_Driver/Src/stm32f4xx_hal_sram.c ****   
 122              		.loc 1 165 0
 123 0024 236B     		ldr	r3, [r4, #48]
 124 0026 A268     		ldr	r2, [r4, #8]
 125 0028 2946     		mov	r1, r5
 126 002a 6068     		ldr	r0, [r4, #4]
 127 002c FFF7FEFF 		bl	FMC_NORSRAM_Extended_Timing_Init
 128              	.LVL7:
 168:Drivers/STM32F4xx_HAL_Driver/Src/stm32f4xx_hal_sram.c ****   
 129              		.loc 1 168 0
 130 0030 2268     		ldr	r2, [r4]
 131 0032 A168     		ldr	r1, [r4, #8]
 132 0034 52F82130 		ldr	r3, [r2, r1, lsl #2]
 133 0038 43F00103 		orr	r3, r3, #1
 134 003c 42F82130 		str	r3, [r2, r1, lsl #2]
 170:Drivers/STM32F4xx_HAL_Driver/Src/stm32f4xx_hal_sram.c **** }
 135              		.loc 1 170 0
 136 0040 0020     		movs	r0, #0
 137 0042 70BD     		pop	{r4, r5, r6, pc}
 138              	.LVL8:
 139              	.L12:
 153:Drivers/STM32F4xx_HAL_Driver/Src/stm32f4xx_hal_sram.c ****     /* Initialize the low level hardware (MSP) */
 140              		.loc 1 153 0
 141 0044 80F84830 		strb	r3, [r0, #72]
 155:Drivers/STM32F4xx_HAL_Driver/Src/stm32f4xx_hal_sram.c ****   }
 142              		.loc 1 155 0
 143 0048 FFF7FEFF 		bl	HAL_SRAM_MspInit
 144              	.LVL9:
 145 004c E0E7     		b	.L6
 146              	.LVL10:
 147              	.L7:
ARM GAS  /tmp/ccODvp7u.s 			page 8


 148              	.LCFI1:
 149              		.cfi_def_cfa_offset 0
 150              		.cfi_restore 4
 151              		.cfi_restore 5
 152              		.cfi_restore 6
 153              		.cfi_restore 14
 147:Drivers/STM32F4xx_HAL_Driver/Src/stm32f4xx_hal_sram.c ****   }
 154              		.loc 1 147 0
 155 004e 0120     		movs	r0, #1
 156              	.LVL11:
 157 0050 7047     		bx	lr
 158              		.cfi_endproc
 159              	.LFE124:
 161              		.section	.text.HAL_SRAM_MspDeInit,"ax",%progbits
 162              		.align	1
 163              		.weak	HAL_SRAM_MspDeInit
 164              		.syntax unified
 165              		.thumb
 166              		.thumb_func
 167              		.fpu fpv4-sp-d16
 169              	HAL_SRAM_MspDeInit:
 170              	.LFB127:
 217:Drivers/STM32F4xx_HAL_Driver/Src/stm32f4xx_hal_sram.c ****   /* Prevent unused argument(s) compilation warning */
 171              		.loc 1 217 0
 172              		.cfi_startproc
 173              		@ args = 0, pretend = 0, frame = 0
 174              		@ frame_needed = 0, uses_anonymous_args = 0
 175              		@ link register save eliminated.
 176              	.LVL12:
 177 0000 7047     		bx	lr
 178              		.cfi_endproc
 179              	.LFE127:
 181              		.section	.text.HAL_SRAM_DeInit,"ax",%progbits
 182              		.align	1
 183              		.global	HAL_SRAM_DeInit
 184              		.syntax unified
 185              		.thumb
 186              		.thumb_func
 187              		.fpu fpv4-sp-d16
 189              	HAL_SRAM_DeInit:
 190              	.LFB125:
 180:Drivers/STM32F4xx_HAL_Driver/Src/stm32f4xx_hal_sram.c ****   /* De-Initialize the low level hardware (MSP) */
 191              		.loc 1 180 0
 192              		.cfi_startproc
 193              		@ args = 0, pretend = 0, frame = 0
 194              		@ frame_needed = 0, uses_anonymous_args = 0
 195              	.LVL13:
 180:Drivers/STM32F4xx_HAL_Driver/Src/stm32f4xx_hal_sram.c ****   /* De-Initialize the low level hardware (MSP) */
 196              		.loc 1 180 0
 197 0000 10B5     		push	{r4, lr}
 198              	.LCFI2:
 199              		.cfi_def_cfa_offset 8
 200              		.cfi_offset 4, -8
 201              		.cfi_offset 14, -4
 202 0002 0446     		mov	r4, r0
 182:Drivers/STM32F4xx_HAL_Driver/Src/stm32f4xx_hal_sram.c ****    
 203              		.loc 1 182 0
ARM GAS  /tmp/ccODvp7u.s 			page 9


 204 0004 FFF7FEFF 		bl	HAL_SRAM_MspDeInit
 205              	.LVL14:
 185:Drivers/STM32F4xx_HAL_Driver/Src/stm32f4xx_hal_sram.c **** 
 206              		.loc 1 185 0
 207 0008 A268     		ldr	r2, [r4, #8]
 208 000a 6168     		ldr	r1, [r4, #4]
 209 000c 2068     		ldr	r0, [r4]
 210 000e FFF7FEFF 		bl	FMC_NORSRAM_DeInit
 211              	.LVL15:
 187:Drivers/STM32F4xx_HAL_Driver/Src/stm32f4xx_hal_sram.c ****   
 212              		.loc 1 187 0
 213 0012 0020     		movs	r0, #0
 214 0014 84F84900 		strb	r0, [r4, #73]
 190:Drivers/STM32F4xx_HAL_Driver/Src/stm32f4xx_hal_sram.c **** 
 215              		.loc 1 190 0
 216 0018 84F84800 		strb	r0, [r4, #72]
 193:Drivers/STM32F4xx_HAL_Driver/Src/stm32f4xx_hal_sram.c **** 
 217              		.loc 1 193 0
 218 001c 10BD     		pop	{r4, pc}
 219              		.cfi_endproc
 220              	.LFE125:
 222              		.section	.text.HAL_SRAM_Read_8b,"ax",%progbits
 223              		.align	1
 224              		.global	HAL_SRAM_Read_8b
 225              		.syntax unified
 226              		.thumb
 227              		.thumb_func
 228              		.fpu fpv4-sp-d16
 230              	HAL_SRAM_Read_8b:
 231              	.LFB130:
 248:Drivers/STM32F4xx_HAL_Driver/Src/stm32f4xx_hal_sram.c ****   /* Prevent unused argument(s) compilation warning */
 249:Drivers/STM32F4xx_HAL_Driver/Src/stm32f4xx_hal_sram.c ****   UNUSED(hdma);
 250:Drivers/STM32F4xx_HAL_Driver/Src/stm32f4xx_hal_sram.c ****     /* NOTE : This function Should not be modified, when the callback is needed,
 251:Drivers/STM32F4xx_HAL_Driver/Src/stm32f4xx_hal_sram.c ****             the HAL_SRAM_DMA_XferErrorCallback could be implemented in the user file
 252:Drivers/STM32F4xx_HAL_Driver/Src/stm32f4xx_hal_sram.c ****    */ 
 253:Drivers/STM32F4xx_HAL_Driver/Src/stm32f4xx_hal_sram.c **** }
 254:Drivers/STM32F4xx_HAL_Driver/Src/stm32f4xx_hal_sram.c **** 
 255:Drivers/STM32F4xx_HAL_Driver/Src/stm32f4xx_hal_sram.c **** /**
 256:Drivers/STM32F4xx_HAL_Driver/Src/stm32f4xx_hal_sram.c ****   * @}
 257:Drivers/STM32F4xx_HAL_Driver/Src/stm32f4xx_hal_sram.c ****   */
 258:Drivers/STM32F4xx_HAL_Driver/Src/stm32f4xx_hal_sram.c **** 
 259:Drivers/STM32F4xx_HAL_Driver/Src/stm32f4xx_hal_sram.c **** /** @defgroup SRAM_Exported_Functions_Group2 Input and Output functions 
 260:Drivers/STM32F4xx_HAL_Driver/Src/stm32f4xx_hal_sram.c ****   * @brief    Input Output and memory control functions 
 261:Drivers/STM32F4xx_HAL_Driver/Src/stm32f4xx_hal_sram.c ****   *
 262:Drivers/STM32F4xx_HAL_Driver/Src/stm32f4xx_hal_sram.c ****   @verbatim    
 263:Drivers/STM32F4xx_HAL_Driver/Src/stm32f4xx_hal_sram.c ****   ==============================================================================
 264:Drivers/STM32F4xx_HAL_Driver/Src/stm32f4xx_hal_sram.c ****                   ##### SRAM Input and Output functions #####
 265:Drivers/STM32F4xx_HAL_Driver/Src/stm32f4xx_hal_sram.c ****   ==============================================================================
 266:Drivers/STM32F4xx_HAL_Driver/Src/stm32f4xx_hal_sram.c ****   [..]  
 267:Drivers/STM32F4xx_HAL_Driver/Src/stm32f4xx_hal_sram.c ****     This section provides functions allowing to use and control the SRAM memory
 268:Drivers/STM32F4xx_HAL_Driver/Src/stm32f4xx_hal_sram.c ****   
 269:Drivers/STM32F4xx_HAL_Driver/Src/stm32f4xx_hal_sram.c **** @endverbatim
 270:Drivers/STM32F4xx_HAL_Driver/Src/stm32f4xx_hal_sram.c ****   * @{
 271:Drivers/STM32F4xx_HAL_Driver/Src/stm32f4xx_hal_sram.c ****   */
 272:Drivers/STM32F4xx_HAL_Driver/Src/stm32f4xx_hal_sram.c **** 
 273:Drivers/STM32F4xx_HAL_Driver/Src/stm32f4xx_hal_sram.c **** /**
 274:Drivers/STM32F4xx_HAL_Driver/Src/stm32f4xx_hal_sram.c ****   * @brief  Reads 8-bit buffer from SRAM memory. 
ARM GAS  /tmp/ccODvp7u.s 			page 10


 275:Drivers/STM32F4xx_HAL_Driver/Src/stm32f4xx_hal_sram.c ****   * @param  hsram pointer to a SRAM_HandleTypeDef structure that contains
 276:Drivers/STM32F4xx_HAL_Driver/Src/stm32f4xx_hal_sram.c ****   *                the configuration information for SRAM module.
 277:Drivers/STM32F4xx_HAL_Driver/Src/stm32f4xx_hal_sram.c ****   * @param  pAddress Pointer to read start address
 278:Drivers/STM32F4xx_HAL_Driver/Src/stm32f4xx_hal_sram.c ****   * @param  pDstBuffer Pointer to destination buffer  
 279:Drivers/STM32F4xx_HAL_Driver/Src/stm32f4xx_hal_sram.c ****   * @param  BufferSize Size of the buffer to read from memory
 280:Drivers/STM32F4xx_HAL_Driver/Src/stm32f4xx_hal_sram.c ****   * @retval HAL status
 281:Drivers/STM32F4xx_HAL_Driver/Src/stm32f4xx_hal_sram.c ****   */
 282:Drivers/STM32F4xx_HAL_Driver/Src/stm32f4xx_hal_sram.c **** HAL_StatusTypeDef HAL_SRAM_Read_8b(SRAM_HandleTypeDef *hsram, uint32_t *pAddress, uint8_t *pDstBuff
 283:Drivers/STM32F4xx_HAL_Driver/Src/stm32f4xx_hal_sram.c **** {
 232              		.loc 1 283 0
 233              		.cfi_startproc
 234              		@ args = 0, pretend = 0, frame = 0
 235              		@ frame_needed = 0, uses_anonymous_args = 0
 236              		@ link register save eliminated.
 237              	.LVL16:
 238 0000 10B4     		push	{r4}
 239              	.LCFI3:
 240              		.cfi_def_cfa_offset 4
 241              		.cfi_offset 4, -4
 242              	.LVL17:
 284:Drivers/STM32F4xx_HAL_Driver/Src/stm32f4xx_hal_sram.c ****   __IO uint8_t * pSramAddress = (uint8_t *)pAddress;
 285:Drivers/STM32F4xx_HAL_Driver/Src/stm32f4xx_hal_sram.c ****   
 286:Drivers/STM32F4xx_HAL_Driver/Src/stm32f4xx_hal_sram.c ****   /* Process Locked */
 287:Drivers/STM32F4xx_HAL_Driver/Src/stm32f4xx_hal_sram.c ****   __HAL_LOCK(hsram);
 243              		.loc 1 287 0
 244 0002 90F84840 		ldrb	r4, [r0, #72]	@ zero_extendqisi2
 245 0006 012C     		cmp	r4, #1
 246 0008 17D0     		beq	.L20
 247              		.loc 1 287 0 is_stmt 0 discriminator 2
 248 000a 0124     		movs	r4, #1
 249 000c 80F84840 		strb	r4, [r0, #72]
 288:Drivers/STM32F4xx_HAL_Driver/Src/stm32f4xx_hal_sram.c ****   
 289:Drivers/STM32F4xx_HAL_Driver/Src/stm32f4xx_hal_sram.c ****   /* Update the SRAM controller state */
 290:Drivers/STM32F4xx_HAL_Driver/Src/stm32f4xx_hal_sram.c ****   hsram->State = HAL_SRAM_STATE_BUSY;  
 250              		.loc 1 290 0 is_stmt 1 discriminator 2
 251 0010 0224     		movs	r4, #2
 252 0012 80F84940 		strb	r4, [r0, #73]
 291:Drivers/STM32F4xx_HAL_Driver/Src/stm32f4xx_hal_sram.c ****   
 292:Drivers/STM32F4xx_HAL_Driver/Src/stm32f4xx_hal_sram.c ****   /* Read data from memory */
 293:Drivers/STM32F4xx_HAL_Driver/Src/stm32f4xx_hal_sram.c ****   for(; BufferSize != 0U; BufferSize--)
 253              		.loc 1 293 0 discriminator 2
 254 0016 04E0     		b	.L18
 255              	.LVL18:
 256              	.L19:
 294:Drivers/STM32F4xx_HAL_Driver/Src/stm32f4xx_hal_sram.c ****   {
 295:Drivers/STM32F4xx_HAL_Driver/Src/stm32f4xx_hal_sram.c ****     *pDstBuffer = *(__IO uint8_t *)pSramAddress;
 257              		.loc 1 295 0 discriminator 2
 258 0018 11F8014B 		ldrb	r4, [r1], #1	@ zero_extendqisi2
 259              	.LVL19:
 260 001c 02F8014B 		strb	r4, [r2], #1
 261              	.LVL20:
 293:Drivers/STM32F4xx_HAL_Driver/Src/stm32f4xx_hal_sram.c ****   {
 262              		.loc 1 293 0 discriminator 2
 263 0020 013B     		subs	r3, r3, #1
 264              	.LVL21:
 265              	.L18:
 293:Drivers/STM32F4xx_HAL_Driver/Src/stm32f4xx_hal_sram.c ****   {
ARM GAS  /tmp/ccODvp7u.s 			page 11


 266              		.loc 1 293 0 is_stmt 0 discriminator 1
 267 0022 002B     		cmp	r3, #0
 268 0024 F8D1     		bne	.L19
 296:Drivers/STM32F4xx_HAL_Driver/Src/stm32f4xx_hal_sram.c ****     pDstBuffer++;
 297:Drivers/STM32F4xx_HAL_Driver/Src/stm32f4xx_hal_sram.c ****     pSramAddress++;
 298:Drivers/STM32F4xx_HAL_Driver/Src/stm32f4xx_hal_sram.c ****   }
 299:Drivers/STM32F4xx_HAL_Driver/Src/stm32f4xx_hal_sram.c ****   
 300:Drivers/STM32F4xx_HAL_Driver/Src/stm32f4xx_hal_sram.c ****   /* Update the SRAM controller state */
 301:Drivers/STM32F4xx_HAL_Driver/Src/stm32f4xx_hal_sram.c ****   hsram->State = HAL_SRAM_STATE_READY;    
 269              		.loc 1 301 0 is_stmt 1
 270 0026 0123     		movs	r3, #1
 271              	.LVL22:
 272 0028 80F84930 		strb	r3, [r0, #73]
 302:Drivers/STM32F4xx_HAL_Driver/Src/stm32f4xx_hal_sram.c **** 
 303:Drivers/STM32F4xx_HAL_Driver/Src/stm32f4xx_hal_sram.c ****   /* Process unlocked */
 304:Drivers/STM32F4xx_HAL_Driver/Src/stm32f4xx_hal_sram.c ****   __HAL_UNLOCK(hsram); 
 273              		.loc 1 304 0
 274 002c 0023     		movs	r3, #0
 275 002e 80F84830 		strb	r3, [r0, #72]
 305:Drivers/STM32F4xx_HAL_Driver/Src/stm32f4xx_hal_sram.c ****     
 306:Drivers/STM32F4xx_HAL_Driver/Src/stm32f4xx_hal_sram.c ****   return HAL_OK;   
 276              		.loc 1 306 0
 277 0032 1846     		mov	r0, r3
 278              	.LVL23:
 279              	.L17:
 307:Drivers/STM32F4xx_HAL_Driver/Src/stm32f4xx_hal_sram.c **** }
 280              		.loc 1 307 0
 281 0034 5DF8044B 		ldr	r4, [sp], #4
 282              	.LCFI4:
 283              		.cfi_remember_state
 284              		.cfi_restore 4
 285              		.cfi_def_cfa_offset 0
 286 0038 7047     		bx	lr
 287              	.LVL24:
 288              	.L20:
 289              	.LCFI5:
 290              		.cfi_restore_state
 287:Drivers/STM32F4xx_HAL_Driver/Src/stm32f4xx_hal_sram.c ****   
 291              		.loc 1 287 0
 292 003a 0220     		movs	r0, #2
 293              	.LVL25:
 294 003c FAE7     		b	.L17
 295              		.cfi_endproc
 296              	.LFE130:
 298              		.section	.text.HAL_SRAM_Write_8b,"ax",%progbits
 299              		.align	1
 300              		.global	HAL_SRAM_Write_8b
 301              		.syntax unified
 302              		.thumb
 303              		.thumb_func
 304              		.fpu fpv4-sp-d16
 306              	HAL_SRAM_Write_8b:
 307              	.LFB131:
 308:Drivers/STM32F4xx_HAL_Driver/Src/stm32f4xx_hal_sram.c **** 
 309:Drivers/STM32F4xx_HAL_Driver/Src/stm32f4xx_hal_sram.c **** /**
 310:Drivers/STM32F4xx_HAL_Driver/Src/stm32f4xx_hal_sram.c ****   * @brief  Writes 8-bit buffer to SRAM memory. 
 311:Drivers/STM32F4xx_HAL_Driver/Src/stm32f4xx_hal_sram.c ****   * @param  hsram pointer to a SRAM_HandleTypeDef structure that contains
ARM GAS  /tmp/ccODvp7u.s 			page 12


 312:Drivers/STM32F4xx_HAL_Driver/Src/stm32f4xx_hal_sram.c ****   *                the configuration information for SRAM module.
 313:Drivers/STM32F4xx_HAL_Driver/Src/stm32f4xx_hal_sram.c ****   * @param  pAddress Pointer to write start address
 314:Drivers/STM32F4xx_HAL_Driver/Src/stm32f4xx_hal_sram.c ****   * @param  pSrcBuffer Pointer to source buffer to write  
 315:Drivers/STM32F4xx_HAL_Driver/Src/stm32f4xx_hal_sram.c ****   * @param  BufferSize Size of the buffer to write to memory
 316:Drivers/STM32F4xx_HAL_Driver/Src/stm32f4xx_hal_sram.c ****   * @retval HAL status
 317:Drivers/STM32F4xx_HAL_Driver/Src/stm32f4xx_hal_sram.c ****   */
 318:Drivers/STM32F4xx_HAL_Driver/Src/stm32f4xx_hal_sram.c **** HAL_StatusTypeDef HAL_SRAM_Write_8b(SRAM_HandleTypeDef *hsram, uint32_t *pAddress, uint8_t *pSrcBuf
 319:Drivers/STM32F4xx_HAL_Driver/Src/stm32f4xx_hal_sram.c **** {
 308              		.loc 1 319 0
 309              		.cfi_startproc
 310              		@ args = 0, pretend = 0, frame = 0
 311              		@ frame_needed = 0, uses_anonymous_args = 0
 312              		@ link register save eliminated.
 313              	.LVL26:
 314 0000 10B4     		push	{r4}
 315              	.LCFI6:
 316              		.cfi_def_cfa_offset 4
 317              		.cfi_offset 4, -4
 318              	.LVL27:
 320:Drivers/STM32F4xx_HAL_Driver/Src/stm32f4xx_hal_sram.c ****   __IO uint8_t * pSramAddress = (uint8_t *)pAddress;
 321:Drivers/STM32F4xx_HAL_Driver/Src/stm32f4xx_hal_sram.c ****   
 322:Drivers/STM32F4xx_HAL_Driver/Src/stm32f4xx_hal_sram.c ****   /* Check the SRAM controller state */
 323:Drivers/STM32F4xx_HAL_Driver/Src/stm32f4xx_hal_sram.c ****   if(hsram->State == HAL_SRAM_STATE_PROTECTED)
 319              		.loc 1 323 0
 320 0002 90F84940 		ldrb	r4, [r0, #73]	@ zero_extendqisi2
 321 0006 E4B2     		uxtb	r4, r4
 322 0008 042C     		cmp	r4, #4
 323 000a 1BD0     		beq	.L26
 324:Drivers/STM32F4xx_HAL_Driver/Src/stm32f4xx_hal_sram.c ****   {
 325:Drivers/STM32F4xx_HAL_Driver/Src/stm32f4xx_hal_sram.c ****     return  HAL_ERROR; 
 326:Drivers/STM32F4xx_HAL_Driver/Src/stm32f4xx_hal_sram.c ****   }
 327:Drivers/STM32F4xx_HAL_Driver/Src/stm32f4xx_hal_sram.c ****   
 328:Drivers/STM32F4xx_HAL_Driver/Src/stm32f4xx_hal_sram.c ****   /* Process Locked */
 329:Drivers/STM32F4xx_HAL_Driver/Src/stm32f4xx_hal_sram.c ****   __HAL_LOCK(hsram);
 324              		.loc 1 329 0
 325 000c 90F84840 		ldrb	r4, [r0, #72]	@ zero_extendqisi2
 326 0010 012C     		cmp	r4, #1
 327 0012 19D0     		beq	.L27
 328              		.loc 1 329 0 is_stmt 0 discriminator 2
 329 0014 0124     		movs	r4, #1
 330 0016 80F84840 		strb	r4, [r0, #72]
 330:Drivers/STM32F4xx_HAL_Driver/Src/stm32f4xx_hal_sram.c ****   
 331:Drivers/STM32F4xx_HAL_Driver/Src/stm32f4xx_hal_sram.c ****   /* Update the SRAM controller state */
 332:Drivers/STM32F4xx_HAL_Driver/Src/stm32f4xx_hal_sram.c ****   hsram->State = HAL_SRAM_STATE_BUSY; 
 331              		.loc 1 332 0 is_stmt 1 discriminator 2
 332 001a 0224     		movs	r4, #2
 333 001c 80F84940 		strb	r4, [r0, #73]
 333:Drivers/STM32F4xx_HAL_Driver/Src/stm32f4xx_hal_sram.c **** 
 334:Drivers/STM32F4xx_HAL_Driver/Src/stm32f4xx_hal_sram.c ****   /* Write data to memory */
 335:Drivers/STM32F4xx_HAL_Driver/Src/stm32f4xx_hal_sram.c ****   for(; BufferSize != 0U; BufferSize--)
 334              		.loc 1 335 0 discriminator 2
 335 0020 04E0     		b	.L24
 336              	.LVL28:
 337              	.L25:
 336:Drivers/STM32F4xx_HAL_Driver/Src/stm32f4xx_hal_sram.c ****   {
 337:Drivers/STM32F4xx_HAL_Driver/Src/stm32f4xx_hal_sram.c ****     *(__IO uint8_t *)pSramAddress = *pSrcBuffer; 
 338              		.loc 1 337 0 discriminator 2
ARM GAS  /tmp/ccODvp7u.s 			page 13


 339 0022 12F8014B 		ldrb	r4, [r2], #1	@ zero_extendqisi2
 340              	.LVL29:
 341 0026 01F8014B 		strb	r4, [r1], #1
 342              	.LVL30:
 335:Drivers/STM32F4xx_HAL_Driver/Src/stm32f4xx_hal_sram.c ****   {
 343              		.loc 1 335 0 discriminator 2
 344 002a 013B     		subs	r3, r3, #1
 345              	.LVL31:
 346              	.L24:
 335:Drivers/STM32F4xx_HAL_Driver/Src/stm32f4xx_hal_sram.c ****   {
 347              		.loc 1 335 0 is_stmt 0 discriminator 1
 348 002c 002B     		cmp	r3, #0
 349 002e F8D1     		bne	.L25
 338:Drivers/STM32F4xx_HAL_Driver/Src/stm32f4xx_hal_sram.c ****     pSrcBuffer++;
 339:Drivers/STM32F4xx_HAL_Driver/Src/stm32f4xx_hal_sram.c ****     pSramAddress++;    
 340:Drivers/STM32F4xx_HAL_Driver/Src/stm32f4xx_hal_sram.c ****   }    
 341:Drivers/STM32F4xx_HAL_Driver/Src/stm32f4xx_hal_sram.c **** 
 342:Drivers/STM32F4xx_HAL_Driver/Src/stm32f4xx_hal_sram.c ****   /* Update the SRAM controller state */
 343:Drivers/STM32F4xx_HAL_Driver/Src/stm32f4xx_hal_sram.c ****   hsram->State = HAL_SRAM_STATE_READY; 
 350              		.loc 1 343 0 is_stmt 1
 351 0030 0123     		movs	r3, #1
 352              	.LVL32:
 353 0032 80F84930 		strb	r3, [r0, #73]
 344:Drivers/STM32F4xx_HAL_Driver/Src/stm32f4xx_hal_sram.c ****   
 345:Drivers/STM32F4xx_HAL_Driver/Src/stm32f4xx_hal_sram.c ****   /* Process unlocked */
 346:Drivers/STM32F4xx_HAL_Driver/Src/stm32f4xx_hal_sram.c ****   __HAL_UNLOCK(hsram);
 354              		.loc 1 346 0
 355 0036 0023     		movs	r3, #0
 356 0038 80F84830 		strb	r3, [r0, #72]
 347:Drivers/STM32F4xx_HAL_Driver/Src/stm32f4xx_hal_sram.c ****     
 348:Drivers/STM32F4xx_HAL_Driver/Src/stm32f4xx_hal_sram.c ****   return HAL_OK;   
 357              		.loc 1 348 0
 358 003c 1846     		mov	r0, r3
 359              	.LVL33:
 360              	.L23:
 349:Drivers/STM32F4xx_HAL_Driver/Src/stm32f4xx_hal_sram.c **** }
 361              		.loc 1 349 0
 362 003e 5DF8044B 		ldr	r4, [sp], #4
 363              	.LCFI7:
 364              		.cfi_remember_state
 365              		.cfi_restore 4
 366              		.cfi_def_cfa_offset 0
 367 0042 7047     		bx	lr
 368              	.LVL34:
 369              	.L26:
 370              	.LCFI8:
 371              		.cfi_restore_state
 325:Drivers/STM32F4xx_HAL_Driver/Src/stm32f4xx_hal_sram.c ****   }
 372              		.loc 1 325 0
 373 0044 0120     		movs	r0, #1
 374              	.LVL35:
 375 0046 FAE7     		b	.L23
 376              	.LVL36:
 377              	.L27:
 329:Drivers/STM32F4xx_HAL_Driver/Src/stm32f4xx_hal_sram.c ****   
 378              		.loc 1 329 0
 379 0048 0220     		movs	r0, #2
ARM GAS  /tmp/ccODvp7u.s 			page 14


 380              	.LVL37:
 381 004a F8E7     		b	.L23
 382              		.cfi_endproc
 383              	.LFE131:
 385              		.section	.text.HAL_SRAM_Read_16b,"ax",%progbits
 386              		.align	1
 387              		.global	HAL_SRAM_Read_16b
 388              		.syntax unified
 389              		.thumb
 390              		.thumb_func
 391              		.fpu fpv4-sp-d16
 393              	HAL_SRAM_Read_16b:
 394              	.LFB132:
 350:Drivers/STM32F4xx_HAL_Driver/Src/stm32f4xx_hal_sram.c **** 
 351:Drivers/STM32F4xx_HAL_Driver/Src/stm32f4xx_hal_sram.c **** /**
 352:Drivers/STM32F4xx_HAL_Driver/Src/stm32f4xx_hal_sram.c ****   * @brief  Reads 16-bit buffer from SRAM memory. 
 353:Drivers/STM32F4xx_HAL_Driver/Src/stm32f4xx_hal_sram.c ****   * @param  hsram pointer to a SRAM_HandleTypeDef structure that contains
 354:Drivers/STM32F4xx_HAL_Driver/Src/stm32f4xx_hal_sram.c ****   *                the configuration information for SRAM module.
 355:Drivers/STM32F4xx_HAL_Driver/Src/stm32f4xx_hal_sram.c ****   * @param  pAddress Pointer to read start address
 356:Drivers/STM32F4xx_HAL_Driver/Src/stm32f4xx_hal_sram.c ****   * @param  pDstBuffer Pointer to destination buffer  
 357:Drivers/STM32F4xx_HAL_Driver/Src/stm32f4xx_hal_sram.c ****   * @param  BufferSize Size of the buffer to read from memory
 358:Drivers/STM32F4xx_HAL_Driver/Src/stm32f4xx_hal_sram.c ****   * @retval HAL status
 359:Drivers/STM32F4xx_HAL_Driver/Src/stm32f4xx_hal_sram.c ****   */
 360:Drivers/STM32F4xx_HAL_Driver/Src/stm32f4xx_hal_sram.c **** HAL_StatusTypeDef HAL_SRAM_Read_16b(SRAM_HandleTypeDef *hsram, uint32_t *pAddress, uint16_t *pDstBu
 361:Drivers/STM32F4xx_HAL_Driver/Src/stm32f4xx_hal_sram.c **** {
 395              		.loc 1 361 0
 396              		.cfi_startproc
 397              		@ args = 0, pretend = 0, frame = 0
 398              		@ frame_needed = 0, uses_anonymous_args = 0
 399              		@ link register save eliminated.
 400              	.LVL38:
 401 0000 10B4     		push	{r4}
 402              	.LCFI9:
 403              		.cfi_def_cfa_offset 4
 404              		.cfi_offset 4, -4
 405              	.LVL39:
 362:Drivers/STM32F4xx_HAL_Driver/Src/stm32f4xx_hal_sram.c ****   __IO uint16_t * pSramAddress = (uint16_t *)pAddress;
 363:Drivers/STM32F4xx_HAL_Driver/Src/stm32f4xx_hal_sram.c ****   
 364:Drivers/STM32F4xx_HAL_Driver/Src/stm32f4xx_hal_sram.c ****   /* Process Locked */
 365:Drivers/STM32F4xx_HAL_Driver/Src/stm32f4xx_hal_sram.c ****   __HAL_LOCK(hsram);
 406              		.loc 1 365 0
 407 0002 90F84840 		ldrb	r4, [r0, #72]	@ zero_extendqisi2
 408 0006 012C     		cmp	r4, #1
 409 0008 17D0     		beq	.L33
 410              		.loc 1 365 0 is_stmt 0 discriminator 2
 411 000a 0124     		movs	r4, #1
 412 000c 80F84840 		strb	r4, [r0, #72]
 366:Drivers/STM32F4xx_HAL_Driver/Src/stm32f4xx_hal_sram.c ****   
 367:Drivers/STM32F4xx_HAL_Driver/Src/stm32f4xx_hal_sram.c ****   /* Update the SRAM controller state */
 368:Drivers/STM32F4xx_HAL_Driver/Src/stm32f4xx_hal_sram.c ****   hsram->State = HAL_SRAM_STATE_BUSY;  
 413              		.loc 1 368 0 is_stmt 1 discriminator 2
 414 0010 0224     		movs	r4, #2
 415 0012 80F84940 		strb	r4, [r0, #73]
 369:Drivers/STM32F4xx_HAL_Driver/Src/stm32f4xx_hal_sram.c ****   
 370:Drivers/STM32F4xx_HAL_Driver/Src/stm32f4xx_hal_sram.c ****   /* Read data from memory */
 371:Drivers/STM32F4xx_HAL_Driver/Src/stm32f4xx_hal_sram.c ****   for(; BufferSize != 0U; BufferSize--)
 416              		.loc 1 371 0 discriminator 2
ARM GAS  /tmp/ccODvp7u.s 			page 15


 417 0016 04E0     		b	.L31
 418              	.LVL40:
 419              	.L32:
 372:Drivers/STM32F4xx_HAL_Driver/Src/stm32f4xx_hal_sram.c ****   {
 373:Drivers/STM32F4xx_HAL_Driver/Src/stm32f4xx_hal_sram.c ****     *pDstBuffer = *(__IO uint16_t *)pSramAddress;
 420              		.loc 1 373 0 discriminator 2
 421 0018 31F8024B 		ldrh	r4, [r1], #2
 422              	.LVL41:
 423 001c 22F8024B 		strh	r4, [r2], #2	@ movhi
 424              	.LVL42:
 371:Drivers/STM32F4xx_HAL_Driver/Src/stm32f4xx_hal_sram.c ****   {
 425              		.loc 1 371 0 discriminator 2
 426 0020 013B     		subs	r3, r3, #1
 427              	.LVL43:
 428              	.L31:
 371:Drivers/STM32F4xx_HAL_Driver/Src/stm32f4xx_hal_sram.c ****   {
 429              		.loc 1 371 0 is_stmt 0 discriminator 1
 430 0022 002B     		cmp	r3, #0
 431 0024 F8D1     		bne	.L32
 374:Drivers/STM32F4xx_HAL_Driver/Src/stm32f4xx_hal_sram.c ****     pDstBuffer++;
 375:Drivers/STM32F4xx_HAL_Driver/Src/stm32f4xx_hal_sram.c ****     pSramAddress++;
 376:Drivers/STM32F4xx_HAL_Driver/Src/stm32f4xx_hal_sram.c ****   }
 377:Drivers/STM32F4xx_HAL_Driver/Src/stm32f4xx_hal_sram.c ****   
 378:Drivers/STM32F4xx_HAL_Driver/Src/stm32f4xx_hal_sram.c ****   /* Update the SRAM controller state */
 379:Drivers/STM32F4xx_HAL_Driver/Src/stm32f4xx_hal_sram.c ****   hsram->State = HAL_SRAM_STATE_READY;    
 432              		.loc 1 379 0 is_stmt 1
 433 0026 0123     		movs	r3, #1
 434              	.LVL44:
 435 0028 80F84930 		strb	r3, [r0, #73]
 380:Drivers/STM32F4xx_HAL_Driver/Src/stm32f4xx_hal_sram.c **** 
 381:Drivers/STM32F4xx_HAL_Driver/Src/stm32f4xx_hal_sram.c ****   /* Process unlocked */
 382:Drivers/STM32F4xx_HAL_Driver/Src/stm32f4xx_hal_sram.c ****   __HAL_UNLOCK(hsram); 
 436              		.loc 1 382 0
 437 002c 0023     		movs	r3, #0
 438 002e 80F84830 		strb	r3, [r0, #72]
 383:Drivers/STM32F4xx_HAL_Driver/Src/stm32f4xx_hal_sram.c ****     
 384:Drivers/STM32F4xx_HAL_Driver/Src/stm32f4xx_hal_sram.c ****   return HAL_OK;  
 439              		.loc 1 384 0
 440 0032 1846     		mov	r0, r3
 441              	.LVL45:
 442              	.L30:
 385:Drivers/STM32F4xx_HAL_Driver/Src/stm32f4xx_hal_sram.c **** }
 443              		.loc 1 385 0
 444 0034 5DF8044B 		ldr	r4, [sp], #4
 445              	.LCFI10:
 446              		.cfi_remember_state
 447              		.cfi_restore 4
 448              		.cfi_def_cfa_offset 0
 449 0038 7047     		bx	lr
 450              	.LVL46:
 451              	.L33:
 452              	.LCFI11:
 453              		.cfi_restore_state
 365:Drivers/STM32F4xx_HAL_Driver/Src/stm32f4xx_hal_sram.c ****   
 454              		.loc 1 365 0
 455 003a 0220     		movs	r0, #2
 456              	.LVL47:
ARM GAS  /tmp/ccODvp7u.s 			page 16


 457 003c FAE7     		b	.L30
 458              		.cfi_endproc
 459              	.LFE132:
 461              		.section	.text.HAL_SRAM_Write_16b,"ax",%progbits
 462              		.align	1
 463              		.global	HAL_SRAM_Write_16b
 464              		.syntax unified
 465              		.thumb
 466              		.thumb_func
 467              		.fpu fpv4-sp-d16
 469              	HAL_SRAM_Write_16b:
 470              	.LFB133:
 386:Drivers/STM32F4xx_HAL_Driver/Src/stm32f4xx_hal_sram.c **** 
 387:Drivers/STM32F4xx_HAL_Driver/Src/stm32f4xx_hal_sram.c **** /**
 388:Drivers/STM32F4xx_HAL_Driver/Src/stm32f4xx_hal_sram.c ****   * @brief  Writes 16-bit buffer to SRAM memory. 
 389:Drivers/STM32F4xx_HAL_Driver/Src/stm32f4xx_hal_sram.c ****   * @param  hsram pointer to a SRAM_HandleTypeDef structure that contains
 390:Drivers/STM32F4xx_HAL_Driver/Src/stm32f4xx_hal_sram.c ****   *                the configuration information for SRAM module.
 391:Drivers/STM32F4xx_HAL_Driver/Src/stm32f4xx_hal_sram.c ****   * @param  pAddress Pointer to write start address
 392:Drivers/STM32F4xx_HAL_Driver/Src/stm32f4xx_hal_sram.c ****   * @param  pSrcBuffer Pointer to source buffer to write  
 393:Drivers/STM32F4xx_HAL_Driver/Src/stm32f4xx_hal_sram.c ****   * @param  BufferSize Size of the buffer to write to memory
 394:Drivers/STM32F4xx_HAL_Driver/Src/stm32f4xx_hal_sram.c ****   * @retval HAL status
 395:Drivers/STM32F4xx_HAL_Driver/Src/stm32f4xx_hal_sram.c ****   */
 396:Drivers/STM32F4xx_HAL_Driver/Src/stm32f4xx_hal_sram.c **** HAL_StatusTypeDef HAL_SRAM_Write_16b(SRAM_HandleTypeDef *hsram, uint32_t *pAddress, uint16_t *pSrcB
 397:Drivers/STM32F4xx_HAL_Driver/Src/stm32f4xx_hal_sram.c **** {
 471              		.loc 1 397 0
 472              		.cfi_startproc
 473              		@ args = 0, pretend = 0, frame = 0
 474              		@ frame_needed = 0, uses_anonymous_args = 0
 475              		@ link register save eliminated.
 476              	.LVL48:
 477 0000 10B4     		push	{r4}
 478              	.LCFI12:
 479              		.cfi_def_cfa_offset 4
 480              		.cfi_offset 4, -4
 481              	.LVL49:
 398:Drivers/STM32F4xx_HAL_Driver/Src/stm32f4xx_hal_sram.c ****   __IO uint16_t * pSramAddress = (uint16_t *)pAddress; 
 399:Drivers/STM32F4xx_HAL_Driver/Src/stm32f4xx_hal_sram.c ****   
 400:Drivers/STM32F4xx_HAL_Driver/Src/stm32f4xx_hal_sram.c ****   /* Check the SRAM controller state */
 401:Drivers/STM32F4xx_HAL_Driver/Src/stm32f4xx_hal_sram.c ****   if(hsram->State == HAL_SRAM_STATE_PROTECTED)
 482              		.loc 1 401 0
 483 0002 90F84940 		ldrb	r4, [r0, #73]	@ zero_extendqisi2
 484 0006 E4B2     		uxtb	r4, r4
 485 0008 042C     		cmp	r4, #4
 486 000a 1BD0     		beq	.L39
 402:Drivers/STM32F4xx_HAL_Driver/Src/stm32f4xx_hal_sram.c ****   {
 403:Drivers/STM32F4xx_HAL_Driver/Src/stm32f4xx_hal_sram.c ****     return  HAL_ERROR; 
 404:Drivers/STM32F4xx_HAL_Driver/Src/stm32f4xx_hal_sram.c ****   }
 405:Drivers/STM32F4xx_HAL_Driver/Src/stm32f4xx_hal_sram.c ****   
 406:Drivers/STM32F4xx_HAL_Driver/Src/stm32f4xx_hal_sram.c ****   /* Process Locked */
 407:Drivers/STM32F4xx_HAL_Driver/Src/stm32f4xx_hal_sram.c ****   __HAL_LOCK(hsram);
 487              		.loc 1 407 0
 488 000c 90F84840 		ldrb	r4, [r0, #72]	@ zero_extendqisi2
 489 0010 012C     		cmp	r4, #1
 490 0012 19D0     		beq	.L40
 491              		.loc 1 407 0 is_stmt 0 discriminator 2
 492 0014 0124     		movs	r4, #1
 493 0016 80F84840 		strb	r4, [r0, #72]
ARM GAS  /tmp/ccODvp7u.s 			page 17


 408:Drivers/STM32F4xx_HAL_Driver/Src/stm32f4xx_hal_sram.c ****   
 409:Drivers/STM32F4xx_HAL_Driver/Src/stm32f4xx_hal_sram.c ****   /* Update the SRAM controller state */
 410:Drivers/STM32F4xx_HAL_Driver/Src/stm32f4xx_hal_sram.c ****   hsram->State = HAL_SRAM_STATE_BUSY; 
 494              		.loc 1 410 0 is_stmt 1 discriminator 2
 495 001a 0224     		movs	r4, #2
 496 001c 80F84940 		strb	r4, [r0, #73]
 411:Drivers/STM32F4xx_HAL_Driver/Src/stm32f4xx_hal_sram.c **** 
 412:Drivers/STM32F4xx_HAL_Driver/Src/stm32f4xx_hal_sram.c ****   /* Write data to memory */
 413:Drivers/STM32F4xx_HAL_Driver/Src/stm32f4xx_hal_sram.c ****   for(; BufferSize != 0U; BufferSize--)
 497              		.loc 1 413 0 discriminator 2
 498 0020 04E0     		b	.L37
 499              	.LVL50:
 500              	.L38:
 414:Drivers/STM32F4xx_HAL_Driver/Src/stm32f4xx_hal_sram.c ****   {
 415:Drivers/STM32F4xx_HAL_Driver/Src/stm32f4xx_hal_sram.c ****     *(__IO uint16_t *)pSramAddress = *pSrcBuffer; 
 501              		.loc 1 415 0 discriminator 2
 502 0022 32F8024B 		ldrh	r4, [r2], #2
 503              	.LVL51:
 504 0026 21F8024B 		strh	r4, [r1], #2	@ movhi
 505              	.LVL52:
 413:Drivers/STM32F4xx_HAL_Driver/Src/stm32f4xx_hal_sram.c ****   {
 506              		.loc 1 413 0 discriminator 2
 507 002a 013B     		subs	r3, r3, #1
 508              	.LVL53:
 509              	.L37:
 413:Drivers/STM32F4xx_HAL_Driver/Src/stm32f4xx_hal_sram.c ****   {
 510              		.loc 1 413 0 is_stmt 0 discriminator 1
 511 002c 002B     		cmp	r3, #0
 512 002e F8D1     		bne	.L38
 416:Drivers/STM32F4xx_HAL_Driver/Src/stm32f4xx_hal_sram.c ****     pSrcBuffer++;
 417:Drivers/STM32F4xx_HAL_Driver/Src/stm32f4xx_hal_sram.c ****     pSramAddress++;    
 418:Drivers/STM32F4xx_HAL_Driver/Src/stm32f4xx_hal_sram.c ****   }    
 419:Drivers/STM32F4xx_HAL_Driver/Src/stm32f4xx_hal_sram.c **** 
 420:Drivers/STM32F4xx_HAL_Driver/Src/stm32f4xx_hal_sram.c ****   /* Update the SRAM controller state */
 421:Drivers/STM32F4xx_HAL_Driver/Src/stm32f4xx_hal_sram.c ****   hsram->State = HAL_SRAM_STATE_READY; 
 513              		.loc 1 421 0 is_stmt 1
 514 0030 0123     		movs	r3, #1
 515              	.LVL54:
 516 0032 80F84930 		strb	r3, [r0, #73]
 422:Drivers/STM32F4xx_HAL_Driver/Src/stm32f4xx_hal_sram.c ****   
 423:Drivers/STM32F4xx_HAL_Driver/Src/stm32f4xx_hal_sram.c ****   /* Process unlocked */
 424:Drivers/STM32F4xx_HAL_Driver/Src/stm32f4xx_hal_sram.c ****   __HAL_UNLOCK(hsram);
 517              		.loc 1 424 0
 518 0036 0023     		movs	r3, #0
 519 0038 80F84830 		strb	r3, [r0, #72]
 425:Drivers/STM32F4xx_HAL_Driver/Src/stm32f4xx_hal_sram.c ****     
 426:Drivers/STM32F4xx_HAL_Driver/Src/stm32f4xx_hal_sram.c ****   return HAL_OK;  
 520              		.loc 1 426 0
 521 003c 1846     		mov	r0, r3
 522              	.LVL55:
 523              	.L36:
 427:Drivers/STM32F4xx_HAL_Driver/Src/stm32f4xx_hal_sram.c **** }
 524              		.loc 1 427 0
 525 003e 5DF8044B 		ldr	r4, [sp], #4
 526              	.LCFI13:
 527              		.cfi_remember_state
 528              		.cfi_restore 4
ARM GAS  /tmp/ccODvp7u.s 			page 18


 529              		.cfi_def_cfa_offset 0
 530 0042 7047     		bx	lr
 531              	.LVL56:
 532              	.L39:
 533              	.LCFI14:
 534              		.cfi_restore_state
 403:Drivers/STM32F4xx_HAL_Driver/Src/stm32f4xx_hal_sram.c ****   }
 535              		.loc 1 403 0
 536 0044 0120     		movs	r0, #1
 537              	.LVL57:
 538 0046 FAE7     		b	.L36
 539              	.LVL58:
 540              	.L40:
 407:Drivers/STM32F4xx_HAL_Driver/Src/stm32f4xx_hal_sram.c ****   
 541              		.loc 1 407 0
 542 0048 0220     		movs	r0, #2
 543              	.LVL59:
 544 004a F8E7     		b	.L36
 545              		.cfi_endproc
 546              	.LFE133:
 548              		.section	.text.HAL_SRAM_Read_32b,"ax",%progbits
 549              		.align	1
 550              		.global	HAL_SRAM_Read_32b
 551              		.syntax unified
 552              		.thumb
 553              		.thumb_func
 554              		.fpu fpv4-sp-d16
 556              	HAL_SRAM_Read_32b:
 557              	.LFB134:
 428:Drivers/STM32F4xx_HAL_Driver/Src/stm32f4xx_hal_sram.c **** 
 429:Drivers/STM32F4xx_HAL_Driver/Src/stm32f4xx_hal_sram.c **** /**
 430:Drivers/STM32F4xx_HAL_Driver/Src/stm32f4xx_hal_sram.c ****   * @brief  Reads 32-bit buffer from SRAM memory. 
 431:Drivers/STM32F4xx_HAL_Driver/Src/stm32f4xx_hal_sram.c ****   * @param  hsram pointer to a SRAM_HandleTypeDef structure that contains
 432:Drivers/STM32F4xx_HAL_Driver/Src/stm32f4xx_hal_sram.c ****   *                the configuration information for SRAM module.
 433:Drivers/STM32F4xx_HAL_Driver/Src/stm32f4xx_hal_sram.c ****   * @param  pAddress Pointer to read start address
 434:Drivers/STM32F4xx_HAL_Driver/Src/stm32f4xx_hal_sram.c ****   * @param  pDstBuffer Pointer to destination buffer  
 435:Drivers/STM32F4xx_HAL_Driver/Src/stm32f4xx_hal_sram.c ****   * @param  BufferSize Size of the buffer to read from memory
 436:Drivers/STM32F4xx_HAL_Driver/Src/stm32f4xx_hal_sram.c ****   * @retval HAL status
 437:Drivers/STM32F4xx_HAL_Driver/Src/stm32f4xx_hal_sram.c ****   */
 438:Drivers/STM32F4xx_HAL_Driver/Src/stm32f4xx_hal_sram.c **** HAL_StatusTypeDef HAL_SRAM_Read_32b(SRAM_HandleTypeDef *hsram, uint32_t *pAddress, uint32_t *pDstBu
 439:Drivers/STM32F4xx_HAL_Driver/Src/stm32f4xx_hal_sram.c **** {
 558              		.loc 1 439 0
 559              		.cfi_startproc
 560              		@ args = 0, pretend = 0, frame = 0
 561              		@ frame_needed = 0, uses_anonymous_args = 0
 562              		@ link register save eliminated.
 563              	.LVL60:
 564 0000 10B4     		push	{r4}
 565              	.LCFI15:
 566              		.cfi_def_cfa_offset 4
 567              		.cfi_offset 4, -4
 440:Drivers/STM32F4xx_HAL_Driver/Src/stm32f4xx_hal_sram.c ****   /* Process Locked */
 441:Drivers/STM32F4xx_HAL_Driver/Src/stm32f4xx_hal_sram.c ****   __HAL_LOCK(hsram);
 568              		.loc 1 441 0
 569 0002 90F84840 		ldrb	r4, [r0, #72]	@ zero_extendqisi2
 570 0006 012C     		cmp	r4, #1
 571 0008 17D0     		beq	.L46
ARM GAS  /tmp/ccODvp7u.s 			page 19


 572              		.loc 1 441 0 is_stmt 0 discriminator 2
 573 000a 0124     		movs	r4, #1
 574 000c 80F84840 		strb	r4, [r0, #72]
 442:Drivers/STM32F4xx_HAL_Driver/Src/stm32f4xx_hal_sram.c ****   
 443:Drivers/STM32F4xx_HAL_Driver/Src/stm32f4xx_hal_sram.c ****   /* Update the SRAM controller state */
 444:Drivers/STM32F4xx_HAL_Driver/Src/stm32f4xx_hal_sram.c ****   hsram->State = HAL_SRAM_STATE_BUSY;  
 575              		.loc 1 444 0 is_stmt 1 discriminator 2
 576 0010 0224     		movs	r4, #2
 577 0012 80F84940 		strb	r4, [r0, #73]
 445:Drivers/STM32F4xx_HAL_Driver/Src/stm32f4xx_hal_sram.c ****   
 446:Drivers/STM32F4xx_HAL_Driver/Src/stm32f4xx_hal_sram.c ****   /* Read data from memory */
 447:Drivers/STM32F4xx_HAL_Driver/Src/stm32f4xx_hal_sram.c ****   for(; BufferSize != 0U; BufferSize--)
 578              		.loc 1 447 0 discriminator 2
 579 0016 04E0     		b	.L44
 580              	.L45:
 448:Drivers/STM32F4xx_HAL_Driver/Src/stm32f4xx_hal_sram.c ****   {
 449:Drivers/STM32F4xx_HAL_Driver/Src/stm32f4xx_hal_sram.c ****     *pDstBuffer = *(__IO uint32_t *)pAddress;
 581              		.loc 1 449 0 discriminator 2
 582 0018 51F8044B 		ldr	r4, [r1], #4
 583              	.LVL61:
 584 001c 42F8044B 		str	r4, [r2], #4
 585              	.LVL62:
 447:Drivers/STM32F4xx_HAL_Driver/Src/stm32f4xx_hal_sram.c ****   {
 586              		.loc 1 447 0 discriminator 2
 587 0020 013B     		subs	r3, r3, #1
 588              	.LVL63:
 589              	.L44:
 447:Drivers/STM32F4xx_HAL_Driver/Src/stm32f4xx_hal_sram.c ****   {
 590              		.loc 1 447 0 is_stmt 0 discriminator 1
 591 0022 002B     		cmp	r3, #0
 592 0024 F8D1     		bne	.L45
 450:Drivers/STM32F4xx_HAL_Driver/Src/stm32f4xx_hal_sram.c ****     pDstBuffer++;
 451:Drivers/STM32F4xx_HAL_Driver/Src/stm32f4xx_hal_sram.c ****     pAddress++;
 452:Drivers/STM32F4xx_HAL_Driver/Src/stm32f4xx_hal_sram.c ****   }
 453:Drivers/STM32F4xx_HAL_Driver/Src/stm32f4xx_hal_sram.c ****   
 454:Drivers/STM32F4xx_HAL_Driver/Src/stm32f4xx_hal_sram.c ****   /* Update the SRAM controller state */
 455:Drivers/STM32F4xx_HAL_Driver/Src/stm32f4xx_hal_sram.c ****   hsram->State = HAL_SRAM_STATE_READY;    
 593              		.loc 1 455 0 is_stmt 1
 594 0026 0123     		movs	r3, #1
 595              	.LVL64:
 596 0028 80F84930 		strb	r3, [r0, #73]
 456:Drivers/STM32F4xx_HAL_Driver/Src/stm32f4xx_hal_sram.c **** 
 457:Drivers/STM32F4xx_HAL_Driver/Src/stm32f4xx_hal_sram.c ****   /* Process unlocked */
 458:Drivers/STM32F4xx_HAL_Driver/Src/stm32f4xx_hal_sram.c ****   __HAL_UNLOCK(hsram); 
 597              		.loc 1 458 0
 598 002c 0023     		movs	r3, #0
 599 002e 80F84830 		strb	r3, [r0, #72]
 459:Drivers/STM32F4xx_HAL_Driver/Src/stm32f4xx_hal_sram.c ****     
 460:Drivers/STM32F4xx_HAL_Driver/Src/stm32f4xx_hal_sram.c ****   return HAL_OK;  
 600              		.loc 1 460 0
 601 0032 1846     		mov	r0, r3
 602              	.LVL65:
 603              	.L43:
 461:Drivers/STM32F4xx_HAL_Driver/Src/stm32f4xx_hal_sram.c **** }
 604              		.loc 1 461 0
 605 0034 5DF8044B 		ldr	r4, [sp], #4
 606              	.LCFI16:
ARM GAS  /tmp/ccODvp7u.s 			page 20


 607              		.cfi_remember_state
 608              		.cfi_restore 4
 609              		.cfi_def_cfa_offset 0
 610 0038 7047     		bx	lr
 611              	.LVL66:
 612              	.L46:
 613              	.LCFI17:
 614              		.cfi_restore_state
 441:Drivers/STM32F4xx_HAL_Driver/Src/stm32f4xx_hal_sram.c ****   
 615              		.loc 1 441 0
 616 003a 0220     		movs	r0, #2
 617              	.LVL67:
 618 003c FAE7     		b	.L43
 619              		.cfi_endproc
 620              	.LFE134:
 622              		.section	.text.HAL_SRAM_Write_32b,"ax",%progbits
 623              		.align	1
 624              		.global	HAL_SRAM_Write_32b
 625              		.syntax unified
 626              		.thumb
 627              		.thumb_func
 628              		.fpu fpv4-sp-d16
 630              	HAL_SRAM_Write_32b:
 631              	.LFB135:
 462:Drivers/STM32F4xx_HAL_Driver/Src/stm32f4xx_hal_sram.c **** 
 463:Drivers/STM32F4xx_HAL_Driver/Src/stm32f4xx_hal_sram.c **** /**
 464:Drivers/STM32F4xx_HAL_Driver/Src/stm32f4xx_hal_sram.c ****   * @brief  Writes 32-bit buffer to SRAM memory. 
 465:Drivers/STM32F4xx_HAL_Driver/Src/stm32f4xx_hal_sram.c ****   * @param  hsram pointer to a SRAM_HandleTypeDef structure that contains
 466:Drivers/STM32F4xx_HAL_Driver/Src/stm32f4xx_hal_sram.c ****   *                the configuration information for SRAM module.
 467:Drivers/STM32F4xx_HAL_Driver/Src/stm32f4xx_hal_sram.c ****   * @param  pAddress Pointer to write start address
 468:Drivers/STM32F4xx_HAL_Driver/Src/stm32f4xx_hal_sram.c ****   * @param  pSrcBuffer Pointer to source buffer to write  
 469:Drivers/STM32F4xx_HAL_Driver/Src/stm32f4xx_hal_sram.c ****   * @param  BufferSize Size of the buffer to write to memory
 470:Drivers/STM32F4xx_HAL_Driver/Src/stm32f4xx_hal_sram.c ****   * @retval HAL status
 471:Drivers/STM32F4xx_HAL_Driver/Src/stm32f4xx_hal_sram.c ****   */
 472:Drivers/STM32F4xx_HAL_Driver/Src/stm32f4xx_hal_sram.c **** HAL_StatusTypeDef HAL_SRAM_Write_32b(SRAM_HandleTypeDef *hsram, uint32_t *pAddress, uint32_t *pSrcB
 473:Drivers/STM32F4xx_HAL_Driver/Src/stm32f4xx_hal_sram.c **** {
 632              		.loc 1 473 0
 633              		.cfi_startproc
 634              		@ args = 0, pretend = 0, frame = 0
 635              		@ frame_needed = 0, uses_anonymous_args = 0
 636              		@ link register save eliminated.
 637              	.LVL68:
 638 0000 10B4     		push	{r4}
 639              	.LCFI18:
 640              		.cfi_def_cfa_offset 4
 641              		.cfi_offset 4, -4
 474:Drivers/STM32F4xx_HAL_Driver/Src/stm32f4xx_hal_sram.c ****   /* Check the SRAM controller state */
 475:Drivers/STM32F4xx_HAL_Driver/Src/stm32f4xx_hal_sram.c ****   if(hsram->State == HAL_SRAM_STATE_PROTECTED)
 642              		.loc 1 475 0
 643 0002 90F84940 		ldrb	r4, [r0, #73]	@ zero_extendqisi2
 644 0006 E4B2     		uxtb	r4, r4
 645 0008 042C     		cmp	r4, #4
 646 000a 1BD0     		beq	.L52
 476:Drivers/STM32F4xx_HAL_Driver/Src/stm32f4xx_hal_sram.c ****   {
 477:Drivers/STM32F4xx_HAL_Driver/Src/stm32f4xx_hal_sram.c ****     return  HAL_ERROR; 
 478:Drivers/STM32F4xx_HAL_Driver/Src/stm32f4xx_hal_sram.c ****   }
 479:Drivers/STM32F4xx_HAL_Driver/Src/stm32f4xx_hal_sram.c ****   
ARM GAS  /tmp/ccODvp7u.s 			page 21


 480:Drivers/STM32F4xx_HAL_Driver/Src/stm32f4xx_hal_sram.c ****   /* Process Locked */
 481:Drivers/STM32F4xx_HAL_Driver/Src/stm32f4xx_hal_sram.c ****   __HAL_LOCK(hsram);
 647              		.loc 1 481 0
 648 000c 90F84840 		ldrb	r4, [r0, #72]	@ zero_extendqisi2
 649 0010 012C     		cmp	r4, #1
 650 0012 19D0     		beq	.L53
 651              		.loc 1 481 0 is_stmt 0 discriminator 2
 652 0014 0124     		movs	r4, #1
 653 0016 80F84840 		strb	r4, [r0, #72]
 482:Drivers/STM32F4xx_HAL_Driver/Src/stm32f4xx_hal_sram.c ****   
 483:Drivers/STM32F4xx_HAL_Driver/Src/stm32f4xx_hal_sram.c ****   /* Update the SRAM controller state */
 484:Drivers/STM32F4xx_HAL_Driver/Src/stm32f4xx_hal_sram.c ****   hsram->State = HAL_SRAM_STATE_BUSY; 
 654              		.loc 1 484 0 is_stmt 1 discriminator 2
 655 001a 0224     		movs	r4, #2
 656 001c 80F84940 		strb	r4, [r0, #73]
 485:Drivers/STM32F4xx_HAL_Driver/Src/stm32f4xx_hal_sram.c **** 
 486:Drivers/STM32F4xx_HAL_Driver/Src/stm32f4xx_hal_sram.c ****   /* Write data to memory */
 487:Drivers/STM32F4xx_HAL_Driver/Src/stm32f4xx_hal_sram.c ****   for(; BufferSize != 0U; BufferSize--)
 657              		.loc 1 487 0 discriminator 2
 658 0020 04E0     		b	.L50
 659              	.L51:
 488:Drivers/STM32F4xx_HAL_Driver/Src/stm32f4xx_hal_sram.c ****   {
 489:Drivers/STM32F4xx_HAL_Driver/Src/stm32f4xx_hal_sram.c ****     *(__IO uint32_t *)pAddress = *pSrcBuffer; 
 660              		.loc 1 489 0 discriminator 2
 661 0022 52F8044B 		ldr	r4, [r2], #4
 662              	.LVL69:
 663 0026 41F8044B 		str	r4, [r1], #4
 664              	.LVL70:
 487:Drivers/STM32F4xx_HAL_Driver/Src/stm32f4xx_hal_sram.c ****   {
 665              		.loc 1 487 0 discriminator 2
 666 002a 013B     		subs	r3, r3, #1
 667              	.LVL71:
 668              	.L50:
 487:Drivers/STM32F4xx_HAL_Driver/Src/stm32f4xx_hal_sram.c ****   {
 669              		.loc 1 487 0 is_stmt 0 discriminator 1
 670 002c 002B     		cmp	r3, #0
 671 002e F8D1     		bne	.L51
 490:Drivers/STM32F4xx_HAL_Driver/Src/stm32f4xx_hal_sram.c ****     pSrcBuffer++;
 491:Drivers/STM32F4xx_HAL_Driver/Src/stm32f4xx_hal_sram.c ****     pAddress++;    
 492:Drivers/STM32F4xx_HAL_Driver/Src/stm32f4xx_hal_sram.c ****   }    
 493:Drivers/STM32F4xx_HAL_Driver/Src/stm32f4xx_hal_sram.c **** 
 494:Drivers/STM32F4xx_HAL_Driver/Src/stm32f4xx_hal_sram.c ****   /* Update the SRAM controller state */
 495:Drivers/STM32F4xx_HAL_Driver/Src/stm32f4xx_hal_sram.c ****   hsram->State = HAL_SRAM_STATE_READY; 
 672              		.loc 1 495 0 is_stmt 1
 673 0030 0123     		movs	r3, #1
 674              	.LVL72:
 675 0032 80F84930 		strb	r3, [r0, #73]
 496:Drivers/STM32F4xx_HAL_Driver/Src/stm32f4xx_hal_sram.c ****   
 497:Drivers/STM32F4xx_HAL_Driver/Src/stm32f4xx_hal_sram.c ****   /* Process unlocked */
 498:Drivers/STM32F4xx_HAL_Driver/Src/stm32f4xx_hal_sram.c ****   __HAL_UNLOCK(hsram);
 676              		.loc 1 498 0
 677 0036 0023     		movs	r3, #0
 678 0038 80F84830 		strb	r3, [r0, #72]
 499:Drivers/STM32F4xx_HAL_Driver/Src/stm32f4xx_hal_sram.c ****     
 500:Drivers/STM32F4xx_HAL_Driver/Src/stm32f4xx_hal_sram.c ****   return HAL_OK;   
 679              		.loc 1 500 0
 680 003c 1846     		mov	r0, r3
ARM GAS  /tmp/ccODvp7u.s 			page 22


 681              	.LVL73:
 682              	.L49:
 501:Drivers/STM32F4xx_HAL_Driver/Src/stm32f4xx_hal_sram.c **** }
 683              		.loc 1 501 0
 684 003e 5DF8044B 		ldr	r4, [sp], #4
 685              	.LCFI19:
 686              		.cfi_remember_state
 687              		.cfi_restore 4
 688              		.cfi_def_cfa_offset 0
 689 0042 7047     		bx	lr
 690              	.LVL74:
 691              	.L52:
 692              	.LCFI20:
 693              		.cfi_restore_state
 477:Drivers/STM32F4xx_HAL_Driver/Src/stm32f4xx_hal_sram.c ****   }
 694              		.loc 1 477 0
 695 0044 0120     		movs	r0, #1
 696              	.LVL75:
 697 0046 FAE7     		b	.L49
 698              	.LVL76:
 699              	.L53:
 481:Drivers/STM32F4xx_HAL_Driver/Src/stm32f4xx_hal_sram.c ****   
 700              		.loc 1 481 0
 701 0048 0220     		movs	r0, #2
 702              	.LVL77:
 703 004a F8E7     		b	.L49
 704              		.cfi_endproc
 705              	.LFE135:
 707              		.section	.text.HAL_SRAM_Read_DMA,"ax",%progbits
 708              		.align	1
 709              		.global	HAL_SRAM_Read_DMA
 710              		.syntax unified
 711              		.thumb
 712              		.thumb_func
 713              		.fpu fpv4-sp-d16
 715              	HAL_SRAM_Read_DMA:
 716              	.LFB136:
 502:Drivers/STM32F4xx_HAL_Driver/Src/stm32f4xx_hal_sram.c **** 
 503:Drivers/STM32F4xx_HAL_Driver/Src/stm32f4xx_hal_sram.c **** /**
 504:Drivers/STM32F4xx_HAL_Driver/Src/stm32f4xx_hal_sram.c ****   * @brief  Reads a Words data from the SRAM memory using DMA transfer.
 505:Drivers/STM32F4xx_HAL_Driver/Src/stm32f4xx_hal_sram.c ****   * @param  hsram pointer to a SRAM_HandleTypeDef structure that contains
 506:Drivers/STM32F4xx_HAL_Driver/Src/stm32f4xx_hal_sram.c ****   *                the configuration information for SRAM module.
 507:Drivers/STM32F4xx_HAL_Driver/Src/stm32f4xx_hal_sram.c ****   * @param  pAddress Pointer to read start address
 508:Drivers/STM32F4xx_HAL_Driver/Src/stm32f4xx_hal_sram.c ****   * @param  pDstBuffer Pointer to destination buffer  
 509:Drivers/STM32F4xx_HAL_Driver/Src/stm32f4xx_hal_sram.c ****   * @param  BufferSize Size of the buffer to read from memory
 510:Drivers/STM32F4xx_HAL_Driver/Src/stm32f4xx_hal_sram.c ****   * @retval HAL status
 511:Drivers/STM32F4xx_HAL_Driver/Src/stm32f4xx_hal_sram.c ****   */
 512:Drivers/STM32F4xx_HAL_Driver/Src/stm32f4xx_hal_sram.c **** HAL_StatusTypeDef HAL_SRAM_Read_DMA(SRAM_HandleTypeDef *hsram, uint32_t *pAddress, uint32_t *pDstBu
 513:Drivers/STM32F4xx_HAL_Driver/Src/stm32f4xx_hal_sram.c **** {
 717              		.loc 1 513 0
 718              		.cfi_startproc
 719              		@ args = 0, pretend = 0, frame = 0
 720              		@ frame_needed = 0, uses_anonymous_args = 0
 721              	.LVL78:
 722 0000 70B5     		push	{r4, r5, r6, lr}
 723              	.LCFI21:
 724              		.cfi_def_cfa_offset 16
ARM GAS  /tmp/ccODvp7u.s 			page 23


 725              		.cfi_offset 4, -16
 726              		.cfi_offset 5, -12
 727              		.cfi_offset 6, -8
 728              		.cfi_offset 14, -4
 514:Drivers/STM32F4xx_HAL_Driver/Src/stm32f4xx_hal_sram.c ****   /* Process Locked */
 515:Drivers/STM32F4xx_HAL_Driver/Src/stm32f4xx_hal_sram.c ****   __HAL_LOCK(hsram);  
 729              		.loc 1 515 0
 730 0002 90F84840 		ldrb	r4, [r0, #72]	@ zero_extendqisi2
 731 0006 012C     		cmp	r4, #1
 732 0008 01D1     		bne	.L59
 733 000a 0220     		movs	r0, #2
 734              	.LVL79:
 516:Drivers/STM32F4xx_HAL_Driver/Src/stm32f4xx_hal_sram.c ****   
 517:Drivers/STM32F4xx_HAL_Driver/Src/stm32f4xx_hal_sram.c ****   /* Update the SRAM controller state */
 518:Drivers/STM32F4xx_HAL_Driver/Src/stm32f4xx_hal_sram.c ****   hsram->State = HAL_SRAM_STATE_BUSY;   
 519:Drivers/STM32F4xx_HAL_Driver/Src/stm32f4xx_hal_sram.c ****   
 520:Drivers/STM32F4xx_HAL_Driver/Src/stm32f4xx_hal_sram.c ****   /* Configure DMA user callbacks */
 521:Drivers/STM32F4xx_HAL_Driver/Src/stm32f4xx_hal_sram.c ****   hsram->hdma->XferCpltCallback  = HAL_SRAM_DMA_XferCpltCallback;
 522:Drivers/STM32F4xx_HAL_Driver/Src/stm32f4xx_hal_sram.c ****   hsram->hdma->XferErrorCallback = HAL_SRAM_DMA_XferErrorCallback;
 523:Drivers/STM32F4xx_HAL_Driver/Src/stm32f4xx_hal_sram.c **** 
 524:Drivers/STM32F4xx_HAL_Driver/Src/stm32f4xx_hal_sram.c ****   /* Enable the DMA Stream */
 525:Drivers/STM32F4xx_HAL_Driver/Src/stm32f4xx_hal_sram.c ****   HAL_DMA_Start_IT(hsram->hdma, (uint32_t)pAddress, (uint32_t)pDstBuffer, (uint32_t)BufferSize);
 526:Drivers/STM32F4xx_HAL_Driver/Src/stm32f4xx_hal_sram.c ****   
 527:Drivers/STM32F4xx_HAL_Driver/Src/stm32f4xx_hal_sram.c ****   /* Update the SRAM controller state */
 528:Drivers/STM32F4xx_HAL_Driver/Src/stm32f4xx_hal_sram.c ****   hsram->State = HAL_SRAM_STATE_READY; 
 529:Drivers/STM32F4xx_HAL_Driver/Src/stm32f4xx_hal_sram.c ****   
 530:Drivers/STM32F4xx_HAL_Driver/Src/stm32f4xx_hal_sram.c ****   /* Process unlocked */
 531:Drivers/STM32F4xx_HAL_Driver/Src/stm32f4xx_hal_sram.c ****   __HAL_UNLOCK(hsram);  
 532:Drivers/STM32F4xx_HAL_Driver/Src/stm32f4xx_hal_sram.c ****   
 533:Drivers/STM32F4xx_HAL_Driver/Src/stm32f4xx_hal_sram.c ****   return HAL_OK; 
 534:Drivers/STM32F4xx_HAL_Driver/Src/stm32f4xx_hal_sram.c **** }
 735              		.loc 1 534 0
 736 000c 70BD     		pop	{r4, r5, r6, pc}
 737              	.LVL80:
 738              	.L59:
 739 000e 0446     		mov	r4, r0
 515:Drivers/STM32F4xx_HAL_Driver/Src/stm32f4xx_hal_sram.c ****   
 740              		.loc 1 515 0 discriminator 2
 741 0010 0125     		movs	r5, #1
 742 0012 80F84850 		strb	r5, [r0, #72]
 518:Drivers/STM32F4xx_HAL_Driver/Src/stm32f4xx_hal_sram.c ****   
 743              		.loc 1 518 0 discriminator 2
 744 0016 0220     		movs	r0, #2
 745              	.LVL81:
 746 0018 84F84900 		strb	r0, [r4, #73]
 521:Drivers/STM32F4xx_HAL_Driver/Src/stm32f4xx_hal_sram.c ****   hsram->hdma->XferErrorCallback = HAL_SRAM_DMA_XferErrorCallback;
 747              		.loc 1 521 0 discriminator 2
 748 001c E06C     		ldr	r0, [r4, #76]
 749 001e 074E     		ldr	r6, .L60
 750 0020 C663     		str	r6, [r0, #60]
 522:Drivers/STM32F4xx_HAL_Driver/Src/stm32f4xx_hal_sram.c **** 
 751              		.loc 1 522 0 discriminator 2
 752 0022 E06C     		ldr	r0, [r4, #76]
 753 0024 064E     		ldr	r6, .L60+4
 754 0026 C664     		str	r6, [r0, #76]
 525:Drivers/STM32F4xx_HAL_Driver/Src/stm32f4xx_hal_sram.c ****   
 755              		.loc 1 525 0 discriminator 2
ARM GAS  /tmp/ccODvp7u.s 			page 24


 756 0028 E06C     		ldr	r0, [r4, #76]
 757 002a FFF7FEFF 		bl	HAL_DMA_Start_IT
 758              	.LVL82:
 528:Drivers/STM32F4xx_HAL_Driver/Src/stm32f4xx_hal_sram.c ****   
 759              		.loc 1 528 0 discriminator 2
 760 002e 84F84950 		strb	r5, [r4, #73]
 531:Drivers/STM32F4xx_HAL_Driver/Src/stm32f4xx_hal_sram.c ****   
 761              		.loc 1 531 0 discriminator 2
 762 0032 0020     		movs	r0, #0
 763 0034 84F84800 		strb	r0, [r4, #72]
 533:Drivers/STM32F4xx_HAL_Driver/Src/stm32f4xx_hal_sram.c **** }
 764              		.loc 1 533 0 discriminator 2
 765 0038 70BD     		pop	{r4, r5, r6, pc}
 766              	.LVL83:
 767              	.L61:
 768 003a 00BF     		.align	2
 769              	.L60:
 770 003c 00000000 		.word	HAL_SRAM_DMA_XferCpltCallback
 771 0040 00000000 		.word	HAL_SRAM_DMA_XferErrorCallback
 772              		.cfi_endproc
 773              	.LFE136:
 775              		.section	.text.HAL_SRAM_Write_DMA,"ax",%progbits
 776              		.align	1
 777              		.global	HAL_SRAM_Write_DMA
 778              		.syntax unified
 779              		.thumb
 780              		.thumb_func
 781              		.fpu fpv4-sp-d16
 783              	HAL_SRAM_Write_DMA:
 784              	.LFB137:
 535:Drivers/STM32F4xx_HAL_Driver/Src/stm32f4xx_hal_sram.c **** 
 536:Drivers/STM32F4xx_HAL_Driver/Src/stm32f4xx_hal_sram.c **** /**
 537:Drivers/STM32F4xx_HAL_Driver/Src/stm32f4xx_hal_sram.c ****   * @brief  Writes a Words data buffer to SRAM memory using DMA transfer.
 538:Drivers/STM32F4xx_HAL_Driver/Src/stm32f4xx_hal_sram.c ****   * @param  hsram pointer to a SRAM_HandleTypeDef structure that contains
 539:Drivers/STM32F4xx_HAL_Driver/Src/stm32f4xx_hal_sram.c ****   *                the configuration information for SRAM module.
 540:Drivers/STM32F4xx_HAL_Driver/Src/stm32f4xx_hal_sram.c ****   * @param  pAddress Pointer to write start address
 541:Drivers/STM32F4xx_HAL_Driver/Src/stm32f4xx_hal_sram.c ****   * @param  pSrcBuffer Pointer to source buffer to write  
 542:Drivers/STM32F4xx_HAL_Driver/Src/stm32f4xx_hal_sram.c ****   * @param  BufferSize Size of the buffer to write to memory
 543:Drivers/STM32F4xx_HAL_Driver/Src/stm32f4xx_hal_sram.c ****   * @retval HAL status
 544:Drivers/STM32F4xx_HAL_Driver/Src/stm32f4xx_hal_sram.c ****   */
 545:Drivers/STM32F4xx_HAL_Driver/Src/stm32f4xx_hal_sram.c **** HAL_StatusTypeDef HAL_SRAM_Write_DMA(SRAM_HandleTypeDef *hsram, uint32_t *pAddress, uint32_t *pSrcB
 546:Drivers/STM32F4xx_HAL_Driver/Src/stm32f4xx_hal_sram.c **** {
 785              		.loc 1 546 0
 786              		.cfi_startproc
 787              		@ args = 0, pretend = 0, frame = 0
 788              		@ frame_needed = 0, uses_anonymous_args = 0
 789              	.LVL84:
 790 0000 70B5     		push	{r4, r5, r6, lr}
 791              	.LCFI22:
 792              		.cfi_def_cfa_offset 16
 793              		.cfi_offset 4, -16
 794              		.cfi_offset 5, -12
 795              		.cfi_offset 6, -8
 796              		.cfi_offset 14, -4
 547:Drivers/STM32F4xx_HAL_Driver/Src/stm32f4xx_hal_sram.c ****   /* Check the SRAM controller state */
 548:Drivers/STM32F4xx_HAL_Driver/Src/stm32f4xx_hal_sram.c ****   if(hsram->State == HAL_SRAM_STATE_PROTECTED)
 797              		.loc 1 548 0
ARM GAS  /tmp/ccODvp7u.s 			page 25


 798 0002 90F84940 		ldrb	r4, [r0, #73]	@ zero_extendqisi2
 799 0006 E4B2     		uxtb	r4, r4
 800 0008 042C     		cmp	r4, #4
 801 000a 1ED0     		beq	.L64
 549:Drivers/STM32F4xx_HAL_Driver/Src/stm32f4xx_hal_sram.c ****   {
 550:Drivers/STM32F4xx_HAL_Driver/Src/stm32f4xx_hal_sram.c ****     return  HAL_ERROR; 
 551:Drivers/STM32F4xx_HAL_Driver/Src/stm32f4xx_hal_sram.c ****   }
 552:Drivers/STM32F4xx_HAL_Driver/Src/stm32f4xx_hal_sram.c ****   
 553:Drivers/STM32F4xx_HAL_Driver/Src/stm32f4xx_hal_sram.c ****   /* Process Locked */
 554:Drivers/STM32F4xx_HAL_Driver/Src/stm32f4xx_hal_sram.c ****   __HAL_LOCK(hsram);
 802              		.loc 1 554 0
 803 000c 90F84840 		ldrb	r4, [r0, #72]	@ zero_extendqisi2
 804 0010 012C     		cmp	r4, #1
 805 0012 01D1     		bne	.L67
 806 0014 0220     		movs	r0, #2
 807              	.LVL85:
 555:Drivers/STM32F4xx_HAL_Driver/Src/stm32f4xx_hal_sram.c ****   
 556:Drivers/STM32F4xx_HAL_Driver/Src/stm32f4xx_hal_sram.c ****   /* Update the SRAM controller state */
 557:Drivers/STM32F4xx_HAL_Driver/Src/stm32f4xx_hal_sram.c ****   hsram->State = HAL_SRAM_STATE_BUSY; 
 558:Drivers/STM32F4xx_HAL_Driver/Src/stm32f4xx_hal_sram.c ****   
 559:Drivers/STM32F4xx_HAL_Driver/Src/stm32f4xx_hal_sram.c ****   /* Configure DMA user callbacks */
 560:Drivers/STM32F4xx_HAL_Driver/Src/stm32f4xx_hal_sram.c ****   hsram->hdma->XferCpltCallback  = HAL_SRAM_DMA_XferCpltCallback;
 561:Drivers/STM32F4xx_HAL_Driver/Src/stm32f4xx_hal_sram.c ****   hsram->hdma->XferErrorCallback = HAL_SRAM_DMA_XferErrorCallback;
 562:Drivers/STM32F4xx_HAL_Driver/Src/stm32f4xx_hal_sram.c **** 
 563:Drivers/STM32F4xx_HAL_Driver/Src/stm32f4xx_hal_sram.c ****   /* Enable the DMA Stream */
 564:Drivers/STM32F4xx_HAL_Driver/Src/stm32f4xx_hal_sram.c ****   HAL_DMA_Start_IT(hsram->hdma, (uint32_t)pSrcBuffer, (uint32_t)pAddress, (uint32_t)BufferSize);
 565:Drivers/STM32F4xx_HAL_Driver/Src/stm32f4xx_hal_sram.c ****   
 566:Drivers/STM32F4xx_HAL_Driver/Src/stm32f4xx_hal_sram.c ****   /* Update the SRAM controller state */
 567:Drivers/STM32F4xx_HAL_Driver/Src/stm32f4xx_hal_sram.c ****   hsram->State = HAL_SRAM_STATE_READY;  
 568:Drivers/STM32F4xx_HAL_Driver/Src/stm32f4xx_hal_sram.c ****   
 569:Drivers/STM32F4xx_HAL_Driver/Src/stm32f4xx_hal_sram.c ****   /* Process unlocked */
 570:Drivers/STM32F4xx_HAL_Driver/Src/stm32f4xx_hal_sram.c ****   __HAL_UNLOCK(hsram);  
 571:Drivers/STM32F4xx_HAL_Driver/Src/stm32f4xx_hal_sram.c ****   
 572:Drivers/STM32F4xx_HAL_Driver/Src/stm32f4xx_hal_sram.c ****   return HAL_OK;
 573:Drivers/STM32F4xx_HAL_Driver/Src/stm32f4xx_hal_sram.c **** }
 808              		.loc 1 573 0
 809 0016 70BD     		pop	{r4, r5, r6, pc}
 810              	.LVL86:
 811              	.L67:
 812 0018 1546     		mov	r5, r2
 813 001a 0A46     		mov	r2, r1
 814              	.LVL87:
 815 001c 0446     		mov	r4, r0
 554:Drivers/STM32F4xx_HAL_Driver/Src/stm32f4xx_hal_sram.c ****   
 816              		.loc 1 554 0 discriminator 2
 817 001e 0126     		movs	r6, #1
 818 0020 80F84860 		strb	r6, [r0, #72]
 557:Drivers/STM32F4xx_HAL_Driver/Src/stm32f4xx_hal_sram.c ****   
 819              		.loc 1 557 0 discriminator 2
 820 0024 0221     		movs	r1, #2
 821              	.LVL88:
 822 0026 80F84910 		strb	r1, [r0, #73]
 560:Drivers/STM32F4xx_HAL_Driver/Src/stm32f4xx_hal_sram.c ****   hsram->hdma->XferErrorCallback = HAL_SRAM_DMA_XferErrorCallback;
 823              		.loc 1 560 0 discriminator 2
 824 002a C16C     		ldr	r1, [r0, #76]
 825 002c 0848     		ldr	r0, .L68
 826              	.LVL89:
ARM GAS  /tmp/ccODvp7u.s 			page 26


 827 002e C863     		str	r0, [r1, #60]
 561:Drivers/STM32F4xx_HAL_Driver/Src/stm32f4xx_hal_sram.c **** 
 828              		.loc 1 561 0 discriminator 2
 829 0030 E16C     		ldr	r1, [r4, #76]
 830 0032 0848     		ldr	r0, .L68+4
 831 0034 C864     		str	r0, [r1, #76]
 564:Drivers/STM32F4xx_HAL_Driver/Src/stm32f4xx_hal_sram.c ****   
 832              		.loc 1 564 0 discriminator 2
 833 0036 2946     		mov	r1, r5
 834 0038 E06C     		ldr	r0, [r4, #76]
 835 003a FFF7FEFF 		bl	HAL_DMA_Start_IT
 836              	.LVL90:
 567:Drivers/STM32F4xx_HAL_Driver/Src/stm32f4xx_hal_sram.c ****   
 837              		.loc 1 567 0 discriminator 2
 838 003e 84F84960 		strb	r6, [r4, #73]
 570:Drivers/STM32F4xx_HAL_Driver/Src/stm32f4xx_hal_sram.c ****   
 839              		.loc 1 570 0 discriminator 2
 840 0042 0020     		movs	r0, #0
 841 0044 84F84800 		strb	r0, [r4, #72]
 572:Drivers/STM32F4xx_HAL_Driver/Src/stm32f4xx_hal_sram.c **** }
 842              		.loc 1 572 0 discriminator 2
 843 0048 70BD     		pop	{r4, r5, r6, pc}
 844              	.LVL91:
 845              	.L64:
 550:Drivers/STM32F4xx_HAL_Driver/Src/stm32f4xx_hal_sram.c ****   }
 846              		.loc 1 550 0
 847 004a 0120     		movs	r0, #1
 848              	.LVL92:
 849 004c 70BD     		pop	{r4, r5, r6, pc}
 850              	.L69:
 851 004e 00BF     		.align	2
 852              	.L68:
 853 0050 00000000 		.word	HAL_SRAM_DMA_XferCpltCallback
 854 0054 00000000 		.word	HAL_SRAM_DMA_XferErrorCallback
 855              		.cfi_endproc
 856              	.LFE137:
 858              		.section	.text.HAL_SRAM_WriteOperation_Enable,"ax",%progbits
 859              		.align	1
 860              		.global	HAL_SRAM_WriteOperation_Enable
 861              		.syntax unified
 862              		.thumb
 863              		.thumb_func
 864              		.fpu fpv4-sp-d16
 866              	HAL_SRAM_WriteOperation_Enable:
 867              	.LFB138:
 574:Drivers/STM32F4xx_HAL_Driver/Src/stm32f4xx_hal_sram.c **** 
 575:Drivers/STM32F4xx_HAL_Driver/Src/stm32f4xx_hal_sram.c **** /**
 576:Drivers/STM32F4xx_HAL_Driver/Src/stm32f4xx_hal_sram.c ****   * @}
 577:Drivers/STM32F4xx_HAL_Driver/Src/stm32f4xx_hal_sram.c ****   */
 578:Drivers/STM32F4xx_HAL_Driver/Src/stm32f4xx_hal_sram.c ****   
 579:Drivers/STM32F4xx_HAL_Driver/Src/stm32f4xx_hal_sram.c **** /** @defgroup SRAM_Exported_Functions_Group3 Control functions 
 580:Drivers/STM32F4xx_HAL_Driver/Src/stm32f4xx_hal_sram.c ****  *  @brief   management functions 
 581:Drivers/STM32F4xx_HAL_Driver/Src/stm32f4xx_hal_sram.c ****  *
 582:Drivers/STM32F4xx_HAL_Driver/Src/stm32f4xx_hal_sram.c **** @verbatim   
 583:Drivers/STM32F4xx_HAL_Driver/Src/stm32f4xx_hal_sram.c ****   ==============================================================================
 584:Drivers/STM32F4xx_HAL_Driver/Src/stm32f4xx_hal_sram.c ****                         ##### SRAM Control functions #####
 585:Drivers/STM32F4xx_HAL_Driver/Src/stm32f4xx_hal_sram.c ****   ==============================================================================  
ARM GAS  /tmp/ccODvp7u.s 			page 27


 586:Drivers/STM32F4xx_HAL_Driver/Src/stm32f4xx_hal_sram.c ****   [..]
 587:Drivers/STM32F4xx_HAL_Driver/Src/stm32f4xx_hal_sram.c ****     This subsection provides a set of functions allowing to control dynamically
 588:Drivers/STM32F4xx_HAL_Driver/Src/stm32f4xx_hal_sram.c ****     the SRAM interface.
 589:Drivers/STM32F4xx_HAL_Driver/Src/stm32f4xx_hal_sram.c **** 
 590:Drivers/STM32F4xx_HAL_Driver/Src/stm32f4xx_hal_sram.c **** @endverbatim
 591:Drivers/STM32F4xx_HAL_Driver/Src/stm32f4xx_hal_sram.c ****   * @{
 592:Drivers/STM32F4xx_HAL_Driver/Src/stm32f4xx_hal_sram.c ****   */
 593:Drivers/STM32F4xx_HAL_Driver/Src/stm32f4xx_hal_sram.c ****     
 594:Drivers/STM32F4xx_HAL_Driver/Src/stm32f4xx_hal_sram.c **** /**
 595:Drivers/STM32F4xx_HAL_Driver/Src/stm32f4xx_hal_sram.c ****   * @brief  Enables dynamically SRAM write operation.
 596:Drivers/STM32F4xx_HAL_Driver/Src/stm32f4xx_hal_sram.c ****   * @param  hsram pointer to a SRAM_HandleTypeDef structure that contains
 597:Drivers/STM32F4xx_HAL_Driver/Src/stm32f4xx_hal_sram.c ****   *                the configuration information for SRAM module.
 598:Drivers/STM32F4xx_HAL_Driver/Src/stm32f4xx_hal_sram.c ****   * @retval HAL status
 599:Drivers/STM32F4xx_HAL_Driver/Src/stm32f4xx_hal_sram.c ****   */
 600:Drivers/STM32F4xx_HAL_Driver/Src/stm32f4xx_hal_sram.c **** HAL_StatusTypeDef HAL_SRAM_WriteOperation_Enable(SRAM_HandleTypeDef *hsram)
 601:Drivers/STM32F4xx_HAL_Driver/Src/stm32f4xx_hal_sram.c **** {
 868              		.loc 1 601 0
 869              		.cfi_startproc
 870              		@ args = 0, pretend = 0, frame = 0
 871              		@ frame_needed = 0, uses_anonymous_args = 0
 872              	.LVL93:
 873 0000 38B5     		push	{r3, r4, r5, lr}
 874              	.LCFI23:
 875              		.cfi_def_cfa_offset 16
 876              		.cfi_offset 3, -16
 877              		.cfi_offset 4, -12
 878              		.cfi_offset 5, -8
 879              		.cfi_offset 14, -4
 602:Drivers/STM32F4xx_HAL_Driver/Src/stm32f4xx_hal_sram.c ****   /* Process Locked */
 603:Drivers/STM32F4xx_HAL_Driver/Src/stm32f4xx_hal_sram.c ****   __HAL_LOCK(hsram);
 880              		.loc 1 603 0
 881 0002 90F84830 		ldrb	r3, [r0, #72]	@ zero_extendqisi2
 882 0006 012B     		cmp	r3, #1
 883 0008 01D1     		bne	.L74
 884 000a 0220     		movs	r0, #2
 885              	.LVL94:
 604:Drivers/STM32F4xx_HAL_Driver/Src/stm32f4xx_hal_sram.c **** 
 605:Drivers/STM32F4xx_HAL_Driver/Src/stm32f4xx_hal_sram.c ****   /* Enable write operation */
 606:Drivers/STM32F4xx_HAL_Driver/Src/stm32f4xx_hal_sram.c ****   FMC_NORSRAM_WriteOperation_Enable(hsram->Instance, hsram->Init.NSBank); 
 607:Drivers/STM32F4xx_HAL_Driver/Src/stm32f4xx_hal_sram.c ****   
 608:Drivers/STM32F4xx_HAL_Driver/Src/stm32f4xx_hal_sram.c ****   /* Update the SRAM controller state */
 609:Drivers/STM32F4xx_HAL_Driver/Src/stm32f4xx_hal_sram.c ****   hsram->State = HAL_SRAM_STATE_READY;
 610:Drivers/STM32F4xx_HAL_Driver/Src/stm32f4xx_hal_sram.c ****   
 611:Drivers/STM32F4xx_HAL_Driver/Src/stm32f4xx_hal_sram.c ****   /* Process unlocked */
 612:Drivers/STM32F4xx_HAL_Driver/Src/stm32f4xx_hal_sram.c ****   __HAL_UNLOCK(hsram); 
 613:Drivers/STM32F4xx_HAL_Driver/Src/stm32f4xx_hal_sram.c ****   
 614:Drivers/STM32F4xx_HAL_Driver/Src/stm32f4xx_hal_sram.c ****   return HAL_OK;  
 615:Drivers/STM32F4xx_HAL_Driver/Src/stm32f4xx_hal_sram.c **** }
 886              		.loc 1 615 0
 887 000c 38BD     		pop	{r3, r4, r5, pc}
 888              	.LVL95:
 889              	.L74:
 890 000e 0446     		mov	r4, r0
 603:Drivers/STM32F4xx_HAL_Driver/Src/stm32f4xx_hal_sram.c **** 
 891              		.loc 1 603 0 discriminator 2
 892 0010 0125     		movs	r5, #1
 893 0012 80F84850 		strb	r5, [r0, #72]
ARM GAS  /tmp/ccODvp7u.s 			page 28


 606:Drivers/STM32F4xx_HAL_Driver/Src/stm32f4xx_hal_sram.c ****   
 894              		.loc 1 606 0 discriminator 2
 895 0016 8168     		ldr	r1, [r0, #8]
 896 0018 0068     		ldr	r0, [r0]
 897              	.LVL96:
 898 001a FFF7FEFF 		bl	FMC_NORSRAM_WriteOperation_Enable
 899              	.LVL97:
 609:Drivers/STM32F4xx_HAL_Driver/Src/stm32f4xx_hal_sram.c ****   
 900              		.loc 1 609 0 discriminator 2
 901 001e 84F84950 		strb	r5, [r4, #73]
 612:Drivers/STM32F4xx_HAL_Driver/Src/stm32f4xx_hal_sram.c ****   
 902              		.loc 1 612 0 discriminator 2
 903 0022 0020     		movs	r0, #0
 904 0024 84F84800 		strb	r0, [r4, #72]
 614:Drivers/STM32F4xx_HAL_Driver/Src/stm32f4xx_hal_sram.c **** }
 905              		.loc 1 614 0 discriminator 2
 906 0028 38BD     		pop	{r3, r4, r5, pc}
 907              		.cfi_endproc
 908              	.LFE138:
 910              		.section	.text.HAL_SRAM_WriteOperation_Disable,"ax",%progbits
 911              		.align	1
 912              		.global	HAL_SRAM_WriteOperation_Disable
 913              		.syntax unified
 914              		.thumb
 915              		.thumb_func
 916              		.fpu fpv4-sp-d16
 918              	HAL_SRAM_WriteOperation_Disable:
 919              	.LFB139:
 616:Drivers/STM32F4xx_HAL_Driver/Src/stm32f4xx_hal_sram.c **** 
 617:Drivers/STM32F4xx_HAL_Driver/Src/stm32f4xx_hal_sram.c **** /**
 618:Drivers/STM32F4xx_HAL_Driver/Src/stm32f4xx_hal_sram.c ****   * @brief  Disables dynamically SRAM write operation.
 619:Drivers/STM32F4xx_HAL_Driver/Src/stm32f4xx_hal_sram.c ****   * @param  hsram pointer to a SRAM_HandleTypeDef structure that contains
 620:Drivers/STM32F4xx_HAL_Driver/Src/stm32f4xx_hal_sram.c ****   *                the configuration information for SRAM module.
 621:Drivers/STM32F4xx_HAL_Driver/Src/stm32f4xx_hal_sram.c ****   * @retval HAL status
 622:Drivers/STM32F4xx_HAL_Driver/Src/stm32f4xx_hal_sram.c ****   */
 623:Drivers/STM32F4xx_HAL_Driver/Src/stm32f4xx_hal_sram.c **** HAL_StatusTypeDef HAL_SRAM_WriteOperation_Disable(SRAM_HandleTypeDef *hsram)
 624:Drivers/STM32F4xx_HAL_Driver/Src/stm32f4xx_hal_sram.c **** {
 920              		.loc 1 624 0
 921              		.cfi_startproc
 922              		@ args = 0, pretend = 0, frame = 0
 923              		@ frame_needed = 0, uses_anonymous_args = 0
 924              	.LVL98:
 625:Drivers/STM32F4xx_HAL_Driver/Src/stm32f4xx_hal_sram.c ****   /* Process Locked */
 626:Drivers/STM32F4xx_HAL_Driver/Src/stm32f4xx_hal_sram.c ****   __HAL_LOCK(hsram);
 925              		.loc 1 626 0
 926 0000 90F84830 		ldrb	r3, [r0, #72]	@ zero_extendqisi2
 927 0004 012B     		cmp	r3, #1
 928 0006 01D1     		bne	.L82
 929 0008 0220     		movs	r0, #2
 930              	.LVL99:
 931 000a 7047     		bx	lr
 932              	.LVL100:
 933              	.L82:
 624:Drivers/STM32F4xx_HAL_Driver/Src/stm32f4xx_hal_sram.c ****   /* Process Locked */
 934              		.loc 1 624 0 discriminator 2
 935 000c 10B5     		push	{r4, lr}
 936              	.LCFI24:
ARM GAS  /tmp/ccODvp7u.s 			page 29


 937              		.cfi_def_cfa_offset 8
 938              		.cfi_offset 4, -8
 939              		.cfi_offset 14, -4
 940 000e 0446     		mov	r4, r0
 941              		.loc 1 626 0 discriminator 2
 942 0010 0123     		movs	r3, #1
 943 0012 80F84830 		strb	r3, [r0, #72]
 627:Drivers/STM32F4xx_HAL_Driver/Src/stm32f4xx_hal_sram.c **** 
 628:Drivers/STM32F4xx_HAL_Driver/Src/stm32f4xx_hal_sram.c ****   /* Update the SRAM controller state */
 629:Drivers/STM32F4xx_HAL_Driver/Src/stm32f4xx_hal_sram.c ****   hsram->State = HAL_SRAM_STATE_BUSY;
 944              		.loc 1 629 0 discriminator 2
 945 0016 0223     		movs	r3, #2
 946 0018 80F84930 		strb	r3, [r0, #73]
 630:Drivers/STM32F4xx_HAL_Driver/Src/stm32f4xx_hal_sram.c ****     
 631:Drivers/STM32F4xx_HAL_Driver/Src/stm32f4xx_hal_sram.c ****   /* Disable write operation */
 632:Drivers/STM32F4xx_HAL_Driver/Src/stm32f4xx_hal_sram.c ****   FMC_NORSRAM_WriteOperation_Disable(hsram->Instance, hsram->Init.NSBank); 
 947              		.loc 1 632 0 discriminator 2
 948 001c 8168     		ldr	r1, [r0, #8]
 949 001e 0068     		ldr	r0, [r0]
 950              	.LVL101:
 951 0020 FFF7FEFF 		bl	FMC_NORSRAM_WriteOperation_Disable
 952              	.LVL102:
 633:Drivers/STM32F4xx_HAL_Driver/Src/stm32f4xx_hal_sram.c ****   
 634:Drivers/STM32F4xx_HAL_Driver/Src/stm32f4xx_hal_sram.c ****   /* Update the SRAM controller state */
 635:Drivers/STM32F4xx_HAL_Driver/Src/stm32f4xx_hal_sram.c ****   hsram->State = HAL_SRAM_STATE_PROTECTED;
 953              		.loc 1 635 0 discriminator 2
 954 0024 0423     		movs	r3, #4
 955 0026 84F84930 		strb	r3, [r4, #73]
 636:Drivers/STM32F4xx_HAL_Driver/Src/stm32f4xx_hal_sram.c ****   
 637:Drivers/STM32F4xx_HAL_Driver/Src/stm32f4xx_hal_sram.c ****   /* Process unlocked */
 638:Drivers/STM32F4xx_HAL_Driver/Src/stm32f4xx_hal_sram.c ****   __HAL_UNLOCK(hsram); 
 956              		.loc 1 638 0 discriminator 2
 957 002a 0020     		movs	r0, #0
 958 002c 84F84800 		strb	r0, [r4, #72]
 639:Drivers/STM32F4xx_HAL_Driver/Src/stm32f4xx_hal_sram.c ****   
 640:Drivers/STM32F4xx_HAL_Driver/Src/stm32f4xx_hal_sram.c ****   return HAL_OK;  
 959              		.loc 1 640 0 discriminator 2
 960 0030 10BD     		pop	{r4, pc}
 961              		.cfi_endproc
 962              	.LFE139:
 964              		.section	.text.HAL_SRAM_GetState,"ax",%progbits
 965              		.align	1
 966              		.global	HAL_SRAM_GetState
 967              		.syntax unified
 968              		.thumb
 969              		.thumb_func
 970              		.fpu fpv4-sp-d16
 972              	HAL_SRAM_GetState:
 973              	.LFB140:
 641:Drivers/STM32F4xx_HAL_Driver/Src/stm32f4xx_hal_sram.c **** }
 642:Drivers/STM32F4xx_HAL_Driver/Src/stm32f4xx_hal_sram.c **** 
 643:Drivers/STM32F4xx_HAL_Driver/Src/stm32f4xx_hal_sram.c **** /**
 644:Drivers/STM32F4xx_HAL_Driver/Src/stm32f4xx_hal_sram.c ****   * @}
 645:Drivers/STM32F4xx_HAL_Driver/Src/stm32f4xx_hal_sram.c ****   */
 646:Drivers/STM32F4xx_HAL_Driver/Src/stm32f4xx_hal_sram.c **** 
 647:Drivers/STM32F4xx_HAL_Driver/Src/stm32f4xx_hal_sram.c **** /** @defgroup SRAM_Exported_Functions_Group4 State functions 
 648:Drivers/STM32F4xx_HAL_Driver/Src/stm32f4xx_hal_sram.c ****  *  @brief   Peripheral State functions 
ARM GAS  /tmp/ccODvp7u.s 			page 30


 649:Drivers/STM32F4xx_HAL_Driver/Src/stm32f4xx_hal_sram.c ****  *
 650:Drivers/STM32F4xx_HAL_Driver/Src/stm32f4xx_hal_sram.c **** @verbatim   
 651:Drivers/STM32F4xx_HAL_Driver/Src/stm32f4xx_hal_sram.c ****   ==============================================================================
 652:Drivers/STM32F4xx_HAL_Driver/Src/stm32f4xx_hal_sram.c ****                       ##### SRAM State functions #####
 653:Drivers/STM32F4xx_HAL_Driver/Src/stm32f4xx_hal_sram.c ****   ==============================================================================  
 654:Drivers/STM32F4xx_HAL_Driver/Src/stm32f4xx_hal_sram.c ****   [..]
 655:Drivers/STM32F4xx_HAL_Driver/Src/stm32f4xx_hal_sram.c ****     This subsection permits to get in run-time the status of the SRAM controller 
 656:Drivers/STM32F4xx_HAL_Driver/Src/stm32f4xx_hal_sram.c ****     and the data flow.
 657:Drivers/STM32F4xx_HAL_Driver/Src/stm32f4xx_hal_sram.c **** 
 658:Drivers/STM32F4xx_HAL_Driver/Src/stm32f4xx_hal_sram.c **** @endverbatim
 659:Drivers/STM32F4xx_HAL_Driver/Src/stm32f4xx_hal_sram.c ****   * @{
 660:Drivers/STM32F4xx_HAL_Driver/Src/stm32f4xx_hal_sram.c ****   */
 661:Drivers/STM32F4xx_HAL_Driver/Src/stm32f4xx_hal_sram.c ****   
 662:Drivers/STM32F4xx_HAL_Driver/Src/stm32f4xx_hal_sram.c **** /**
 663:Drivers/STM32F4xx_HAL_Driver/Src/stm32f4xx_hal_sram.c ****   * @brief  Returns the SRAM controller state
 664:Drivers/STM32F4xx_HAL_Driver/Src/stm32f4xx_hal_sram.c ****   * @param  hsram pointer to a SRAM_HandleTypeDef structure that contains
 665:Drivers/STM32F4xx_HAL_Driver/Src/stm32f4xx_hal_sram.c ****   *                the configuration information for SRAM module.
 666:Drivers/STM32F4xx_HAL_Driver/Src/stm32f4xx_hal_sram.c ****   * @retval HAL state
 667:Drivers/STM32F4xx_HAL_Driver/Src/stm32f4xx_hal_sram.c ****   */
 668:Drivers/STM32F4xx_HAL_Driver/Src/stm32f4xx_hal_sram.c **** HAL_SRAM_StateTypeDef HAL_SRAM_GetState(SRAM_HandleTypeDef *hsram)
 669:Drivers/STM32F4xx_HAL_Driver/Src/stm32f4xx_hal_sram.c **** {
 974              		.loc 1 669 0
 975              		.cfi_startproc
 976              		@ args = 0, pretend = 0, frame = 0
 977              		@ frame_needed = 0, uses_anonymous_args = 0
 978              		@ link register save eliminated.
 979              	.LVL103:
 670:Drivers/STM32F4xx_HAL_Driver/Src/stm32f4xx_hal_sram.c ****   return hsram->State;
 980              		.loc 1 670 0
 981 0000 90F84900 		ldrb	r0, [r0, #73]	@ zero_extendqisi2
 982              	.LVL104:
 671:Drivers/STM32F4xx_HAL_Driver/Src/stm32f4xx_hal_sram.c **** }
 983              		.loc 1 671 0
 984 0004 7047     		bx	lr
 985              		.cfi_endproc
 986              	.LFE140:
 988              		.text
 989              	.Letext0:
 990              		.file 2 "/usr/include/newlib/machine/_default_types.h"
 991              		.file 3 "/usr/include/newlib/sys/_stdint.h"
 992              		.file 4 "Drivers/CMSIS/Include/core_cm4.h"
 993              		.file 5 "Drivers/CMSIS/Device/ST/STM32F4xx/Include/system_stm32f4xx.h"
 994              		.file 6 "Drivers/CMSIS/Device/ST/STM32F4xx/Include/stm32f429xx.h"
 995              		.file 7 "/usr/include/newlib/sys/lock.h"
 996              		.file 8 "/usr/include/newlib/sys/_types.h"
 997              		.file 9 "/usr/lib/gcc/arm-none-eabi/6.3.1/include/stddef.h"
 998              		.file 10 "/usr/include/newlib/sys/reent.h"
 999              		.file 11 "Drivers/STM32F4xx_HAL_Driver/Inc/stm32f4xx_hal_def.h"
 1000              		.file 12 "Drivers/STM32F4xx_HAL_Driver/Inc/stm32f4xx_hal_dma.h"
 1001              		.file 13 "Drivers/STM32F4xx_HAL_Driver/Inc/stm32f4xx_ll_fmc.h"
 1002              		.file 14 "Drivers/STM32F4xx_HAL_Driver/Inc/stm32f4xx_hal_sram.h"
ARM GAS  /tmp/ccODvp7u.s 			page 31

